
TestFEES-FreeRtos- GPIOS-BUSSES-PWM.elf:     file format elf32-littlearm

Sections:
Idx Name          Size      VMA       LMA       File off  Algn
  0 .isr_vector   00000188  08000000  08000000  00010000  2**0
                  CONTENTS, ALLOC, LOAD, READONLY, DATA
  1 .text         00008ed4  08000190  08000190  00010190  2**4
                  CONTENTS, ALLOC, LOAD, READONLY, CODE
  2 .rodata       000001c8  08009064  08009064  00019064  2**2
                  CONTENTS, ALLOC, LOAD, READONLY, DATA
  3 .ARM.extab    00000000  0800922c  0800922c  00020010  2**0
                  CONTENTS
  4 .ARM          00000008  0800922c  0800922c  0001922c  2**2
                  CONTENTS, ALLOC, LOAD, READONLY, DATA
  5 .preinit_array 00000000  08009234  08009234  00020010  2**0
                  CONTENTS, ALLOC, LOAD, DATA
  6 .init_array   00000004  08009234  08009234  00019234  2**2
                  CONTENTS, ALLOC, LOAD, DATA
  7 .fini_array   00000004  08009238  08009238  00019238  2**2
                  CONTENTS, ALLOC, LOAD, DATA
  8 .data         00000010  20000000  0800923c  00020000  2**2
                  CONTENTS, ALLOC, LOAD, DATA
  9 .bss          00006208  20000010  0800924c  00020010  2**2
                  ALLOC
 10 ._user_heap_stack 00000600  20006218  0800924c  00026218  2**0
                  ALLOC
 11 .ARM.attributes 00000030  00000000  00000000  00020010  2**0
                  CONTENTS, READONLY
 12 .debug_info   00021e28  00000000  00000000  00020040  2**0
                  CONTENTS, READONLY, DEBUGGING
 13 .debug_abbrev 00003a57  00000000  00000000  00041e68  2**0
                  CONTENTS, READONLY, DEBUGGING
 14 .debug_aranges 00001cd0  00000000  00000000  000458c0  2**3
                  CONTENTS, READONLY, DEBUGGING
 15 .debug_ranges 00001b60  00000000  00000000  00047590  2**3
                  CONTENTS, READONLY, DEBUGGING
 16 .debug_macro  00004a35  00000000  00000000  000490f0  2**0
                  CONTENTS, READONLY, DEBUGGING
 17 .debug_line   000156e4  00000000  00000000  0004db25  2**0
                  CONTENTS, READONLY, DEBUGGING
 18 .debug_str    000df9f2  00000000  00000000  00063209  2**0
                  CONTENTS, READONLY, DEBUGGING
 19 .comment      0000007b  00000000  00000000  00142bfb  2**0
                  CONTENTS, READONLY
 20 .debug_frame  00007c64  00000000  00000000  00142c78  2**2
                  CONTENTS, READONLY, DEBUGGING

Disassembly of section .text:

08000190 <__do_global_dtors_aux>:
 8000190:	b510      	push	{r4, lr}
 8000192:	4c05      	ldr	r4, [pc, #20]	; (80001a8 <__do_global_dtors_aux+0x18>)
 8000194:	7823      	ldrb	r3, [r4, #0]
 8000196:	b933      	cbnz	r3, 80001a6 <__do_global_dtors_aux+0x16>
 8000198:	4b04      	ldr	r3, [pc, #16]	; (80001ac <__do_global_dtors_aux+0x1c>)
 800019a:	b113      	cbz	r3, 80001a2 <__do_global_dtors_aux+0x12>
 800019c:	4804      	ldr	r0, [pc, #16]	; (80001b0 <__do_global_dtors_aux+0x20>)
 800019e:	f3af 8000 	nop.w
 80001a2:	2301      	movs	r3, #1
 80001a4:	7023      	strb	r3, [r4, #0]
 80001a6:	bd10      	pop	{r4, pc}
 80001a8:	20000010 	.word	0x20000010
 80001ac:	00000000 	.word	0x00000000
 80001b0:	0800904c 	.word	0x0800904c

080001b4 <frame_dummy>:
 80001b4:	b508      	push	{r3, lr}
 80001b6:	4b03      	ldr	r3, [pc, #12]	; (80001c4 <frame_dummy+0x10>)
 80001b8:	b11b      	cbz	r3, 80001c2 <frame_dummy+0xe>
 80001ba:	4903      	ldr	r1, [pc, #12]	; (80001c8 <frame_dummy+0x14>)
 80001bc:	4803      	ldr	r0, [pc, #12]	; (80001cc <frame_dummy+0x18>)
 80001be:	f3af 8000 	nop.w
 80001c2:	bd08      	pop	{r3, pc}
 80001c4:	00000000 	.word	0x00000000
 80001c8:	20000014 	.word	0x20000014
 80001cc:	0800904c 	.word	0x0800904c

080001d0 <__aeabi_uldivmod>:
 80001d0:	b953      	cbnz	r3, 80001e8 <__aeabi_uldivmod+0x18>
 80001d2:	b94a      	cbnz	r2, 80001e8 <__aeabi_uldivmod+0x18>
 80001d4:	2900      	cmp	r1, #0
 80001d6:	bf08      	it	eq
 80001d8:	2800      	cmpeq	r0, #0
 80001da:	bf1c      	itt	ne
 80001dc:	f04f 31ff 	movne.w	r1, #4294967295
 80001e0:	f04f 30ff 	movne.w	r0, #4294967295
 80001e4:	f000 b972 	b.w	80004cc <__aeabi_idiv0>
 80001e8:	f1ad 0c08 	sub.w	ip, sp, #8
 80001ec:	e96d ce04 	strd	ip, lr, [sp, #-16]!
 80001f0:	f000 f806 	bl	8000200 <__udivmoddi4>
 80001f4:	f8dd e004 	ldr.w	lr, [sp, #4]
 80001f8:	e9dd 2302 	ldrd	r2, r3, [sp, #8]
 80001fc:	b004      	add	sp, #16
 80001fe:	4770      	bx	lr

08000200 <__udivmoddi4>:
 8000200:	e92d 47f0 	stmdb	sp!, {r4, r5, r6, r7, r8, r9, sl, lr}
 8000204:	9e08      	ldr	r6, [sp, #32]
 8000206:	4604      	mov	r4, r0
 8000208:	4688      	mov	r8, r1
 800020a:	2b00      	cmp	r3, #0
 800020c:	d14b      	bne.n	80002a6 <__udivmoddi4+0xa6>
 800020e:	428a      	cmp	r2, r1
 8000210:	4615      	mov	r5, r2
 8000212:	d967      	bls.n	80002e4 <__udivmoddi4+0xe4>
 8000214:	fab2 f282 	clz	r2, r2
 8000218:	b14a      	cbz	r2, 800022e <__udivmoddi4+0x2e>
 800021a:	f1c2 0720 	rsb	r7, r2, #32
 800021e:	fa01 f302 	lsl.w	r3, r1, r2
 8000222:	fa20 f707 	lsr.w	r7, r0, r7
 8000226:	4095      	lsls	r5, r2
 8000228:	ea47 0803 	orr.w	r8, r7, r3
 800022c:	4094      	lsls	r4, r2
 800022e:	ea4f 4e15 	mov.w	lr, r5, lsr #16
 8000232:	0c23      	lsrs	r3, r4, #16
 8000234:	fbb8 f7fe 	udiv	r7, r8, lr
 8000238:	fa1f fc85 	uxth.w	ip, r5
 800023c:	fb0e 8817 	mls	r8, lr, r7, r8
 8000240:	ea43 4308 	orr.w	r3, r3, r8, lsl #16
 8000244:	fb07 f10c 	mul.w	r1, r7, ip
 8000248:	4299      	cmp	r1, r3
 800024a:	d909      	bls.n	8000260 <__udivmoddi4+0x60>
 800024c:	18eb      	adds	r3, r5, r3
 800024e:	f107 30ff 	add.w	r0, r7, #4294967295
 8000252:	f080 811b 	bcs.w	800048c <__udivmoddi4+0x28c>
 8000256:	4299      	cmp	r1, r3
 8000258:	f240 8118 	bls.w	800048c <__udivmoddi4+0x28c>
 800025c:	3f02      	subs	r7, #2
 800025e:	442b      	add	r3, r5
 8000260:	1a5b      	subs	r3, r3, r1
 8000262:	b2a4      	uxth	r4, r4
 8000264:	fbb3 f0fe 	udiv	r0, r3, lr
 8000268:	fb0e 3310 	mls	r3, lr, r0, r3
 800026c:	ea44 4403 	orr.w	r4, r4, r3, lsl #16
 8000270:	fb00 fc0c 	mul.w	ip, r0, ip
 8000274:	45a4      	cmp	ip, r4
 8000276:	d909      	bls.n	800028c <__udivmoddi4+0x8c>
 8000278:	192c      	adds	r4, r5, r4
 800027a:	f100 33ff 	add.w	r3, r0, #4294967295
 800027e:	f080 8107 	bcs.w	8000490 <__udivmoddi4+0x290>
 8000282:	45a4      	cmp	ip, r4
 8000284:	f240 8104 	bls.w	8000490 <__udivmoddi4+0x290>
 8000288:	3802      	subs	r0, #2
 800028a:	442c      	add	r4, r5
 800028c:	ea40 4007 	orr.w	r0, r0, r7, lsl #16
 8000290:	eba4 040c 	sub.w	r4, r4, ip
 8000294:	2700      	movs	r7, #0
 8000296:	b11e      	cbz	r6, 80002a0 <__udivmoddi4+0xa0>
 8000298:	40d4      	lsrs	r4, r2
 800029a:	2300      	movs	r3, #0
 800029c:	e9c6 4300 	strd	r4, r3, [r6]
 80002a0:	4639      	mov	r1, r7
 80002a2:	e8bd 87f0 	ldmia.w	sp!, {r4, r5, r6, r7, r8, r9, sl, pc}
 80002a6:	428b      	cmp	r3, r1
 80002a8:	d909      	bls.n	80002be <__udivmoddi4+0xbe>
 80002aa:	2e00      	cmp	r6, #0
 80002ac:	f000 80eb 	beq.w	8000486 <__udivmoddi4+0x286>
 80002b0:	2700      	movs	r7, #0
 80002b2:	e9c6 0100 	strd	r0, r1, [r6]
 80002b6:	4638      	mov	r0, r7
 80002b8:	4639      	mov	r1, r7
 80002ba:	e8bd 87f0 	ldmia.w	sp!, {r4, r5, r6, r7, r8, r9, sl, pc}
 80002be:	fab3 f783 	clz	r7, r3
 80002c2:	2f00      	cmp	r7, #0
 80002c4:	d147      	bne.n	8000356 <__udivmoddi4+0x156>
 80002c6:	428b      	cmp	r3, r1
 80002c8:	d302      	bcc.n	80002d0 <__udivmoddi4+0xd0>
 80002ca:	4282      	cmp	r2, r0
 80002cc:	f200 80fa 	bhi.w	80004c4 <__udivmoddi4+0x2c4>
 80002d0:	1a84      	subs	r4, r0, r2
 80002d2:	eb61 0303 	sbc.w	r3, r1, r3
 80002d6:	2001      	movs	r0, #1
 80002d8:	4698      	mov	r8, r3
 80002da:	2e00      	cmp	r6, #0
 80002dc:	d0e0      	beq.n	80002a0 <__udivmoddi4+0xa0>
 80002de:	e9c6 4800 	strd	r4, r8, [r6]
 80002e2:	e7dd      	b.n	80002a0 <__udivmoddi4+0xa0>
 80002e4:	b902      	cbnz	r2, 80002e8 <__udivmoddi4+0xe8>
 80002e6:	deff      	udf	#255	; 0xff
 80002e8:	fab2 f282 	clz	r2, r2
 80002ec:	2a00      	cmp	r2, #0
 80002ee:	f040 808f 	bne.w	8000410 <__udivmoddi4+0x210>
 80002f2:	1b49      	subs	r1, r1, r5
 80002f4:	ea4f 4e15 	mov.w	lr, r5, lsr #16
 80002f8:	fa1f f885 	uxth.w	r8, r5
 80002fc:	2701      	movs	r7, #1
 80002fe:	fbb1 fcfe 	udiv	ip, r1, lr
 8000302:	0c23      	lsrs	r3, r4, #16
 8000304:	fb0e 111c 	mls	r1, lr, ip, r1
 8000308:	ea43 4301 	orr.w	r3, r3, r1, lsl #16
 800030c:	fb08 f10c 	mul.w	r1, r8, ip
 8000310:	4299      	cmp	r1, r3
 8000312:	d907      	bls.n	8000324 <__udivmoddi4+0x124>
 8000314:	18eb      	adds	r3, r5, r3
 8000316:	f10c 30ff 	add.w	r0, ip, #4294967295
 800031a:	d202      	bcs.n	8000322 <__udivmoddi4+0x122>
 800031c:	4299      	cmp	r1, r3
 800031e:	f200 80cd 	bhi.w	80004bc <__udivmoddi4+0x2bc>
 8000322:	4684      	mov	ip, r0
 8000324:	1a59      	subs	r1, r3, r1
 8000326:	b2a3      	uxth	r3, r4
 8000328:	fbb1 f0fe 	udiv	r0, r1, lr
 800032c:	fb0e 1410 	mls	r4, lr, r0, r1
 8000330:	ea43 4404 	orr.w	r4, r3, r4, lsl #16
 8000334:	fb08 f800 	mul.w	r8, r8, r0
 8000338:	45a0      	cmp	r8, r4
 800033a:	d907      	bls.n	800034c <__udivmoddi4+0x14c>
 800033c:	192c      	adds	r4, r5, r4
 800033e:	f100 33ff 	add.w	r3, r0, #4294967295
 8000342:	d202      	bcs.n	800034a <__udivmoddi4+0x14a>
 8000344:	45a0      	cmp	r8, r4
 8000346:	f200 80b6 	bhi.w	80004b6 <__udivmoddi4+0x2b6>
 800034a:	4618      	mov	r0, r3
 800034c:	eba4 0408 	sub.w	r4, r4, r8
 8000350:	ea40 400c 	orr.w	r0, r0, ip, lsl #16
 8000354:	e79f      	b.n	8000296 <__udivmoddi4+0x96>
 8000356:	f1c7 0c20 	rsb	ip, r7, #32
 800035a:	40bb      	lsls	r3, r7
 800035c:	fa22 fe0c 	lsr.w	lr, r2, ip
 8000360:	ea4e 0e03 	orr.w	lr, lr, r3
 8000364:	fa01 f407 	lsl.w	r4, r1, r7
 8000368:	fa20 f50c 	lsr.w	r5, r0, ip
 800036c:	fa21 f30c 	lsr.w	r3, r1, ip
 8000370:	ea4f 481e 	mov.w	r8, lr, lsr #16
 8000374:	4325      	orrs	r5, r4
 8000376:	fbb3 f9f8 	udiv	r9, r3, r8
 800037a:	0c2c      	lsrs	r4, r5, #16
 800037c:	fb08 3319 	mls	r3, r8, r9, r3
 8000380:	fa1f fa8e 	uxth.w	sl, lr
 8000384:	ea44 4303 	orr.w	r3, r4, r3, lsl #16
 8000388:	fb09 f40a 	mul.w	r4, r9, sl
 800038c:	429c      	cmp	r4, r3
 800038e:	fa02 f207 	lsl.w	r2, r2, r7
 8000392:	fa00 f107 	lsl.w	r1, r0, r7
 8000396:	d90b      	bls.n	80003b0 <__udivmoddi4+0x1b0>
 8000398:	eb1e 0303 	adds.w	r3, lr, r3
 800039c:	f109 30ff 	add.w	r0, r9, #4294967295
 80003a0:	f080 8087 	bcs.w	80004b2 <__udivmoddi4+0x2b2>
 80003a4:	429c      	cmp	r4, r3
 80003a6:	f240 8084 	bls.w	80004b2 <__udivmoddi4+0x2b2>
 80003aa:	f1a9 0902 	sub.w	r9, r9, #2
 80003ae:	4473      	add	r3, lr
 80003b0:	1b1b      	subs	r3, r3, r4
 80003b2:	b2ad      	uxth	r5, r5
 80003b4:	fbb3 f0f8 	udiv	r0, r3, r8
 80003b8:	fb08 3310 	mls	r3, r8, r0, r3
 80003bc:	ea45 4403 	orr.w	r4, r5, r3, lsl #16
 80003c0:	fb00 fa0a 	mul.w	sl, r0, sl
 80003c4:	45a2      	cmp	sl, r4
 80003c6:	d908      	bls.n	80003da <__udivmoddi4+0x1da>
 80003c8:	eb1e 0404 	adds.w	r4, lr, r4
 80003cc:	f100 33ff 	add.w	r3, r0, #4294967295
 80003d0:	d26b      	bcs.n	80004aa <__udivmoddi4+0x2aa>
 80003d2:	45a2      	cmp	sl, r4
 80003d4:	d969      	bls.n	80004aa <__udivmoddi4+0x2aa>
 80003d6:	3802      	subs	r0, #2
 80003d8:	4474      	add	r4, lr
 80003da:	ea40 4009 	orr.w	r0, r0, r9, lsl #16
 80003de:	fba0 8902 	umull	r8, r9, r0, r2
 80003e2:	eba4 040a 	sub.w	r4, r4, sl
 80003e6:	454c      	cmp	r4, r9
 80003e8:	46c2      	mov	sl, r8
 80003ea:	464b      	mov	r3, r9
 80003ec:	d354      	bcc.n	8000498 <__udivmoddi4+0x298>
 80003ee:	d051      	beq.n	8000494 <__udivmoddi4+0x294>
 80003f0:	2e00      	cmp	r6, #0
 80003f2:	d069      	beq.n	80004c8 <__udivmoddi4+0x2c8>
 80003f4:	ebb1 050a 	subs.w	r5, r1, sl
 80003f8:	eb64 0403 	sbc.w	r4, r4, r3
 80003fc:	fa04 fc0c 	lsl.w	ip, r4, ip
 8000400:	40fd      	lsrs	r5, r7
 8000402:	40fc      	lsrs	r4, r7
 8000404:	ea4c 0505 	orr.w	r5, ip, r5
 8000408:	e9c6 5400 	strd	r5, r4, [r6]
 800040c:	2700      	movs	r7, #0
 800040e:	e747      	b.n	80002a0 <__udivmoddi4+0xa0>
 8000410:	f1c2 0320 	rsb	r3, r2, #32
 8000414:	fa20 f703 	lsr.w	r7, r0, r3
 8000418:	4095      	lsls	r5, r2
 800041a:	fa01 f002 	lsl.w	r0, r1, r2
 800041e:	fa21 f303 	lsr.w	r3, r1, r3
 8000422:	ea4f 4e15 	mov.w	lr, r5, lsr #16
 8000426:	4338      	orrs	r0, r7
 8000428:	0c01      	lsrs	r1, r0, #16
 800042a:	fbb3 f7fe 	udiv	r7, r3, lr
 800042e:	fa1f f885 	uxth.w	r8, r5
 8000432:	fb0e 3317 	mls	r3, lr, r7, r3
 8000436:	ea41 4103 	orr.w	r1, r1, r3, lsl #16
 800043a:	fb07 f308 	mul.w	r3, r7, r8
 800043e:	428b      	cmp	r3, r1
 8000440:	fa04 f402 	lsl.w	r4, r4, r2
 8000444:	d907      	bls.n	8000456 <__udivmoddi4+0x256>
 8000446:	1869      	adds	r1, r5, r1
 8000448:	f107 3cff 	add.w	ip, r7, #4294967295
 800044c:	d22f      	bcs.n	80004ae <__udivmoddi4+0x2ae>
 800044e:	428b      	cmp	r3, r1
 8000450:	d92d      	bls.n	80004ae <__udivmoddi4+0x2ae>
 8000452:	3f02      	subs	r7, #2
 8000454:	4429      	add	r1, r5
 8000456:	1acb      	subs	r3, r1, r3
 8000458:	b281      	uxth	r1, r0
 800045a:	fbb3 f0fe 	udiv	r0, r3, lr
 800045e:	fb0e 3310 	mls	r3, lr, r0, r3
 8000462:	ea41 4103 	orr.w	r1, r1, r3, lsl #16
 8000466:	fb00 f308 	mul.w	r3, r0, r8
 800046a:	428b      	cmp	r3, r1
 800046c:	d907      	bls.n	800047e <__udivmoddi4+0x27e>
 800046e:	1869      	adds	r1, r5, r1
 8000470:	f100 3cff 	add.w	ip, r0, #4294967295
 8000474:	d217      	bcs.n	80004a6 <__udivmoddi4+0x2a6>
 8000476:	428b      	cmp	r3, r1
 8000478:	d915      	bls.n	80004a6 <__udivmoddi4+0x2a6>
 800047a:	3802      	subs	r0, #2
 800047c:	4429      	add	r1, r5
 800047e:	1ac9      	subs	r1, r1, r3
 8000480:	ea40 4707 	orr.w	r7, r0, r7, lsl #16
 8000484:	e73b      	b.n	80002fe <__udivmoddi4+0xfe>
 8000486:	4637      	mov	r7, r6
 8000488:	4630      	mov	r0, r6
 800048a:	e709      	b.n	80002a0 <__udivmoddi4+0xa0>
 800048c:	4607      	mov	r7, r0
 800048e:	e6e7      	b.n	8000260 <__udivmoddi4+0x60>
 8000490:	4618      	mov	r0, r3
 8000492:	e6fb      	b.n	800028c <__udivmoddi4+0x8c>
 8000494:	4541      	cmp	r1, r8
 8000496:	d2ab      	bcs.n	80003f0 <__udivmoddi4+0x1f0>
 8000498:	ebb8 0a02 	subs.w	sl, r8, r2
 800049c:	eb69 020e 	sbc.w	r2, r9, lr
 80004a0:	3801      	subs	r0, #1
 80004a2:	4613      	mov	r3, r2
 80004a4:	e7a4      	b.n	80003f0 <__udivmoddi4+0x1f0>
 80004a6:	4660      	mov	r0, ip
 80004a8:	e7e9      	b.n	800047e <__udivmoddi4+0x27e>
 80004aa:	4618      	mov	r0, r3
 80004ac:	e795      	b.n	80003da <__udivmoddi4+0x1da>
 80004ae:	4667      	mov	r7, ip
 80004b0:	e7d1      	b.n	8000456 <__udivmoddi4+0x256>
 80004b2:	4681      	mov	r9, r0
 80004b4:	e77c      	b.n	80003b0 <__udivmoddi4+0x1b0>
 80004b6:	3802      	subs	r0, #2
 80004b8:	442c      	add	r4, r5
 80004ba:	e747      	b.n	800034c <__udivmoddi4+0x14c>
 80004bc:	f1ac 0c02 	sub.w	ip, ip, #2
 80004c0:	442b      	add	r3, r5
 80004c2:	e72f      	b.n	8000324 <__udivmoddi4+0x124>
 80004c4:	4638      	mov	r0, r7
 80004c6:	e708      	b.n	80002da <__udivmoddi4+0xda>
 80004c8:	4637      	mov	r7, r6
 80004ca:	e6e9      	b.n	80002a0 <__udivmoddi4+0xa0>

080004cc <__aeabi_idiv0>:
 80004cc:	4770      	bx	lr
 80004ce:	bf00      	nop

080004d0 <FEES_Init>:

FEES_Pin JTAG_TMS;
FEES_Pin JTAG_TCK;


void FEES_Init(){
 80004d0:	b480      	push	{r7}
 80004d2:	af00      	add	r7, sp, #0

    // Battery Heater PWM
    PWM_HEATER.PORT__BASE = GPIOC ;
 80004d4:	4b8a      	ldr	r3, [pc, #552]	; (8000700 <FEES_Init+0x230>)
 80004d6:	4a8b      	ldr	r2, [pc, #556]	; (8000704 <FEES_Init+0x234>)
 80004d8:	601a      	str	r2, [r3, #0]
    PWM_HEATER.pin_number =  8;
 80004da:	4b89      	ldr	r3, [pc, #548]	; (8000700 <FEES_Init+0x230>)
 80004dc:	2208      	movs	r2, #8
 80004de:	605a      	str	r2, [r3, #4]

    // PWM COILS - MagnetoTorquers
    PWM_X_COIL.PORT__BASE = GPIOA ;
 80004e0:	4b89      	ldr	r3, [pc, #548]	; (8000708 <FEES_Init+0x238>)
 80004e2:	4a8a      	ldr	r2, [pc, #552]	; (800070c <FEES_Init+0x23c>)
 80004e4:	601a      	str	r2, [r3, #0]
    PWM_X_COIL.pin_number =  0;
 80004e6:	4b88      	ldr	r3, [pc, #544]	; (8000708 <FEES_Init+0x238>)
 80004e8:	2200      	movs	r2, #0
 80004ea:	605a      	str	r2, [r3, #4]

    PWM_Y_COIL.PORT__BASE = GPIOA ;
 80004ec:	4b88      	ldr	r3, [pc, #544]	; (8000710 <FEES_Init+0x240>)
 80004ee:	4a87      	ldr	r2, [pc, #540]	; (800070c <FEES_Init+0x23c>)
 80004f0:	601a      	str	r2, [r3, #0]
    PWM_Y_COIL.pin_number =  1;
 80004f2:	4b87      	ldr	r3, [pc, #540]	; (8000710 <FEES_Init+0x240>)
 80004f4:	2201      	movs	r2, #1
 80004f6:	605a      	str	r2, [r3, #4]

    PWM_Z_COIL.PORT__BASE = GPIOA ;
 80004f8:	4b86      	ldr	r3, [pc, #536]	; (8000714 <FEES_Init+0x244>)
 80004fa:	4a84      	ldr	r2, [pc, #528]	; (800070c <FEES_Init+0x23c>)
 80004fc:	601a      	str	r2, [r3, #0]
    PWM_Z_COIL.pin_number =  2;
 80004fe:	4b85      	ldr	r3, [pc, #532]	; (8000714 <FEES_Init+0x244>)
 8000500:	2202      	movs	r2, #2
 8000502:	605a      	str	r2, [r3, #4]

    // Direction PWM Magnetometers
    DIR_X_COIL.PORT__BASE = GPIOE ;
 8000504:	4b84      	ldr	r3, [pc, #528]	; (8000718 <FEES_Init+0x248>)
 8000506:	4a85      	ldr	r2, [pc, #532]	; (800071c <FEES_Init+0x24c>)
 8000508:	601a      	str	r2, [r3, #0]
    DIR_X_COIL.pin_number =  7;
 800050a:	4b83      	ldr	r3, [pc, #524]	; (8000718 <FEES_Init+0x248>)
 800050c:	2207      	movs	r2, #7
 800050e:	605a      	str	r2, [r3, #4]

    DIR_Y_COIL.PORT__BASE = GPIOE ;
 8000510:	4b83      	ldr	r3, [pc, #524]	; (8000720 <FEES_Init+0x250>)
 8000512:	4a82      	ldr	r2, [pc, #520]	; (800071c <FEES_Init+0x24c>)
 8000514:	601a      	str	r2, [r3, #0]
    DIR_Y_COIL.pin_number =  8;
 8000516:	4b82      	ldr	r3, [pc, #520]	; (8000720 <FEES_Init+0x250>)
 8000518:	2208      	movs	r2, #8
 800051a:	605a      	str	r2, [r3, #4]

    DIR_Z_COIL.PORT__BASE = GPIOE ;
 800051c:	4b81      	ldr	r3, [pc, #516]	; (8000724 <FEES_Init+0x254>)
 800051e:	4a7f      	ldr	r2, [pc, #508]	; (800071c <FEES_Init+0x24c>)
 8000520:	601a      	str	r2, [r3, #0]
    DIR_Z_COIL.pin_number =  9;
 8000522:	4b80      	ldr	r3, [pc, #512]	; (8000724 <FEES_Init+0x254>)
 8000524:	2209      	movs	r2, #9
 8000526:	605a      	str	r2, [r3, #4]

    //GPIO DI CONTROLLO E WATCHDOG
    WATCHDOG.PORT__BASE = GPIOB ;
 8000528:	4b7f      	ldr	r3, [pc, #508]	; (8000728 <FEES_Init+0x258>)
 800052a:	4a80      	ldr	r2, [pc, #512]	; (800072c <FEES_Init+0x25c>)
 800052c:	601a      	str	r2, [r3, #0]
    WATCHDOG.pin_number =  5;
 800052e:	4b7e      	ldr	r3, [pc, #504]	; (8000728 <FEES_Init+0x258>)
 8000530:	2205      	movs	r2, #5
 8000532:	605a      	str	r2, [r3, #4]

    UHF_RESET.PORT__BASE = GPIOC ;
 8000534:	4b7e      	ldr	r3, [pc, #504]	; (8000730 <FEES_Init+0x260>)
 8000536:	4a73      	ldr	r2, [pc, #460]	; (8000704 <FEES_Init+0x234>)
 8000538:	601a      	str	r2, [r3, #0]
    UHF_RESET.pin_number =  13;
 800053a:	4b7d      	ldr	r3, [pc, #500]	; (8000730 <FEES_Init+0x260>)
 800053c:	220d      	movs	r2, #13
 800053e:	605a      	str	r2, [r3, #4]

    RAD_RESET.PORT__BASE = GPIOC ;
 8000540:	4b7c      	ldr	r3, [pc, #496]	; (8000734 <FEES_Init+0x264>)
 8000542:	4a70      	ldr	r2, [pc, #448]	; (8000704 <FEES_Init+0x234>)
 8000544:	601a      	str	r2, [r3, #0]
    RAD_RESET.pin_number =  15;
 8000546:	4b7b      	ldr	r3, [pc, #492]	; (8000734 <FEES_Init+0x264>)
 8000548:	220f      	movs	r2, #15
 800054a:	605a      	str	r2, [r3, #4]

    TMTC_WD.PORT__BASE = GPIOD ;
 800054c:	4b7a      	ldr	r3, [pc, #488]	; (8000738 <FEES_Init+0x268>)
 800054e:	4a7b      	ldr	r2, [pc, #492]	; (800073c <FEES_Init+0x26c>)
 8000550:	601a      	str	r2, [r3, #0]
    TMTC_WD.pin_number =  12;
 8000552:	4b79      	ldr	r3, [pc, #484]	; (8000738 <FEES_Init+0x268>)
 8000554:	220c      	movs	r2, #12
 8000556:	605a      	str	r2, [r3, #4]

    RSBY_KEEP_EN.PORT__BASE = GPIOB ;
 8000558:	4b79      	ldr	r3, [pc, #484]	; (8000740 <FEES_Init+0x270>)
 800055a:	4a74      	ldr	r2, [pc, #464]	; (800072c <FEES_Init+0x25c>)
 800055c:	601a      	str	r2, [r3, #0]
    RSBY_KEEP_EN.pin_number =  0;
 800055e:	4b78      	ldr	r3, [pc, #480]	; (8000740 <FEES_Init+0x270>)
 8000560:	2200      	movs	r2, #0
 8000562:	605a      	str	r2, [r3, #4]


    //GPIO DI CONTROLLO Alimentazione (Power Control)
    ANA_PWR_ON.PORT__BASE = GPIOE ;
 8000564:	4b77      	ldr	r3, [pc, #476]	; (8000744 <FEES_Init+0x274>)
 8000566:	4a6d      	ldr	r2, [pc, #436]	; (800071c <FEES_Init+0x24c>)
 8000568:	601a      	str	r2, [r3, #0]
    ANA_PWR_ON.pin_number =  0;
 800056a:	4b76      	ldr	r3, [pc, #472]	; (8000744 <FEES_Init+0x274>)
 800056c:	2200      	movs	r2, #0
 800056e:	605a      	str	r2, [r3, #4]

    RAD_PWR_ON.PORT__BASE = GPIOE ;
 8000570:	4b75      	ldr	r3, [pc, #468]	; (8000748 <FEES_Init+0x278>)
 8000572:	4a6a      	ldr	r2, [pc, #424]	; (800071c <FEES_Init+0x24c>)
 8000574:	601a      	str	r2, [r3, #0]
    RAD_PWR_ON.pin_number =  1;
 8000576:	4b74      	ldr	r3, [pc, #464]	; (8000748 <FEES_Init+0x278>)
 8000578:	2201      	movs	r2, #1
 800057a:	605a      	str	r2, [r3, #4]

    GPS_PWR_ON.PORT__BASE = GPIOE ;
 800057c:	4b73      	ldr	r3, [pc, #460]	; (800074c <FEES_Init+0x27c>)
 800057e:	4a67      	ldr	r2, [pc, #412]	; (800071c <FEES_Init+0x24c>)
 8000580:	601a      	str	r2, [r3, #0]
    GPS_PWR_ON.pin_number =  2;
 8000582:	4b72      	ldr	r3, [pc, #456]	; (800074c <FEES_Init+0x27c>)
 8000584:	2202      	movs	r2, #2
 8000586:	605a      	str	r2, [r3, #4]

    SBD_PWR_ON.PORT__BASE = GPIOE ;
 8000588:	4b71      	ldr	r3, [pc, #452]	; (8000750 <FEES_Init+0x280>)
 800058a:	4a64      	ldr	r2, [pc, #400]	; (800071c <FEES_Init+0x24c>)
 800058c:	601a      	str	r2, [r3, #0]
    SBD_PWR_ON.pin_number =  3;
 800058e:	4b70      	ldr	r3, [pc, #448]	; (8000750 <FEES_Init+0x280>)
 8000590:	2203      	movs	r2, #3
 8000592:	605a      	str	r2, [r3, #4]

    RSBY_PWR_ON.PORT__BASE = GPIOE ;
 8000594:	4b6f      	ldr	r3, [pc, #444]	; (8000754 <FEES_Init+0x284>)
 8000596:	4a61      	ldr	r2, [pc, #388]	; (800071c <FEES_Init+0x24c>)
 8000598:	601a      	str	r2, [r3, #0]
    RSBY_PWR_ON.pin_number =  6;
 800059a:	4b6e      	ldr	r3, [pc, #440]	; (8000754 <FEES_Init+0x284>)
 800059c:	2206      	movs	r2, #6
 800059e:	605a      	str	r2, [r3, #4]


    // SPI SMART PINS - Sensors
    CS_NAND.PORT__BASE = GPIOE ;
 80005a0:	4b6d      	ldr	r3, [pc, #436]	; (8000758 <FEES_Init+0x288>)
 80005a2:	4a5e      	ldr	r2, [pc, #376]	; (800071c <FEES_Init+0x24c>)
 80005a4:	601a      	str	r2, [r3, #0]
    CS_NAND.pin_number =  4;
 80005a6:	4b6c      	ldr	r3, [pc, #432]	; (8000758 <FEES_Init+0x288>)
 80005a8:	2204      	movs	r2, #4
 80005aa:	605a      	str	r2, [r3, #4]

    CS_LORA.PORT__BASE = GPIOE ;
 80005ac:	4b6b      	ldr	r3, [pc, #428]	; (800075c <FEES_Init+0x28c>)
 80005ae:	4a5b      	ldr	r2, [pc, #364]	; (800071c <FEES_Init+0x24c>)
 80005b0:	601a      	str	r2, [r3, #0]
    CS_LORA.pin_number =  5;
 80005b2:	4b6a      	ldr	r3, [pc, #424]	; (800075c <FEES_Init+0x28c>)
 80005b4:	2205      	movs	r2, #5
 80005b6:	605a      	str	r2, [r3, #4]

    CS_RADFET.PORT__BASE = GPIOA ;
 80005b8:	4b69      	ldr	r3, [pc, #420]	; (8000760 <FEES_Init+0x290>)
 80005ba:	4a54      	ldr	r2, [pc, #336]	; (800070c <FEES_Init+0x23c>)
 80005bc:	601a      	str	r2, [r3, #0]
    CS_RADFET.pin_number = 4 ;
 80005be:	4b68      	ldr	r3, [pc, #416]	; (8000760 <FEES_Init+0x290>)
 80005c0:	2204      	movs	r2, #4
 80005c2:	605a      	str	r2, [r3, #4]

    CS_EEPROM.PORT__BASE = GPIOD;
 80005c4:	4b67      	ldr	r3, [pc, #412]	; (8000764 <FEES_Init+0x294>)
 80005c6:	4a5d      	ldr	r2, [pc, #372]	; (800073c <FEES_Init+0x26c>)
 80005c8:	601a      	str	r2, [r3, #0]
    CS_EEPROM.pin_number =  10;
 80005ca:	4b66      	ldr	r3, [pc, #408]	; (8000764 <FEES_Init+0x294>)
 80005cc:	220a      	movs	r2, #10
 80005ce:	605a      	str	r2, [r3, #4]

    CS_FRAM.PORT__BASE =  GPIOD;
 80005d0:	4b65      	ldr	r3, [pc, #404]	; (8000768 <FEES_Init+0x298>)
 80005d2:	4a5a      	ldr	r2, [pc, #360]	; (800073c <FEES_Init+0x26c>)
 80005d4:	601a      	str	r2, [r3, #0]
    CS_FRAM.pin_number =  11;
 80005d6:	4b64      	ldr	r3, [pc, #400]	; (8000768 <FEES_Init+0x298>)
 80005d8:	220b      	movs	r2, #11
 80005da:	605a      	str	r2, [r3, #4]

    CS_PSD1_AMP.PORT__BASE = GPIOC  ;
 80005dc:	4b63      	ldr	r3, [pc, #396]	; (800076c <FEES_Init+0x29c>)
 80005de:	4a49      	ldr	r2, [pc, #292]	; (8000704 <FEES_Init+0x234>)
 80005e0:	601a      	str	r2, [r3, #0]
    CS_PSD1_AMP.pin_number =  4;
 80005e2:	4b62      	ldr	r3, [pc, #392]	; (800076c <FEES_Init+0x29c>)
 80005e4:	2204      	movs	r2, #4
 80005e6:	605a      	str	r2, [r3, #4]

    CS_PSD2_AMP.PORT__BASE =  GPIOC;
 80005e8:	4b61      	ldr	r3, [pc, #388]	; (8000770 <FEES_Init+0x2a0>)
 80005ea:	4a46      	ldr	r2, [pc, #280]	; (8000704 <FEES_Init+0x234>)
 80005ec:	601a      	str	r2, [r3, #0]
    CS_PSD2_AMP.pin_number =  5;
 80005ee:	4b60      	ldr	r3, [pc, #384]	; (8000770 <FEES_Init+0x2a0>)
 80005f0:	2205      	movs	r2, #5
 80005f2:	605a      	str	r2, [r3, #4]

    CS_GYRO.PORT__BASE =  GPIOE;
 80005f4:	4b5f      	ldr	r3, [pc, #380]	; (8000774 <FEES_Init+0x2a4>)
 80005f6:	4a49      	ldr	r2, [pc, #292]	; (800071c <FEES_Init+0x24c>)
 80005f8:	601a      	str	r2, [r3, #0]
    CS_GYRO.pin_number =  10;
 80005fa:	4b5e      	ldr	r3, [pc, #376]	; (8000774 <FEES_Init+0x2a4>)
 80005fc:	220a      	movs	r2, #10
 80005fe:	605a      	str	r2, [r3, #4]

    CS_GYRO2.PORT__BASE =  GPIOD;
 8000600:	4b5d      	ldr	r3, [pc, #372]	; (8000778 <FEES_Init+0x2a8>)
 8000602:	4a4e      	ldr	r2, [pc, #312]	; (800073c <FEES_Init+0x26c>)
 8000604:	601a      	str	r2, [r3, #0]
    CS_GYRO2.pin_number =  14;
 8000606:	4b5c      	ldr	r3, [pc, #368]	; (8000778 <FEES_Init+0x2a8>)
 8000608:	220e      	movs	r2, #14
 800060a:	605a      	str	r2, [r3, #4]

    EN_ADC1.PORT__BASE = GPIOE ;
 800060c:	4b5b      	ldr	r3, [pc, #364]	; (800077c <FEES_Init+0x2ac>)
 800060e:	4a43      	ldr	r2, [pc, #268]	; (800071c <FEES_Init+0x24c>)
 8000610:	601a      	str	r2, [r3, #0]
    EN_ADC1.pin_number =  11;
 8000612:	4b5a      	ldr	r3, [pc, #360]	; (800077c <FEES_Init+0x2ac>)
 8000614:	220b      	movs	r2, #11
 8000616:	605a      	str	r2, [r3, #4]

    EN_ADC2.PORT__BASE = GPIOE ;
 8000618:	4b59      	ldr	r3, [pc, #356]	; (8000780 <FEES_Init+0x2b0>)
 800061a:	4a40      	ldr	r2, [pc, #256]	; (800071c <FEES_Init+0x24c>)
 800061c:	601a      	str	r2, [r3, #0]
    EN_ADC2.pin_number =  13 ;
 800061e:	4b58      	ldr	r3, [pc, #352]	; (8000780 <FEES_Init+0x2b0>)
 8000620:	220d      	movs	r2, #13
 8000622:	605a      	str	r2, [r3, #4]

    EN_ADC3.PORT__BASE = GPIOE ;
 8000624:	4b57      	ldr	r3, [pc, #348]	; (8000784 <FEES_Init+0x2b4>)
 8000626:	4a3d      	ldr	r2, [pc, #244]	; (800071c <FEES_Init+0x24c>)
 8000628:	601a      	str	r2, [r3, #0]
    EN_ADC3.pin_number =  12 ;
 800062a:	4b56      	ldr	r3, [pc, #344]	; (8000784 <FEES_Init+0x2b4>)
 800062c:	220c      	movs	r2, #12
 800062e:	605a      	str	r2, [r3, #4]

    EXT_SPI_EN.PORT__BASE = GPIOC ;
 8000630:	4b55      	ldr	r3, [pc, #340]	; (8000788 <FEES_Init+0x2b8>)
 8000632:	4a34      	ldr	r2, [pc, #208]	; (8000704 <FEES_Init+0x234>)
 8000634:	601a      	str	r2, [r3, #0]
    EXT_SPI_EN.pin_number =  9 ;
 8000636:	4b54      	ldr	r3, [pc, #336]	; (8000788 <FEES_Init+0x2b8>)
 8000638:	2209      	movs	r2, #9
 800063a:	605a      	str	r2, [r3, #4]

    // GPIO EXTRA
    EX_GPIO1.PORT__BASE = GPIOB;
 800063c:	4b53      	ldr	r3, [pc, #332]	; (800078c <FEES_Init+0x2bc>)
 800063e:	4a3b      	ldr	r2, [pc, #236]	; (800072c <FEES_Init+0x25c>)
 8000640:	601a      	str	r2, [r3, #0]
    EX_GPIO1.pin_number =  1;
 8000642:	4b52      	ldr	r3, [pc, #328]	; (800078c <FEES_Init+0x2bc>)
 8000644:	2201      	movs	r2, #1
 8000646:	605a      	str	r2, [r3, #4]

    EX_GPIO2.PORT__BASE =  GPIOB;
 8000648:	4b51      	ldr	r3, [pc, #324]	; (8000790 <FEES_Init+0x2c0>)
 800064a:	4a38      	ldr	r2, [pc, #224]	; (800072c <FEES_Init+0x25c>)
 800064c:	601a      	str	r2, [r3, #0]
    EX_GPIO2.pin_number =  12;
 800064e:	4b50      	ldr	r3, [pc, #320]	; (8000790 <FEES_Init+0x2c0>)
 8000650:	220c      	movs	r2, #12
 8000652:	605a      	str	r2, [r3, #4]

    EX_GPIO3.PORT__BASE =  GPIOA;
 8000654:	4b4f      	ldr	r3, [pc, #316]	; (8000794 <FEES_Init+0x2c4>)
 8000656:	4a2d      	ldr	r2, [pc, #180]	; (800070c <FEES_Init+0x23c>)
 8000658:	601a      	str	r2, [r3, #0]
    EX_GPIO3.pin_number =  3;
 800065a:	4b4e      	ldr	r3, [pc, #312]	; (8000794 <FEES_Init+0x2c4>)
 800065c:	2203      	movs	r2, #3
 800065e:	605a      	str	r2, [r3, #4]

    EX_GPIO4.PORT__BASE =  GPIOA;
 8000660:	4b4d      	ldr	r3, [pc, #308]	; (8000798 <FEES_Init+0x2c8>)
 8000662:	4a2a      	ldr	r2, [pc, #168]	; (800070c <FEES_Init+0x23c>)
 8000664:	601a      	str	r2, [r3, #0]
    EX_GPIO4.pin_number =  10;
 8000666:	4b4c      	ldr	r3, [pc, #304]	; (8000798 <FEES_Init+0x2c8>)
 8000668:	220a      	movs	r2, #10
 800066a:	605a      	str	r2, [r3, #4]


  		// Select
    PSD1_SEL0.PORT__BASE = GPIOC ;
 800066c:	4b4b      	ldr	r3, [pc, #300]	; (800079c <FEES_Init+0x2cc>)
 800066e:	4a25      	ldr	r2, [pc, #148]	; (8000704 <FEES_Init+0x234>)
 8000670:	601a      	str	r2, [r3, #0]
    PSD1_SEL0.pin_number = 1 ;
 8000672:	4b4a      	ldr	r3, [pc, #296]	; (800079c <FEES_Init+0x2cc>)
 8000674:	2201      	movs	r2, #1
 8000676:	605a      	str	r2, [r3, #4]

    PSD1_SEL1.PORT__BASE = GPIOC ;
 8000678:	4b49      	ldr	r3, [pc, #292]	; (80007a0 <FEES_Init+0x2d0>)
 800067a:	4a22      	ldr	r2, [pc, #136]	; (8000704 <FEES_Init+0x234>)
 800067c:	601a      	str	r2, [r3, #0]
    PSD1_SEL1.pin_number = 0 ;
 800067e:	4b48      	ldr	r3, [pc, #288]	; (80007a0 <FEES_Init+0x2d0>)
 8000680:	2200      	movs	r2, #0
 8000682:	605a      	str	r2, [r3, #4]

    PSD2_SEL0.PORT__BASE = GPIOC ;
 8000684:	4b47      	ldr	r3, [pc, #284]	; (80007a4 <FEES_Init+0x2d4>)
 8000686:	4a1f      	ldr	r2, [pc, #124]	; (8000704 <FEES_Init+0x234>)
 8000688:	601a      	str	r2, [r3, #0]
    PSD2_SEL0.pin_number = 3 ;
 800068a:	4b46      	ldr	r3, [pc, #280]	; (80007a4 <FEES_Init+0x2d4>)
 800068c:	2203      	movs	r2, #3
 800068e:	605a      	str	r2, [r3, #4]

    PSD2_SEL1.PORT__BASE = GPIOC ;
 8000690:	4b45      	ldr	r3, [pc, #276]	; (80007a8 <FEES_Init+0x2d8>)
 8000692:	4a1c      	ldr	r2, [pc, #112]	; (8000704 <FEES_Init+0x234>)
 8000694:	601a      	str	r2, [r3, #0]
    PSD2_SEL1.pin_number = 2 ;
 8000696:	4b44      	ldr	r3, [pc, #272]	; (80007a8 <FEES_Init+0x2d8>)
 8000698:	2202      	movs	r2, #2
 800069a:	605a      	str	r2, [r3, #4]

 		// IMU
    INT_GYRO1.PORT__BASE = GPIOD ;
 800069c:	4b43      	ldr	r3, [pc, #268]	; (80007ac <FEES_Init+0x2dc>)
 800069e:	4a27      	ldr	r2, [pc, #156]	; (800073c <FEES_Init+0x26c>)
 80006a0:	601a      	str	r2, [r3, #0]
    INT_GYRO1.pin_number = 13 ;
 80006a2:	4b42      	ldr	r3, [pc, #264]	; (80007ac <FEES_Init+0x2dc>)
 80006a4:	220d      	movs	r2, #13
 80006a6:	605a      	str	r2, [r3, #4]

    INT_GYRO2.PORT__BASE = GPIOD;
 80006a8:	4b41      	ldr	r3, [pc, #260]	; (80007b0 <FEES_Init+0x2e0>)
 80006aa:	4a24      	ldr	r2, [pc, #144]	; (800073c <FEES_Init+0x26c>)
 80006ac:	601a      	str	r2, [r3, #0]
    INT_GYRO2.pin_number = 15 ;
 80006ae:	4b40      	ldr	r3, [pc, #256]	; (80007b0 <FEES_Init+0x2e0>)
 80006b0:	220f      	movs	r2, #15
 80006b2:	605a      	str	r2, [r3, #4]
  		// Radex
    RAD_RESET.PORT__BASE = GPIOC  ;
 80006b4:	4b1f      	ldr	r3, [pc, #124]	; (8000734 <FEES_Init+0x264>)
 80006b6:	4a13      	ldr	r2, [pc, #76]	; (8000704 <FEES_Init+0x234>)
 80006b8:	601a      	str	r2, [r3, #0]
    RAD_RESET.pin_number = 15 ;
 80006ba:	4b1e      	ldr	r3, [pc, #120]	; (8000734 <FEES_Init+0x264>)
 80006bc:	220f      	movs	r2, #15
 80006be:	605a      	str	r2, [r3, #4]

    RADFET_OWB.PORT__BASE = GPIOC ;
 80006c0:	4b3c      	ldr	r3, [pc, #240]	; (80007b4 <FEES_Init+0x2e4>)
 80006c2:	4a10      	ldr	r2, [pc, #64]	; (8000704 <FEES_Init+0x234>)
 80006c4:	601a      	str	r2, [r3, #0]
    RADFET_OWB.pin_number = 14 ;
 80006c6:	4b3b      	ldr	r3, [pc, #236]	; (80007b4 <FEES_Init+0x2e4>)
 80006c8:	220e      	movs	r2, #14
 80006ca:	605a      	str	r2, [r3, #4]
  		//SDB
    SDB_ON_OFF.PORT__BASE = GPIOD ;
 80006cc:	4b3a      	ldr	r3, [pc, #232]	; (80007b8 <FEES_Init+0x2e8>)
 80006ce:	4a1b      	ldr	r2, [pc, #108]	; (800073c <FEES_Init+0x26c>)
 80006d0:	601a      	str	r2, [r3, #0]
    SDB_ON_OFF.pin_number =  7;
 80006d2:	4b39      	ldr	r3, [pc, #228]	; (80007b8 <FEES_Init+0x2e8>)
 80006d4:	2207      	movs	r2, #7
 80006d6:	605a      	str	r2, [r3, #4]

    SDB_SER_RI.PORT__BASE = GPIOE ;
 80006d8:	4b38      	ldr	r3, [pc, #224]	; (80007bc <FEES_Init+0x2ec>)
 80006da:	4a10      	ldr	r2, [pc, #64]	; (800071c <FEES_Init+0x24c>)
 80006dc:	601a      	str	r2, [r3, #0]
    SDB_SER_RI.pin_number = 14 ;
 80006de:	4b37      	ldr	r3, [pc, #220]	; (80007bc <FEES_Init+0x2ec>)
 80006e0:	220e      	movs	r2, #14
 80006e2:	605a      	str	r2, [r3, #4]

    SDB_SER_NET.PORT__BASE = GPIOE ;
 80006e4:	4b36      	ldr	r3, [pc, #216]	; (80007c0 <FEES_Init+0x2f0>)
 80006e6:	4a0d      	ldr	r2, [pc, #52]	; (800071c <FEES_Init+0x24c>)
 80006e8:	601a      	str	r2, [r3, #0]
    SDB_SER_NET.pin_number = 15 ;
 80006ea:	4b35      	ldr	r3, [pc, #212]	; (80007c0 <FEES_Init+0x2f0>)
 80006ec:	220f      	movs	r2, #15
 80006ee:	605a      	str	r2, [r3, #4]

    SDB_SER_DCD.PORT__BASE = GPIOD ;
 80006f0:	4b34      	ldr	r3, [pc, #208]	; (80007c4 <FEES_Init+0x2f4>)
 80006f2:	4a12      	ldr	r2, [pc, #72]	; (800073c <FEES_Init+0x26c>)
 80006f4:	601a      	str	r2, [r3, #0]
    SDB_SER_DCD.pin_number = 0 ;
 80006f6:	4b33      	ldr	r3, [pc, #204]	; (80007c4 <FEES_Init+0x2f4>)
 80006f8:	2200      	movs	r2, #0
 80006fa:	605a      	str	r2, [r3, #4]
 80006fc:	e064      	b.n	80007c8 <FEES_Init+0x2f8>
 80006fe:	bf00      	nop
 8000700:	20005570 	.word	0x20005570
 8000704:	40020800 	.word	0x40020800
 8000708:	200058e8 	.word	0x200058e8
 800070c:	40020000 	.word	0x40020000
 8000710:	200055b8 	.word	0x200055b8
 8000714:	2000565c 	.word	0x2000565c
 8000718:	2000614c 	.word	0x2000614c
 800071c:	40021000 	.word	0x40021000
 8000720:	200055ac 	.word	0x200055ac
 8000724:	20005b00 	.word	0x20005b00
 8000728:	2000617c 	.word	0x2000617c
 800072c:	40020400 	.word	0x40020400
 8000730:	2000587c 	.word	0x2000587c
 8000734:	20005668 	.word	0x20005668
 8000738:	20004fe4 	.word	0x20004fe4
 800073c:	40020c00 	.word	0x40020c00
 8000740:	200057b8 	.word	0x200057b8
 8000744:	200058d0 	.word	0x200058d0
 8000748:	20004940 	.word	0x20004940
 800074c:	20005724 	.word	0x20005724
 8000750:	2000503c 	.word	0x2000503c
 8000754:	2000557c 	.word	0x2000557c
 8000758:	20005888 	.word	0x20005888
 800075c:	2000495c 	.word	0x2000495c
 8000760:	20005804 	.word	0x20005804
 8000764:	20006188 	.word	0x20006188
 8000768:	20005b18 	.word	0x20005b18
 800076c:	20004968 	.word	0x20004968
 8000770:	20004fd8 	.word	0x20004fd8
 8000774:	2000579c 	.word	0x2000579c
 8000778:	20005870 	.word	0x20005870
 800077c:	200058b8 	.word	0x200058b8
 8000780:	200055a0 	.word	0x200055a0
 8000784:	200054b0 	.word	0x200054b0
 8000788:	20004974 	.word	0x20004974
 800078c:	20005b84 	.word	0x20005b84
 8000790:	20004950 	.word	0x20004950
 8000794:	20005594 	.word	0x20005594
 8000798:	200058ac 	.word	0x200058ac
 800079c:	200057ac 	.word	0x200057ac
 80007a0:	20004ff0 	.word	0x20004ff0
 80007a4:	20006140 	.word	0x20006140
 80007a8:	20005894 	.word	0x20005894
 80007ac:	20005b0c 	.word	0x20005b0c
 80007b0:	20005588 	.word	0x20005588
 80007b4:	20006158 	.word	0x20006158
 80007b8:	200058dc 	.word	0x200058dc
 80007bc:	20005df0 	.word	0x20005df0
 80007c0:	200058a0 	.word	0x200058a0
 80007c4:	200058f4 	.word	0x200058f4

    SDB_SER_DSR.PORT__BASE = GPIOD ;
 80007c8:	4b14      	ldr	r3, [pc, #80]	; (800081c <FEES_Init+0x34c>)
 80007ca:	4a15      	ldr	r2, [pc, #84]	; (8000820 <FEES_Init+0x350>)
 80007cc:	601a      	str	r2, [r3, #0]
    SDB_SER_DSR.pin_number = 1;
 80007ce:	4b13      	ldr	r3, [pc, #76]	; (800081c <FEES_Init+0x34c>)
 80007d0:	2201      	movs	r2, #1
 80007d2:	605a      	str	r2, [r3, #4]

    SDB_SER_DTR.PORT__BASE = GPIOD ;
 80007d4:	4b13      	ldr	r3, [pc, #76]	; (8000824 <FEES_Init+0x354>)
 80007d6:	4a12      	ldr	r2, [pc, #72]	; (8000820 <FEES_Init+0x350>)
 80007d8:	601a      	str	r2, [r3, #0]
    SDB_SER_DTR.pin_number = 2 ;
 80007da:	4b12      	ldr	r3, [pc, #72]	; (8000824 <FEES_Init+0x354>)
 80007dc:	2202      	movs	r2, #2
 80007de:	605a      	str	r2, [r3, #4]

    USB_VBUS.PORT__BASE = GPIOA ;
 80007e0:	4b11      	ldr	r3, [pc, #68]	; (8000828 <FEES_Init+0x358>)
 80007e2:	4a12      	ldr	r2, [pc, #72]	; (800082c <FEES_Init+0x35c>)
 80007e4:	601a      	str	r2, [r3, #0]
    USB_VBUS.pin_number = 9 ;
 80007e6:	4b10      	ldr	r3, [pc, #64]	; (8000828 <FEES_Init+0x358>)
 80007e8:	2209      	movs	r2, #9
 80007ea:	605a      	str	r2, [r3, #4]
  		// Other
    PGOOD.PORT__BASE = GPIOA ;
 80007ec:	4b10      	ldr	r3, [pc, #64]	; (8000830 <FEES_Init+0x360>)
 80007ee:	4a0f      	ldr	r2, [pc, #60]	; (800082c <FEES_Init+0x35c>)
 80007f0:	601a      	str	r2, [r3, #0]
    PGOOD.pin_number = 8 ;
 80007f2:	4b0f      	ldr	r3, [pc, #60]	; (8000830 <FEES_Init+0x360>)
 80007f4:	2208      	movs	r2, #8
 80007f6:	605a      	str	r2, [r3, #4]

    JTAG_TMS.PORT__BASE = GPIOA ;
 80007f8:	4b0e      	ldr	r3, [pc, #56]	; (8000834 <FEES_Init+0x364>)
 80007fa:	4a0c      	ldr	r2, [pc, #48]	; (800082c <FEES_Init+0x35c>)
 80007fc:	601a      	str	r2, [r3, #0]
    JTAG_TMS.pin_number = 13 ;
 80007fe:	4b0d      	ldr	r3, [pc, #52]	; (8000834 <FEES_Init+0x364>)
 8000800:	220d      	movs	r2, #13
 8000802:	605a      	str	r2, [r3, #4]

    JTAG_TCK.PORT__BASE = GPIOA ;
 8000804:	4b0c      	ldr	r3, [pc, #48]	; (8000838 <FEES_Init+0x368>)
 8000806:	4a09      	ldr	r2, [pc, #36]	; (800082c <FEES_Init+0x35c>)
 8000808:	601a      	str	r2, [r3, #0]
    JTAG_TCK.pin_number = 14 ;
 800080a:	4b0b      	ldr	r3, [pc, #44]	; (8000838 <FEES_Init+0x368>)
 800080c:	220e      	movs	r2, #14
 800080e:	605a      	str	r2, [r3, #4]

}
 8000810:	bf00      	nop
 8000812:	46bd      	mov	sp, r7
 8000814:	f85d 7b04 	ldr.w	r7, [sp], #4
 8000818:	4770      	bx	lr
 800081a:	bf00      	nop
 800081c:	200058c4 	.word	0x200058c4
 8000820:	40020c00 	.word	0x40020c00
 8000824:	20006170 	.word	0x20006170
 8000828:	20005b90 	.word	0x20005b90
 800082c:	40020000 	.word	0x40020000
 8000830:	20006164 	.word	0x20006164
 8000834:	20005d9c 	.word	0x20005d9c
 8000838:	20005790 	.word	0x20005790

0800083c <FEES_Pin_ON>:

// FEES_Pin ON/OFF/Toggle are functions made for controlling GPIOS by PortLetter and Number
// You can also use the GPIOS by using the standard ST - HAL functions, for example:
// FEES_Pin_ON('A',0); // LED=PORTA0  // HAL_GPIO_WritePin(LEDX_GPIO_Port, LEDX_Pin , 1);

void FEES_Pin_ON( GPIO_TypeDef * PORT__BASE  ,  int pin_number){
 800083c:	b580      	push	{r7, lr}
 800083e:	b082      	sub	sp, #8
 8000840:	af00      	add	r7, sp, #0
 8000842:	6078      	str	r0, [r7, #4]
 8000844:	6039      	str	r1, [r7, #0]

#ifdef STM32HAL
	HAL_GPIO_WritePin(PORT__BASE, pin_number, 1);
 8000846:	683b      	ldr	r3, [r7, #0]
 8000848:	b29b      	uxth	r3, r3
 800084a:	2201      	movs	r2, #1
 800084c:	4619      	mov	r1, r3
 800084e:	6878      	ldr	r0, [r7, #4]
 8000850:	f002 f8dc 	bl	8002a0c <HAL_GPIO_WritePin>
#endif
}
 8000854:	bf00      	nop
 8000856:	3708      	adds	r7, #8
 8000858:	46bd      	mov	sp, r7
 800085a:	bd80      	pop	{r7, pc}

0800085c <FEES_Pin_OFF>:

void FEES_Pin_OFF( GPIO_TypeDef * PORT__BASE  ,  int pin_number){
 800085c:	b580      	push	{r7, lr}
 800085e:	b082      	sub	sp, #8
 8000860:	af00      	add	r7, sp, #0
 8000862:	6078      	str	r0, [r7, #4]
 8000864:	6039      	str	r1, [r7, #0]

#ifdef STM32HAL
	HAL_GPIO_WritePin(PORT__BASE, pin_number, 0);
 8000866:	683b      	ldr	r3, [r7, #0]
 8000868:	b29b      	uxth	r3, r3
 800086a:	2200      	movs	r2, #0
 800086c:	4619      	mov	r1, r3
 800086e:	6878      	ldr	r0, [r7, #4]
 8000870:	f002 f8cc 	bl	8002a0c <HAL_GPIO_WritePin>
#endif
}
 8000874:	bf00      	nop
 8000876:	3708      	adds	r7, #8
 8000878:	46bd      	mov	sp, r7
 800087a:	bd80      	pop	{r7, pc}

0800087c <FEES_Pin_Toggle>:

void FEES_Pin_Toggle(char port , int pin, int delay){
 800087c:	b580      	push	{r7, lr}
 800087e:	b086      	sub	sp, #24
 8000880:	af00      	add	r7, sp, #0
 8000882:	4603      	mov	r3, r0
 8000884:	60b9      	str	r1, [r7, #8]
 8000886:	607a      	str	r2, [r7, #4]
 8000888:	73fb      	strb	r3, [r7, #15]
	GPIO_TypeDef * PORT__BASE;
	uint16_t pin_number=0;
 800088a:	2300      	movs	r3, #0
 800088c:	827b      	strh	r3, [r7, #18]

	switch (port){
 800088e:	7bfb      	ldrb	r3, [r7, #15]
 8000890:	3b61      	subs	r3, #97	; 0x61
 8000892:	2b04      	cmp	r3, #4
 8000894:	d81b      	bhi.n	80008ce <FEES_Pin_Toggle+0x52>
 8000896:	a201      	add	r2, pc, #4	; (adr r2, 800089c <FEES_Pin_Toggle+0x20>)
 8000898:	f852 f023 	ldr.w	pc, [r2, r3, lsl #2]
 800089c:	080008b1 	.word	0x080008b1
 80008a0:	080008b7 	.word	0x080008b7
 80008a4:	080008bd 	.word	0x080008bd
 80008a8:	080008c3 	.word	0x080008c3
 80008ac:	080008c9 	.word	0x080008c9
		case 'a': PORT__BASE = GPIOA;
 80008b0:	4b14      	ldr	r3, [pc, #80]	; (8000904 <FEES_Pin_Toggle+0x88>)
 80008b2:	617b      	str	r3, [r7, #20]
		break;
 80008b4:	e00e      	b.n	80008d4 <FEES_Pin_Toggle+0x58>
		case 'b': PORT__BASE = GPIOB;
 80008b6:	4b14      	ldr	r3, [pc, #80]	; (8000908 <FEES_Pin_Toggle+0x8c>)
 80008b8:	617b      	str	r3, [r7, #20]
		break;
 80008ba:	e00b      	b.n	80008d4 <FEES_Pin_Toggle+0x58>
		case 'c': PORT__BASE = GPIOC;
 80008bc:	4b13      	ldr	r3, [pc, #76]	; (800090c <FEES_Pin_Toggle+0x90>)
 80008be:	617b      	str	r3, [r7, #20]
		break;
 80008c0:	e008      	b.n	80008d4 <FEES_Pin_Toggle+0x58>
		case 'd': PORT__BASE = GPIOD;
 80008c2:	4b13      	ldr	r3, [pc, #76]	; (8000910 <FEES_Pin_Toggle+0x94>)
 80008c4:	617b      	str	r3, [r7, #20]
		break;
 80008c6:	e005      	b.n	80008d4 <FEES_Pin_Toggle+0x58>
		case 'e': PORT__BASE = GPIOE;
 80008c8:	4b12      	ldr	r3, [pc, #72]	; (8000914 <FEES_Pin_Toggle+0x98>)
 80008ca:	617b      	str	r3, [r7, #20]
		break;
 80008cc:	e002      	b.n	80008d4 <FEES_Pin_Toggle+0x58>
		default: PORT__BASE = GPIOA;
 80008ce:	4b0d      	ldr	r3, [pc, #52]	; (8000904 <FEES_Pin_Toggle+0x88>)
 80008d0:	617b      	str	r3, [r7, #20]
		break;
 80008d2:	bf00      	nop
		}


	pin_number = 1<<pin;
 80008d4:	2201      	movs	r2, #1
 80008d6:	68bb      	ldr	r3, [r7, #8]
 80008d8:	fa02 f303 	lsl.w	r3, r2, r3
 80008dc:	827b      	strh	r3, [r7, #18]
		case 15: pin_number = 0x8000;
		break;
		}
	*/

	FEES_Pin_ON(PORT__BASE, pin_number);
 80008de:	8a7b      	ldrh	r3, [r7, #18]
 80008e0:	4619      	mov	r1, r3
 80008e2:	6978      	ldr	r0, [r7, #20]
 80008e4:	f7ff ffaa 	bl	800083c <FEES_Pin_ON>
	osDelay(delay);
 80008e8:	687b      	ldr	r3, [r7, #4]
 80008ea:	4618      	mov	r0, r3
 80008ec:	f005 ff48 	bl	8006780 <osDelay>
	FEES_Pin_OFF(PORT__BASE, pin_number);
 80008f0:	8a7b      	ldrh	r3, [r7, #18]
 80008f2:	4619      	mov	r1, r3
 80008f4:	6978      	ldr	r0, [r7, #20]
 80008f6:	f7ff ffb1 	bl	800085c <FEES_Pin_OFF>
    //osDelay(20);
}
 80008fa:	bf00      	nop
 80008fc:	3718      	adds	r7, #24
 80008fe:	46bd      	mov	sp, r7
 8000900:	bd80      	pop	{r7, pc}
 8000902:	bf00      	nop
 8000904:	40020000 	.word	0x40020000
 8000908:	40020400 	.word	0x40020400
 800090c:	40020800 	.word	0x40020800
 8000910:	40020c00 	.word	0x40020c00
 8000914:	40021000 	.word	0x40021000

08000918 <FEES_TestPins>:

void FEES_TestPins(int delay){
 8000918:	b580      	push	{r7, lr}
 800091a:	b082      	sub	sp, #8
 800091c:	af00      	add	r7, sp, #0
 800091e:	6078      	str	r0, [r7, #4]
	   	  // PWM_ CONTROL
    FEES_Pin_Toggle('c',8,delay);  // PWM_HEATER - BATTERY
 8000920:	687a      	ldr	r2, [r7, #4]
 8000922:	2108      	movs	r1, #8
 8000924:	2063      	movs	r0, #99	; 0x63
 8000926:	f7ff ffa9 	bl	800087c <FEES_Pin_Toggle>

    FEES_Pin_Toggle('a',0,delay);  // PWM_X_COIL
 800092a:	687a      	ldr	r2, [r7, #4]
 800092c:	2100      	movs	r1, #0
 800092e:	2061      	movs	r0, #97	; 0x61
 8000930:	f7ff ffa4 	bl	800087c <FEES_Pin_Toggle>
    FEES_Pin_Toggle('a',1,delay);  // PWM_Y_COIL
 8000934:	687a      	ldr	r2, [r7, #4]
 8000936:	2101      	movs	r1, #1
 8000938:	2061      	movs	r0, #97	; 0x61
 800093a:	f7ff ff9f 	bl	800087c <FEES_Pin_Toggle>
    FEES_Pin_Toggle('a',2,delay);  // PWM_Z_COIL
 800093e:	687a      	ldr	r2, [r7, #4]
 8000940:	2102      	movs	r1, #2
 8000942:	2061      	movs	r0, #97	; 0x61
 8000944:	f7ff ff9a 	bl	800087c <FEES_Pin_Toggle>

         // GPIO DI DIREZIONE
    FEES_Pin_Toggle('e',7,delay);	// Dir_X
 8000948:	687a      	ldr	r2, [r7, #4]
 800094a:	2107      	movs	r1, #7
 800094c:	2065      	movs	r0, #101	; 0x65
 800094e:	f7ff ff95 	bl	800087c <FEES_Pin_Toggle>
    FEES_Pin_Toggle('e',8,delay);	// Dir_Y
 8000952:	687a      	ldr	r2, [r7, #4]
 8000954:	2108      	movs	r1, #8
 8000956:	2065      	movs	r0, #101	; 0x65
 8000958:	f7ff ff90 	bl	800087c <FEES_Pin_Toggle>
    FEES_Pin_Toggle('e',9,delay);	// Dir_Z
 800095c:	687a      	ldr	r2, [r7, #4]
 800095e:	2109      	movs	r1, #9
 8000960:	2065      	movs	r0, #101	; 0x65
 8000962:	f7ff ff8b 	bl	800087c <FEES_Pin_Toggle>

    	//GPIO DI CONTROLLO
    //FEES_Pin_Toggle('b',5,delay);	// WATCHDOG

    FEES_Pin_Toggle('c',13,delay); 	// UHF_RESET
 8000966:	687a      	ldr	r2, [r7, #4]
 8000968:	210d      	movs	r1, #13
 800096a:	2063      	movs	r0, #99	; 0x63
 800096c:	f7ff ff86 	bl	800087c <FEES_Pin_Toggle>

    // FEES_Pin_Toggle('c',15,delay); 	//RAD RESET

    FEES_Pin_Toggle('d',12,delay); 	// TMTC_WD
 8000970:	687a      	ldr	r2, [r7, #4]
 8000972:	210c      	movs	r1, #12
 8000974:	2064      	movs	r0, #100	; 0x64
 8000976:	f7ff ff81 	bl	800087c <FEES_Pin_Toggle>
    FEES_Pin_Toggle('e',0,delay);	// ANA_PWR_ON
 800097a:	687a      	ldr	r2, [r7, #4]
 800097c:	2100      	movs	r1, #0
 800097e:	2065      	movs	r0, #101	; 0x65
 8000980:	f7ff ff7c 	bl	800087c <FEES_Pin_Toggle>
    FEES_Pin_Toggle('e',1,delay);	// RAD_PWR_ON
 8000984:	687a      	ldr	r2, [r7, #4]
 8000986:	2101      	movs	r1, #1
 8000988:	2065      	movs	r0, #101	; 0x65
 800098a:	f7ff ff77 	bl	800087c <FEES_Pin_Toggle>
    FEES_Pin_Toggle('e',3,delay);	// SBD_PWR_ON
 800098e:	687a      	ldr	r2, [r7, #4]
 8000990:	2103      	movs	r1, #3
 8000992:	2065      	movs	r0, #101	; 0x65
 8000994:	f7ff ff72 	bl	800087c <FEES_Pin_Toggle>
    FEES_Pin_Toggle('e',2,delay);	// GPS_PWR_ON
 8000998:	687a      	ldr	r2, [r7, #4]
 800099a:	2102      	movs	r1, #2
 800099c:	2065      	movs	r0, #101	; 0x65
 800099e:	f7ff ff6d 	bl	800087c <FEES_Pin_Toggle>
    FEES_Pin_Toggle('e',6,delay);	// RSBY_PWR_ON
 80009a2:	687a      	ldr	r2, [r7, #4]
 80009a4:	2106      	movs	r1, #6
 80009a6:	2065      	movs	r0, #101	; 0x65
 80009a8:	f7ff ff68 	bl	800087c <FEES_Pin_Toggle>
    FEES_Pin_Toggle('b',0,delay);	// RSBY_KEEP_EN
 80009ac:	687a      	ldr	r2, [r7, #4]
 80009ae:	2100      	movs	r1, #0
 80009b0:	2062      	movs	r0, #98	; 0x62
 80009b2:	f7ff ff63 	bl	800087c <FEES_Pin_Toggle>


         //CS_SPI_SENSORI
    FEES_Pin_Toggle('e',4,delay);  	// CS_NAND
 80009b6:	687a      	ldr	r2, [r7, #4]
 80009b8:	2104      	movs	r1, #4
 80009ba:	2065      	movs	r0, #101	; 0x65
 80009bc:	f7ff ff5e 	bl	800087c <FEES_Pin_Toggle>
    FEES_Pin_Toggle('e',5,delay);  	// CS_LORA
 80009c0:	687a      	ldr	r2, [r7, #4]
 80009c2:	2105      	movs	r1, #5
 80009c4:	2065      	movs	r0, #101	; 0x65
 80009c6:	f7ff ff59 	bl	800087c <FEES_Pin_Toggle>
    FEES_Pin_Toggle('a',4,delay);	// CS_RADFET
 80009ca:	687a      	ldr	r2, [r7, #4]
 80009cc:	2104      	movs	r1, #4
 80009ce:	2061      	movs	r0, #97	; 0x61
 80009d0:	f7ff ff54 	bl	800087c <FEES_Pin_Toggle>
    FEES_Pin_Toggle('e',11,delay);	// EN_ADC1
 80009d4:	687a      	ldr	r2, [r7, #4]
 80009d6:	210b      	movs	r1, #11
 80009d8:	2065      	movs	r0, #101	; 0x65
 80009da:	f7ff ff4f 	bl	800087c <FEES_Pin_Toggle>
    FEES_Pin_Toggle('e',13,delay);	// EN_ADC2
 80009de:	687a      	ldr	r2, [r7, #4]
 80009e0:	210d      	movs	r1, #13
 80009e2:	2065      	movs	r0, #101	; 0x65
 80009e4:	f7ff ff4a 	bl	800087c <FEES_Pin_Toggle>
    FEES_Pin_Toggle('e',12,delay);	// EN_ADC3
 80009e8:	687a      	ldr	r2, [r7, #4]
 80009ea:	210c      	movs	r1, #12
 80009ec:	2065      	movs	r0, #101	; 0x65
 80009ee:	f7ff ff45 	bl	800087c <FEES_Pin_Toggle>
    FEES_Pin_Toggle('c',9,delay);  	// EXT_SPI_EN
 80009f2:	687a      	ldr	r2, [r7, #4]
 80009f4:	2109      	movs	r1, #9
 80009f6:	2063      	movs	r0, #99	; 0x63
 80009f8:	f7ff ff40 	bl	800087c <FEES_Pin_Toggle>
    FEES_Pin_Toggle('d',10,delay);	// CS_EEPROM
 80009fc:	687a      	ldr	r2, [r7, #4]
 80009fe:	210a      	movs	r1, #10
 8000a00:	2064      	movs	r0, #100	; 0x64
 8000a02:	f7ff ff3b 	bl	800087c <FEES_Pin_Toggle>
    FEES_Pin_Toggle('d',11,delay);	// CS_FRAM
 8000a06:	687a      	ldr	r2, [r7, #4]
 8000a08:	210b      	movs	r1, #11
 8000a0a:	2064      	movs	r0, #100	; 0x64
 8000a0c:	f7ff ff36 	bl	800087c <FEES_Pin_Toggle>
    FEES_Pin_Toggle('c',4,delay);  	// CS_PSD1_AMP
 8000a10:	687a      	ldr	r2, [r7, #4]
 8000a12:	2104      	movs	r1, #4
 8000a14:	2063      	movs	r0, #99	; 0x63
 8000a16:	f7ff ff31 	bl	800087c <FEES_Pin_Toggle>
    FEES_Pin_Toggle('c',5,delay);   // CS_PSD2_AMP
 8000a1a:	687a      	ldr	r2, [r7, #4]
 8000a1c:	2105      	movs	r1, #5
 8000a1e:	2063      	movs	r0, #99	; 0x63
 8000a20:	f7ff ff2c 	bl	800087c <FEES_Pin_Toggle>
    FEES_Pin_Toggle('e',10,delay);  // CS_GYRO
 8000a24:	687a      	ldr	r2, [r7, #4]
 8000a26:	210a      	movs	r1, #10
 8000a28:	2065      	movs	r0, #101	; 0x65
 8000a2a:	f7ff ff27 	bl	800087c <FEES_Pin_Toggle>
    FEES_Pin_Toggle('d',14,delay);  // CS_GYRO2
 8000a2e:	687a      	ldr	r2, [r7, #4]
 8000a30:	210e      	movs	r1, #14
 8000a32:	2064      	movs	r0, #100	; 0x64
 8000a34:	f7ff ff22 	bl	800087c <FEES_Pin_Toggle>

    // GPIO EXTRA
	 FEES_Pin_Toggle('b',1,delay);	// EX_GPIO1
 8000a38:	687a      	ldr	r2, [r7, #4]
 8000a3a:	2101      	movs	r1, #1
 8000a3c:	2062      	movs	r0, #98	; 0x62
 8000a3e:	f7ff ff1d 	bl	800087c <FEES_Pin_Toggle>
	 FEES_Pin_Toggle('b',12,delay);	// EX_GPIO2
 8000a42:	687a      	ldr	r2, [r7, #4]
 8000a44:	210c      	movs	r1, #12
 8000a46:	2062      	movs	r0, #98	; 0x62
 8000a48:	f7ff ff18 	bl	800087c <FEES_Pin_Toggle>
	 FEES_Pin_Toggle('a',3,delay);	// EX_GPIO3
 8000a4c:	687a      	ldr	r2, [r7, #4]
 8000a4e:	2103      	movs	r1, #3
 8000a50:	2061      	movs	r0, #97	; 0x61
 8000a52:	f7ff ff13 	bl	800087c <FEES_Pin_Toggle>
	 FEES_Pin_Toggle('a',10,delay);	// EX_GPIO4
 8000a56:	687a      	ldr	r2, [r7, #4]
 8000a58:	210a      	movs	r1, #10
 8000a5a:	2061      	movs	r0, #97	; 0x61
 8000a5c:	f7ff ff0e 	bl	800087c <FEES_Pin_Toggle>

     // Other Signals

	 if(1){
	 FEES_Pin_Toggle('c',1,delay); 	 // P1_S0
 8000a60:	687a      	ldr	r2, [r7, #4]
 8000a62:	2101      	movs	r1, #1
 8000a64:	2063      	movs	r0, #99	; 0x63
 8000a66:	f7ff ff09 	bl	800087c <FEES_Pin_Toggle>
	 FEES_Pin_Toggle('c',0,delay); 	 // P1_S1
 8000a6a:	687a      	ldr	r2, [r7, #4]
 8000a6c:	2100      	movs	r1, #0
 8000a6e:	2063      	movs	r0, #99	; 0x63
 8000a70:	f7ff ff04 	bl	800087c <FEES_Pin_Toggle>
	 FEES_Pin_Toggle('c',3,delay); 	 // P2_S0
 8000a74:	687a      	ldr	r2, [r7, #4]
 8000a76:	2103      	movs	r1, #3
 8000a78:	2063      	movs	r0, #99	; 0x63
 8000a7a:	f7ff feff 	bl	800087c <FEES_Pin_Toggle>
	 FEES_Pin_Toggle('c',2,delay); 	 // P2_S1
 8000a7e:	687a      	ldr	r2, [r7, #4]
 8000a80:	2102      	movs	r1, #2
 8000a82:	2063      	movs	r0, #99	; 0x63
 8000a84:	f7ff fefa 	bl	800087c <FEES_Pin_Toggle>
	 }


	 FEES_Pin_Toggle('c',2,delay); 	 // P2_S1
 8000a88:	687a      	ldr	r2, [r7, #4]
 8000a8a:	2102      	movs	r1, #2
 8000a8c:	2063      	movs	r0, #99	; 0x63
 8000a8e:	f7ff fef5 	bl	800087c <FEES_Pin_Toggle>
	 // PIN SBAGLIATI

	 FEES_Pin_Toggle('d',7,delay); 	// sdb on off
 8000a92:	687a      	ldr	r2, [r7, #4]
 8000a94:	2107      	movs	r1, #7
 8000a96:	2064      	movs	r0, #100	; 0x64
 8000a98:	f7ff fef0 	bl	800087c <FEES_Pin_Toggle>
	 FEES_Pin_Toggle('d',13,delay);  // Int_Gyro
 8000a9c:	687a      	ldr	r2, [r7, #4]
 8000a9e:	210d      	movs	r1, #13
 8000aa0:	2064      	movs	r0, #100	; 0x64
 8000aa2:	f7ff feeb 	bl	800087c <FEES_Pin_Toggle>

	 FEES_Pin_Toggle('c',15,delay);  // RAD_RESET
 8000aa6:	687a      	ldr	r2, [r7, #4]
 8000aa8:	210f      	movs	r1, #15
 8000aaa:	2063      	movs	r0, #99	; 0x63
 8000aac:	f7ff fee6 	bl	800087c <FEES_Pin_Toggle>
	 FEES_Pin_Toggle('c',14,delay);  // RADFET_OWB
 8000ab0:	687a      	ldr	r2, [r7, #4]
 8000ab2:	210e      	movs	r1, #14
 8000ab4:	2063      	movs	r0, #99	; 0x63
 8000ab6:	f7ff fee1 	bl	800087c <FEES_Pin_Toggle>
	 FEES_Pin_Toggle('d',15,delay);  // Int_Gyro2
 8000aba:	687a      	ldr	r2, [r7, #4]
 8000abc:	210f      	movs	r1, #15
 8000abe:	2064      	movs	r0, #100	; 0x64
 8000ac0:	f7ff fedc 	bl	800087c <FEES_Pin_Toggle>

	 FEES_Pin_Toggle('e',14,delay); // sbd ser ri
 8000ac4:	687a      	ldr	r2, [r7, #4]
 8000ac6:	210e      	movs	r1, #14
 8000ac8:	2065      	movs	r0, #101	; 0x65
 8000aca:	f7ff fed7 	bl	800087c <FEES_Pin_Toggle>
	 FEES_Pin_Toggle('e',15,delay); // sdb ser net
 8000ace:	687a      	ldr	r2, [r7, #4]
 8000ad0:	210f      	movs	r1, #15
 8000ad2:	2065      	movs	r0, #101	; 0x65
 8000ad4:	f7ff fed2 	bl	800087c <FEES_Pin_Toggle>
	 FEES_Pin_Toggle('d',0,delay); 	// sdb ser dcd
 8000ad8:	687a      	ldr	r2, [r7, #4]
 8000ada:	2100      	movs	r1, #0
 8000adc:	2064      	movs	r0, #100	; 0x64
 8000ade:	f7ff fecd 	bl	800087c <FEES_Pin_Toggle>

	 FEES_Pin_Toggle('d',1,delay); 	// sdb ser dsr
 8000ae2:	687a      	ldr	r2, [r7, #4]
 8000ae4:	2101      	movs	r1, #1
 8000ae6:	2064      	movs	r0, #100	; 0x64
 8000ae8:	f7ff fec8 	bl	800087c <FEES_Pin_Toggle>
	 FEES_Pin_Toggle('d',2,delay); 	// sdb ser dtr
 8000aec:	687a      	ldr	r2, [r7, #4]
 8000aee:	2102      	movs	r1, #2
 8000af0:	2064      	movs	r0, #100	; 0x64
 8000af2:	f7ff fec3 	bl	800087c <FEES_Pin_Toggle>

//	 FEES_Pin_Toggle('a',9,delay); 	// usb_vbussdb ser dcd
//	 FEES_Pin_Toggle('a',13,delay); // JTAG  tms
//	 FEES_Pin_Toggle('a',14,delay); // JTAG  tck

	 FEES_Pin_Toggle('a',8,delay);  // PGOOD
 8000af6:	687a      	ldr	r2, [r7, #4]
 8000af8:	2108      	movs	r1, #8
 8000afa:	2061      	movs	r0, #97	; 0x61
 8000afc:	f7ff febe 	bl	800087c <FEES_Pin_Toggle>
}
 8000b00:	bf00      	nop
 8000b02:	3708      	adds	r7, #8
 8000b04:	46bd      	mov	sp, r7
 8000b06:	bd80      	pop	{r7, pc}

08000b08 <FEES_Startup_PWM_BATTERY>:
		  HAL_TIM_PWM_Stop(&htim3, TIM_CHANNEL_3);
		  osDelay(1000);*/
	}
}

void FEES_Startup_PWM_BATTERY(){
 8000b08:	b580      	push	{r7, lr}
 8000b0a:	b08a      	sub	sp, #40	; 0x28
 8000b0c:	af00      	add	r7, sp, #0
	  int i=1;
 8000b0e:	2301      	movs	r3, #1
 8000b10:	627b      	str	r3, [r7, #36]	; 0x24
	  while(i<11){
 8000b12:	e08c      	b.n	8000c2e <FEES_Startup_PWM_BATTERY+0x126>
		  TIM_MasterConfigTypeDef sMasterConfig = {0};
 8000b14:	f107 031c 	add.w	r3, r7, #28
 8000b18:	2200      	movs	r2, #0
 8000b1a:	601a      	str	r2, [r3, #0]
 8000b1c:	605a      	str	r2, [r3, #4]
		  TIM_OC_InitTypeDef sConfigOC = {0};
 8000b1e:	463b      	mov	r3, r7
 8000b20:	2200      	movs	r2, #0
 8000b22:	601a      	str	r2, [r3, #0]
 8000b24:	605a      	str	r2, [r3, #4]
 8000b26:	609a      	str	r2, [r3, #8]
 8000b28:	60da      	str	r2, [r3, #12]
 8000b2a:	611a      	str	r2, [r3, #16]
 8000b2c:	615a      	str	r2, [r3, #20]
 8000b2e:	619a      	str	r2, [r3, #24]
		  htim3.Instance = TIM3;
 8000b30:	4b45      	ldr	r3, [pc, #276]	; (8000c48 <FEES_Startup_PWM_BATTERY+0x140>)
 8000b32:	4a46      	ldr	r2, [pc, #280]	; (8000c4c <FEES_Startup_PWM_BATTERY+0x144>)
 8000b34:	601a      	str	r2, [r3, #0]
		  if(i==1){htim3.Init.Prescaler  = 160-1;}
 8000b36:	6a7b      	ldr	r3, [r7, #36]	; 0x24
 8000b38:	2b01      	cmp	r3, #1
 8000b3a:	d102      	bne.n	8000b42 <FEES_Startup_PWM_BATTERY+0x3a>
 8000b3c:	4b42      	ldr	r3, [pc, #264]	; (8000c48 <FEES_Startup_PWM_BATTERY+0x140>)
 8000b3e:	229f      	movs	r2, #159	; 0x9f
 8000b40:	605a      	str	r2, [r3, #4]
		  if(i==2){htim3.Init.Prescaler  = 150-1;}
 8000b42:	6a7b      	ldr	r3, [r7, #36]	; 0x24
 8000b44:	2b02      	cmp	r3, #2
 8000b46:	d102      	bne.n	8000b4e <FEES_Startup_PWM_BATTERY+0x46>
 8000b48:	4b3f      	ldr	r3, [pc, #252]	; (8000c48 <FEES_Startup_PWM_BATTERY+0x140>)
 8000b4a:	2295      	movs	r2, #149	; 0x95
 8000b4c:	605a      	str	r2, [r3, #4]
		  if(i==3){htim3.Init.Prescaler  = 140-1;}
 8000b4e:	6a7b      	ldr	r3, [r7, #36]	; 0x24
 8000b50:	2b03      	cmp	r3, #3
 8000b52:	d102      	bne.n	8000b5a <FEES_Startup_PWM_BATTERY+0x52>
 8000b54:	4b3c      	ldr	r3, [pc, #240]	; (8000c48 <FEES_Startup_PWM_BATTERY+0x140>)
 8000b56:	228b      	movs	r2, #139	; 0x8b
 8000b58:	605a      	str	r2, [r3, #4]
		  if(i==4){htim3.Init.Prescaler  = 130-1;}
 8000b5a:	6a7b      	ldr	r3, [r7, #36]	; 0x24
 8000b5c:	2b04      	cmp	r3, #4
 8000b5e:	d102      	bne.n	8000b66 <FEES_Startup_PWM_BATTERY+0x5e>
 8000b60:	4b39      	ldr	r3, [pc, #228]	; (8000c48 <FEES_Startup_PWM_BATTERY+0x140>)
 8000b62:	2281      	movs	r2, #129	; 0x81
 8000b64:	605a      	str	r2, [r3, #4]
		  if(i==5){htim3.Init.Prescaler  = 120-1;}
 8000b66:	6a7b      	ldr	r3, [r7, #36]	; 0x24
 8000b68:	2b05      	cmp	r3, #5
 8000b6a:	d102      	bne.n	8000b72 <FEES_Startup_PWM_BATTERY+0x6a>
 8000b6c:	4b36      	ldr	r3, [pc, #216]	; (8000c48 <FEES_Startup_PWM_BATTERY+0x140>)
 8000b6e:	2277      	movs	r2, #119	; 0x77
 8000b70:	605a      	str	r2, [r3, #4]
		  if(i==6){htim3.Init.Prescaler  = 110-1;}
 8000b72:	6a7b      	ldr	r3, [r7, #36]	; 0x24
 8000b74:	2b06      	cmp	r3, #6
 8000b76:	d102      	bne.n	8000b7e <FEES_Startup_PWM_BATTERY+0x76>
 8000b78:	4b33      	ldr	r3, [pc, #204]	; (8000c48 <FEES_Startup_PWM_BATTERY+0x140>)
 8000b7a:	226d      	movs	r2, #109	; 0x6d
 8000b7c:	605a      	str	r2, [r3, #4]
		  if(i==7){htim3.Init.Prescaler  = 100-1;}
 8000b7e:	6a7b      	ldr	r3, [r7, #36]	; 0x24
 8000b80:	2b07      	cmp	r3, #7
 8000b82:	d102      	bne.n	8000b8a <FEES_Startup_PWM_BATTERY+0x82>
 8000b84:	4b30      	ldr	r3, [pc, #192]	; (8000c48 <FEES_Startup_PWM_BATTERY+0x140>)
 8000b86:	2263      	movs	r2, #99	; 0x63
 8000b88:	605a      	str	r2, [r3, #4]
		  if(i==8){htim3.Init.Prescaler  = 90-1;}
 8000b8a:	6a7b      	ldr	r3, [r7, #36]	; 0x24
 8000b8c:	2b08      	cmp	r3, #8
 8000b8e:	d102      	bne.n	8000b96 <FEES_Startup_PWM_BATTERY+0x8e>
 8000b90:	4b2d      	ldr	r3, [pc, #180]	; (8000c48 <FEES_Startup_PWM_BATTERY+0x140>)
 8000b92:	2259      	movs	r2, #89	; 0x59
 8000b94:	605a      	str	r2, [r3, #4]
		  if(i==9){htim3.Init.Prescaler  = 80-1;}
 8000b96:	6a7b      	ldr	r3, [r7, #36]	; 0x24
 8000b98:	2b09      	cmp	r3, #9
 8000b9a:	d102      	bne.n	8000ba2 <FEES_Startup_PWM_BATTERY+0x9a>
 8000b9c:	4b2a      	ldr	r3, [pc, #168]	; (8000c48 <FEES_Startup_PWM_BATTERY+0x140>)
 8000b9e:	224f      	movs	r2, #79	; 0x4f
 8000ba0:	605a      	str	r2, [r3, #4]
		  if(i==10){htim3.Init.Prescaler = 70-1;}
 8000ba2:	6a7b      	ldr	r3, [r7, #36]	; 0x24
 8000ba4:	2b0a      	cmp	r3, #10
 8000ba6:	d102      	bne.n	8000bae <FEES_Startup_PWM_BATTERY+0xa6>
 8000ba8:	4b27      	ldr	r3, [pc, #156]	; (8000c48 <FEES_Startup_PWM_BATTERY+0x140>)
 8000baa:	2245      	movs	r2, #69	; 0x45
 8000bac:	605a      	str	r2, [r3, #4]

		  htim3.Init.CounterMode = TIM_COUNTERMODE_UP;
 8000bae:	4b26      	ldr	r3, [pc, #152]	; (8000c48 <FEES_Startup_PWM_BATTERY+0x140>)
 8000bb0:	2200      	movs	r2, #0
 8000bb2:	609a      	str	r2, [r3, #8]
		  htim3.Init.Period = 100-1;
 8000bb4:	4b24      	ldr	r3, [pc, #144]	; (8000c48 <FEES_Startup_PWM_BATTERY+0x140>)
 8000bb6:	2263      	movs	r2, #99	; 0x63
 8000bb8:	60da      	str	r2, [r3, #12]
		  htim3.Init.ClockDivision = TIM_CLOCKDIVISION_DIV1;
 8000bba:	4b23      	ldr	r3, [pc, #140]	; (8000c48 <FEES_Startup_PWM_BATTERY+0x140>)
 8000bbc:	2200      	movs	r2, #0
 8000bbe:	611a      	str	r2, [r3, #16]
		  htim3.Init.AutoReloadPreload = TIM_AUTORELOAD_PRELOAD_ENABLE;
 8000bc0:	4b21      	ldr	r3, [pc, #132]	; (8000c48 <FEES_Startup_PWM_BATTERY+0x140>)
 8000bc2:	2280      	movs	r2, #128	; 0x80
 8000bc4:	619a      	str	r2, [r3, #24]
		  if (HAL_TIM_PWM_Init(&htim3) != HAL_OK){Error_Handler();}
 8000bc6:	4820      	ldr	r0, [pc, #128]	; (8000c48 <FEES_Startup_PWM_BATTERY+0x140>)
 8000bc8:	f003 fce9 	bl	800459e <HAL_TIM_PWM_Init>
 8000bcc:	4603      	mov	r3, r0
 8000bce:	2b00      	cmp	r3, #0
 8000bd0:	d001      	beq.n	8000bd6 <FEES_Startup_PWM_BATTERY+0xce>
 8000bd2:	f000 fda1 	bl	8001718 <Error_Handler>

		  sMasterConfig.MasterOutputTrigger = TIM_TRGO_RESET;
 8000bd6:	2300      	movs	r3, #0
 8000bd8:	61fb      	str	r3, [r7, #28]
		  sMasterConfig.MasterSlaveMode = TIM_MASTERSLAVEMODE_DISABLE;
 8000bda:	2300      	movs	r3, #0
 8000bdc:	623b      	str	r3, [r7, #32]
		  if (HAL_TIMEx_MasterConfigSynchronization(&htim3, &sMasterConfig) != HAL_OK){ Error_Handler();}
 8000bde:	f107 031c 	add.w	r3, r7, #28
 8000be2:	4619      	mov	r1, r3
 8000be4:	4818      	ldr	r0, [pc, #96]	; (8000c48 <FEES_Startup_PWM_BATTERY+0x140>)
 8000be6:	f004 fb59 	bl	800529c <HAL_TIMEx_MasterConfigSynchronization>
 8000bea:	4603      	mov	r3, r0
 8000bec:	2b00      	cmp	r3, #0
 8000bee:	d001      	beq.n	8000bf4 <FEES_Startup_PWM_BATTERY+0xec>
 8000bf0:	f000 fd92 	bl	8001718 <Error_Handler>

		  sConfigOC.OCMode = TIM_OCMODE_PWM1;
 8000bf4:	2360      	movs	r3, #96	; 0x60
 8000bf6:	603b      	str	r3, [r7, #0]
		  sConfigOC.Pulse = 50-1;
 8000bf8:	2331      	movs	r3, #49	; 0x31
 8000bfa:	607b      	str	r3, [r7, #4]
		  sConfigOC.OCPolarity = TIM_OCPOLARITY_HIGH;
 8000bfc:	2300      	movs	r3, #0
 8000bfe:	60bb      	str	r3, [r7, #8]
		  sConfigOC.OCFastMode = TIM_OCFAST_DISABLE;
 8000c00:	2300      	movs	r3, #0
 8000c02:	613b      	str	r3, [r7, #16]
		  if (HAL_TIM_PWM_ConfigChannel(&htim3, &sConfigOC, TIM_CHANNEL_3) != HAL_OK){ Error_Handler();}
 8000c04:	463b      	mov	r3, r7
 8000c06:	2208      	movs	r2, #8
 8000c08:	4619      	mov	r1, r3
 8000c0a:	480f      	ldr	r0, [pc, #60]	; (8000c48 <FEES_Startup_PWM_BATTERY+0x140>)
 8000c0c:	f003 fe90 	bl	8004930 <HAL_TIM_PWM_ConfigChannel>
 8000c10:	4603      	mov	r3, r0
 8000c12:	2b00      	cmp	r3, #0
 8000c14:	d001      	beq.n	8000c1a <FEES_Startup_PWM_BATTERY+0x112>
 8000c16:	f000 fd7f 	bl	8001718 <Error_Handler>
		  i++;
 8000c1a:	6a7b      	ldr	r3, [r7, #36]	; 0x24
 8000c1c:	3301      	adds	r3, #1
 8000c1e:	627b      	str	r3, [r7, #36]	; 0x24
		  HAL_TIM_PWM_Start(&htim3, TIM_CHANNEL_3);
 8000c20:	2108      	movs	r1, #8
 8000c22:	4809      	ldr	r0, [pc, #36]	; (8000c48 <FEES_Startup_PWM_BATTERY+0x140>)
 8000c24:	f003 fce6 	bl	80045f4 <HAL_TIM_PWM_Start>
		  HAL_Delay(50);
 8000c28:	2032      	movs	r0, #50	; 0x32
 8000c2a:	f001 f9ef 	bl	800200c <HAL_Delay>
	  while(i<11){
 8000c2e:	6a7b      	ldr	r3, [r7, #36]	; 0x24
 8000c30:	2b0a      	cmp	r3, #10
 8000c32:	f77f af6f 	ble.w	8000b14 <FEES_Startup_PWM_BATTERY+0xc>
		  }
	  HAL_TIM_PWM_Stop(&htim3, TIM_CHANNEL_3);
 8000c36:	2108      	movs	r1, #8
 8000c38:	4803      	ldr	r0, [pc, #12]	; (8000c48 <FEES_Startup_PWM_BATTERY+0x140>)
 8000c3a:	f003 fd19 	bl	8004670 <HAL_TIM_PWM_Stop>
}
 8000c3e:	bf00      	nop
 8000c40:	3728      	adds	r7, #40	; 0x28
 8000c42:	46bd      	mov	sp, r7
 8000c44:	bd80      	pop	{r7, pc}
 8000c46:	bf00      	nop
 8000c48:	200055c4 	.word	0x200055c4
 8000c4c:	40000400 	.word	0x40000400

08000c50 <main>:
/**
  * @brief  The application entry point.
  * @retval int
  */
int main(void)
{
 8000c50:	b580      	push	{r7, lr}
 8000c52:	af00      	add	r7, sp, #0
  /* USER CODE END 1 */

  /* MCU Configuration--------------------------------------------------------*/

  /* Reset of all peripherals, Initializes the Flash interface and the Systick. */
  HAL_Init();
 8000c54:	f001 f998 	bl	8001f88 <HAL_Init>
  /* USER CODE BEGIN Init */

  /* USER CODE END Init */

  /* Configure the system clock */
  SystemClock_Config();
 8000c58:	f000 f888 	bl	8000d6c <SystemClock_Config>
  /* USER CODE BEGIN SysInit */

  /* USER CODE END SysInit */

  /* Initialize all configured peripherals */
  MX_GPIO_Init();
 8000c5c:	f000 fbfe 	bl	800145c <MX_GPIO_Init>
  MX_I2C1_Init();
 8000c60:	f000 f93e 	bl	8000ee0 <MX_I2C1_Init>
  MX_I2C2_Init();
 8000c64:	f000 f96a 	bl	8000f3c <MX_I2C2_Init>
  MX_SPI1_Init();
 8000c68:	f000 f996 	bl	8000f98 <MX_SPI1_Init>
  MX_SPI2_Init();
 8000c6c:	f000 f9ca 	bl	8001004 <MX_SPI2_Init>
  MX_SPI3_Init();
 8000c70:	f000 f9fe 	bl	8001070 <MX_SPI3_Init>
  MX_USART1_UART_Init();
 8000c74:	f000 fb1c 	bl	80012b0 <MX_USART1_UART_Init>
  MX_USART3_UART_Init();
 8000c78:	f000 fb6e 	bl	8001358 <MX_USART3_UART_Init>
  MX_USART6_UART_Init();
 8000c7c:	f000 fb96 	bl	80013ac <MX_USART6_UART_Init>
  MX_ADC1_Init();
 8000c80:	f000 f8dc 	bl	8000e3c <MX_ADC1_Init>
  MX_USART2_UART_Init();
 8000c84:	f000 fb3e 	bl	8001304 <MX_USART2_UART_Init>
  MX_USB_OTG_FS_PCD_Init();
 8000c88:	f000 fbba 	bl	8001400 <MX_USB_OTG_FS_PCD_Init>
  MX_TIM2_Init();
 8000c8c:	f000 fa26 	bl	80010dc <MX_TIM2_Init>
  MX_TIM3_Init();
 8000c90:	f000 fab4 	bl	80011fc <MX_TIM3_Init>
  /* USER CODE BEGIN 2 */

  FEES_Init();
 8000c94:	f7ff fc1c 	bl	80004d0 <FEES_Init>


  FEES_Startup_PWM_BATTERY(50); // STARTUP ALERT
 8000c98:	2032      	movs	r0, #50	; 0x32
 8000c9a:	f7ff ff35 	bl	8000b08 <FEES_Startup_PWM_BATTERY>

  /* USER CODE END 2 */

  /* Init scheduler */
  osKernelInitialize();
 8000c9e:	f005 fc5f 	bl	8006560 <osKernelInitialize>
  /* add queues, ... */
  /* USER CODE END RTOS_QUEUES */

  /* Create the thread(s) */
  /* creation of defaultTask */
  defaultTaskHandle = osThreadNew(StartDefaultTask, NULL, &defaultTask_attributes);
 8000ca2:	4a1d      	ldr	r2, [pc, #116]	; (8000d18 <main+0xc8>)
 8000ca4:	2100      	movs	r1, #0
 8000ca6:	481d      	ldr	r0, [pc, #116]	; (8000d1c <main+0xcc>)
 8000ca8:	f005 fcc4 	bl	8006634 <osThreadNew>
 8000cac:	4602      	mov	r2, r0
 8000cae:	4b1c      	ldr	r3, [pc, #112]	; (8000d20 <main+0xd0>)
 8000cb0:	601a      	str	r2, [r3, #0]

  /* creation of Task1 */
  Task1Handle = osThreadNew(Task01, NULL, &Task1_attributes);
 8000cb2:	4a1c      	ldr	r2, [pc, #112]	; (8000d24 <main+0xd4>)
 8000cb4:	2100      	movs	r1, #0
 8000cb6:	481c      	ldr	r0, [pc, #112]	; (8000d28 <main+0xd8>)
 8000cb8:	f005 fcbc 	bl	8006634 <osThreadNew>
 8000cbc:	4602      	mov	r2, r0
 8000cbe:	4b1b      	ldr	r3, [pc, #108]	; (8000d2c <main+0xdc>)
 8000cc0:	601a      	str	r2, [r3, #0]

  /* creation of Task2 */
  Task2Handle = osThreadNew(Task02, NULL, &Task2_attributes);
 8000cc2:	4a1b      	ldr	r2, [pc, #108]	; (8000d30 <main+0xe0>)
 8000cc4:	2100      	movs	r1, #0
 8000cc6:	481b      	ldr	r0, [pc, #108]	; (8000d34 <main+0xe4>)
 8000cc8:	f005 fcb4 	bl	8006634 <osThreadNew>
 8000ccc:	4602      	mov	r2, r0
 8000cce:	4b1a      	ldr	r3, [pc, #104]	; (8000d38 <main+0xe8>)
 8000cd0:	601a      	str	r2, [r3, #0]

  /* creation of Task3 */
  Task3Handle = osThreadNew(Task03, NULL, &Task3_attributes);
 8000cd2:	4a1a      	ldr	r2, [pc, #104]	; (8000d3c <main+0xec>)
 8000cd4:	2100      	movs	r1, #0
 8000cd6:	481a      	ldr	r0, [pc, #104]	; (8000d40 <main+0xf0>)
 8000cd8:	f005 fcac 	bl	8006634 <osThreadNew>
 8000cdc:	4602      	mov	r2, r0
 8000cde:	4b19      	ldr	r3, [pc, #100]	; (8000d44 <main+0xf4>)
 8000ce0:	601a      	str	r2, [r3, #0]

  /* creation of Task4 */
  Task4Handle = osThreadNew(Task04, NULL, &Task4_attributes);
 8000ce2:	4a19      	ldr	r2, [pc, #100]	; (8000d48 <main+0xf8>)
 8000ce4:	2100      	movs	r1, #0
 8000ce6:	4819      	ldr	r0, [pc, #100]	; (8000d4c <main+0xfc>)
 8000ce8:	f005 fca4 	bl	8006634 <osThreadNew>
 8000cec:	4602      	mov	r2, r0
 8000cee:	4b18      	ldr	r3, [pc, #96]	; (8000d50 <main+0x100>)
 8000cf0:	601a      	str	r2, [r3, #0]

  /* creation of Task5 */
  Task5Handle = osThreadNew(Task05, NULL, &Task5_attributes);
 8000cf2:	4a18      	ldr	r2, [pc, #96]	; (8000d54 <main+0x104>)
 8000cf4:	2100      	movs	r1, #0
 8000cf6:	4818      	ldr	r0, [pc, #96]	; (8000d58 <main+0x108>)
 8000cf8:	f005 fc9c 	bl	8006634 <osThreadNew>
 8000cfc:	4602      	mov	r2, r0
 8000cfe:	4b17      	ldr	r3, [pc, #92]	; (8000d5c <main+0x10c>)
 8000d00:	601a      	str	r2, [r3, #0]

  /* creation of Task6 */
  Task6Handle = osThreadNew(Task06, NULL, &Task6_attributes);
 8000d02:	4a17      	ldr	r2, [pc, #92]	; (8000d60 <main+0x110>)
 8000d04:	2100      	movs	r1, #0
 8000d06:	4817      	ldr	r0, [pc, #92]	; (8000d64 <main+0x114>)
 8000d08:	f005 fc94 	bl	8006634 <osThreadNew>
 8000d0c:	4602      	mov	r2, r0
 8000d0e:	4b16      	ldr	r3, [pc, #88]	; (8000d68 <main+0x118>)
 8000d10:	601a      	str	r2, [r3, #0]
  /* USER CODE BEGIN RTOS_THREADS */
  /* add threads, ... */
  /* USER CODE END RTOS_THREADS */

  /* Start scheduler */
  osKernelStart();
 8000d12:	f005 fc59 	bl	80065c8 <osKernelStart>

  /* We should never get here as control is now taken by the scheduler */
  /* Infinite loop */
  /* USER CODE BEGIN WHILE */
  while (1)
 8000d16:	e7fe      	b.n	8000d16 <main+0xc6>
 8000d18:	08009118 	.word	0x08009118
 8000d1c:	08001649 	.word	0x08001649
 8000d20:	2000494c 	.word	0x2000494c
 8000d24:	0800913c 	.word	0x0800913c
 8000d28:	08001655 	.word	0x08001655
 8000d2c:	200056d8 	.word	0x200056d8
 8000d30:	08009160 	.word	0x08009160
 8000d34:	08001691 	.word	0x08001691
 8000d38:	20005dec 	.word	0x20005dec
 8000d3c:	08009184 	.word	0x08009184
 8000d40:	080016a1 	.word	0x080016a1
 8000d44:	20005de8 	.word	0x20005de8
 8000d48:	080091a8 	.word	0x080091a8
 8000d4c:	080016b3 	.word	0x080016b3
 8000d50:	200057a8 	.word	0x200057a8
 8000d54:	080091cc 	.word	0x080091cc
 8000d58:	080016c5 	.word	0x080016c5
 8000d5c:	2000493c 	.word	0x2000493c
 8000d60:	080091f0 	.word	0x080091f0
 8000d64:	080016e5 	.word	0x080016e5
 8000d68:	200056d4 	.word	0x200056d4

08000d6c <SystemClock_Config>:
/**
  * @brief System Clock Configuration
  * @retval None
  */
void SystemClock_Config(void)
{
 8000d6c:	b580      	push	{r7, lr}
 8000d6e:	b094      	sub	sp, #80	; 0x50
 8000d70:	af00      	add	r7, sp, #0
  RCC_OscInitTypeDef RCC_OscInitStruct = {0};
 8000d72:	f107 0320 	add.w	r3, r7, #32
 8000d76:	2230      	movs	r2, #48	; 0x30
 8000d78:	2100      	movs	r1, #0
 8000d7a:	4618      	mov	r0, r3
 8000d7c:	f008 f95d 	bl	800903a <memset>
  RCC_ClkInitTypeDef RCC_ClkInitStruct = {0};
 8000d80:	f107 030c 	add.w	r3, r7, #12
 8000d84:	2200      	movs	r2, #0
 8000d86:	601a      	str	r2, [r3, #0]
 8000d88:	605a      	str	r2, [r3, #4]
 8000d8a:	609a      	str	r2, [r3, #8]
 8000d8c:	60da      	str	r2, [r3, #12]
 8000d8e:	611a      	str	r2, [r3, #16]

  /** Configure the main internal regulator output voltage
  */
  __HAL_RCC_PWR_CLK_ENABLE();
 8000d90:	2300      	movs	r3, #0
 8000d92:	60bb      	str	r3, [r7, #8]
 8000d94:	4b27      	ldr	r3, [pc, #156]	; (8000e34 <SystemClock_Config+0xc8>)
 8000d96:	6c1b      	ldr	r3, [r3, #64]	; 0x40
 8000d98:	4a26      	ldr	r2, [pc, #152]	; (8000e34 <SystemClock_Config+0xc8>)
 8000d9a:	f043 5380 	orr.w	r3, r3, #268435456	; 0x10000000
 8000d9e:	6413      	str	r3, [r2, #64]	; 0x40
 8000da0:	4b24      	ldr	r3, [pc, #144]	; (8000e34 <SystemClock_Config+0xc8>)
 8000da2:	6c1b      	ldr	r3, [r3, #64]	; 0x40
 8000da4:	f003 5380 	and.w	r3, r3, #268435456	; 0x10000000
 8000da8:	60bb      	str	r3, [r7, #8]
 8000daa:	68bb      	ldr	r3, [r7, #8]
  __HAL_PWR_VOLTAGESCALING_CONFIG(PWR_REGULATOR_VOLTAGE_SCALE1);
 8000dac:	2300      	movs	r3, #0
 8000dae:	607b      	str	r3, [r7, #4]
 8000db0:	4b21      	ldr	r3, [pc, #132]	; (8000e38 <SystemClock_Config+0xcc>)
 8000db2:	681b      	ldr	r3, [r3, #0]
 8000db4:	4a20      	ldr	r2, [pc, #128]	; (8000e38 <SystemClock_Config+0xcc>)
 8000db6:	f443 4380 	orr.w	r3, r3, #16384	; 0x4000
 8000dba:	6013      	str	r3, [r2, #0]
 8000dbc:	4b1e      	ldr	r3, [pc, #120]	; (8000e38 <SystemClock_Config+0xcc>)
 8000dbe:	681b      	ldr	r3, [r3, #0]
 8000dc0:	f403 4380 	and.w	r3, r3, #16384	; 0x4000
 8000dc4:	607b      	str	r3, [r7, #4]
 8000dc6:	687b      	ldr	r3, [r7, #4]
  /** Initializes the RCC Oscillators according to the specified parameters
  * in the RCC_OscInitTypeDef structure.
  */
  RCC_OscInitStruct.OscillatorType = RCC_OSCILLATORTYPE_HSE;
 8000dc8:	2301      	movs	r3, #1
 8000dca:	623b      	str	r3, [r7, #32]
  RCC_OscInitStruct.HSEState = RCC_HSE_ON;
 8000dcc:	f44f 3380 	mov.w	r3, #65536	; 0x10000
 8000dd0:	627b      	str	r3, [r7, #36]	; 0x24
  RCC_OscInitStruct.PLL.PLLState = RCC_PLL_ON;
 8000dd2:	2302      	movs	r3, #2
 8000dd4:	63bb      	str	r3, [r7, #56]	; 0x38
  RCC_OscInitStruct.PLL.PLLSource = RCC_PLLSOURCE_HSE;
 8000dd6:	f44f 0380 	mov.w	r3, #4194304	; 0x400000
 8000dda:	63fb      	str	r3, [r7, #60]	; 0x3c
  RCC_OscInitStruct.PLL.PLLM = 4;
 8000ddc:	2304      	movs	r3, #4
 8000dde:	643b      	str	r3, [r7, #64]	; 0x40
  RCC_OscInitStruct.PLL.PLLN = 96;
 8000de0:	2360      	movs	r3, #96	; 0x60
 8000de2:	647b      	str	r3, [r7, #68]	; 0x44
  RCC_OscInitStruct.PLL.PLLP = RCC_PLLP_DIV6;
 8000de4:	2306      	movs	r3, #6
 8000de6:	64bb      	str	r3, [r7, #72]	; 0x48
  RCC_OscInitStruct.PLL.PLLQ = 4;
 8000de8:	2304      	movs	r3, #4
 8000dea:	64fb      	str	r3, [r7, #76]	; 0x4c
  if (HAL_RCC_OscConfig(&RCC_OscInitStruct) != HAL_OK)
 8000dec:	f107 0320 	add.w	r3, r7, #32
 8000df0:	4618      	mov	r0, r3
 8000df2:	f002 fe8d 	bl	8003b10 <HAL_RCC_OscConfig>
 8000df6:	4603      	mov	r3, r0
 8000df8:	2b00      	cmp	r3, #0
 8000dfa:	d001      	beq.n	8000e00 <SystemClock_Config+0x94>
  {
    Error_Handler();
 8000dfc:	f000 fc8c 	bl	8001718 <Error_Handler>
  }
  /** Initializes the CPU, AHB and APB buses clocks
  */
  RCC_ClkInitStruct.ClockType = RCC_CLOCKTYPE_HCLK|RCC_CLOCKTYPE_SYSCLK
 8000e00:	230f      	movs	r3, #15
 8000e02:	60fb      	str	r3, [r7, #12]
                              |RCC_CLOCKTYPE_PCLK1|RCC_CLOCKTYPE_PCLK2;
  RCC_ClkInitStruct.SYSCLKSource = RCC_SYSCLKSOURCE_PLLCLK;
 8000e04:	2302      	movs	r3, #2
 8000e06:	613b      	str	r3, [r7, #16]
  RCC_ClkInitStruct.AHBCLKDivider = RCC_SYSCLK_DIV2;
 8000e08:	2380      	movs	r3, #128	; 0x80
 8000e0a:	617b      	str	r3, [r7, #20]
  RCC_ClkInitStruct.APB1CLKDivider = RCC_HCLK_DIV1;
 8000e0c:	2300      	movs	r3, #0
 8000e0e:	61bb      	str	r3, [r7, #24]
  RCC_ClkInitStruct.APB2CLKDivider = RCC_HCLK_DIV1;
 8000e10:	2300      	movs	r3, #0
 8000e12:	61fb      	str	r3, [r7, #28]

  if (HAL_RCC_ClockConfig(&RCC_ClkInitStruct, FLASH_LATENCY_0) != HAL_OK)
 8000e14:	f107 030c 	add.w	r3, r7, #12
 8000e18:	2100      	movs	r1, #0
 8000e1a:	4618      	mov	r0, r3
 8000e1c:	f003 f8e8 	bl	8003ff0 <HAL_RCC_ClockConfig>
 8000e20:	4603      	mov	r3, r0
 8000e22:	2b00      	cmp	r3, #0
 8000e24:	d001      	beq.n	8000e2a <SystemClock_Config+0xbe>
  {
    Error_Handler();
 8000e26:	f000 fc77 	bl	8001718 <Error_Handler>
  }
}
 8000e2a:	bf00      	nop
 8000e2c:	3750      	adds	r7, #80	; 0x50
 8000e2e:	46bd      	mov	sp, r7
 8000e30:	bd80      	pop	{r7, pc}
 8000e32:	bf00      	nop
 8000e34:	40023800 	.word	0x40023800
 8000e38:	40007000 	.word	0x40007000

08000e3c <MX_ADC1_Init>:
  * @brief ADC1 Initialization Function
  * @param None
  * @retval None
  */
static void MX_ADC1_Init(void)
{
 8000e3c:	b580      	push	{r7, lr}
 8000e3e:	b084      	sub	sp, #16
 8000e40:	af00      	add	r7, sp, #0

  /* USER CODE BEGIN ADC1_Init 0 */

  /* USER CODE END ADC1_Init 0 */

  ADC_ChannelConfTypeDef sConfig = {0};
 8000e42:	463b      	mov	r3, r7
 8000e44:	2200      	movs	r2, #0
 8000e46:	601a      	str	r2, [r3, #0]
 8000e48:	605a      	str	r2, [r3, #4]
 8000e4a:	609a      	str	r2, [r3, #8]
 8000e4c:	60da      	str	r2, [r3, #12]
  /* USER CODE BEGIN ADC1_Init 1 */

  /* USER CODE END ADC1_Init 1 */
  /** Configure the global features of the ADC (Clock, Resolution, Data Alignment and number of conversion)
  */
  hadc1.Instance = ADC1;
 8000e4e:	4b21      	ldr	r3, [pc, #132]	; (8000ed4 <MX_ADC1_Init+0x98>)
 8000e50:	4a21      	ldr	r2, [pc, #132]	; (8000ed8 <MX_ADC1_Init+0x9c>)
 8000e52:	601a      	str	r2, [r3, #0]
  hadc1.Init.ClockPrescaler = ADC_CLOCK_SYNC_PCLK_DIV2;
 8000e54:	4b1f      	ldr	r3, [pc, #124]	; (8000ed4 <MX_ADC1_Init+0x98>)
 8000e56:	2200      	movs	r2, #0
 8000e58:	605a      	str	r2, [r3, #4]
  hadc1.Init.Resolution = ADC_RESOLUTION_12B;
 8000e5a:	4b1e      	ldr	r3, [pc, #120]	; (8000ed4 <MX_ADC1_Init+0x98>)
 8000e5c:	2200      	movs	r2, #0
 8000e5e:	609a      	str	r2, [r3, #8]
  hadc1.Init.ScanConvMode = DISABLE;
 8000e60:	4b1c      	ldr	r3, [pc, #112]	; (8000ed4 <MX_ADC1_Init+0x98>)
 8000e62:	2200      	movs	r2, #0
 8000e64:	611a      	str	r2, [r3, #16]
  hadc1.Init.ContinuousConvMode = DISABLE;
 8000e66:	4b1b      	ldr	r3, [pc, #108]	; (8000ed4 <MX_ADC1_Init+0x98>)
 8000e68:	2200      	movs	r2, #0
 8000e6a:	761a      	strb	r2, [r3, #24]
  hadc1.Init.DiscontinuousConvMode = DISABLE;
 8000e6c:	4b19      	ldr	r3, [pc, #100]	; (8000ed4 <MX_ADC1_Init+0x98>)
 8000e6e:	2200      	movs	r2, #0
 8000e70:	f883 2020 	strb.w	r2, [r3, #32]
  hadc1.Init.ExternalTrigConvEdge = ADC_EXTERNALTRIGCONVEDGE_NONE;
 8000e74:	4b17      	ldr	r3, [pc, #92]	; (8000ed4 <MX_ADC1_Init+0x98>)
 8000e76:	2200      	movs	r2, #0
 8000e78:	62da      	str	r2, [r3, #44]	; 0x2c
  hadc1.Init.ExternalTrigConv = ADC_SOFTWARE_START;
 8000e7a:	4b16      	ldr	r3, [pc, #88]	; (8000ed4 <MX_ADC1_Init+0x98>)
 8000e7c:	4a17      	ldr	r2, [pc, #92]	; (8000edc <MX_ADC1_Init+0xa0>)
 8000e7e:	629a      	str	r2, [r3, #40]	; 0x28
  hadc1.Init.DataAlign = ADC_DATAALIGN_RIGHT;
 8000e80:	4b14      	ldr	r3, [pc, #80]	; (8000ed4 <MX_ADC1_Init+0x98>)
 8000e82:	2200      	movs	r2, #0
 8000e84:	60da      	str	r2, [r3, #12]
  hadc1.Init.NbrOfConversion = 1;
 8000e86:	4b13      	ldr	r3, [pc, #76]	; (8000ed4 <MX_ADC1_Init+0x98>)
 8000e88:	2201      	movs	r2, #1
 8000e8a:	61da      	str	r2, [r3, #28]
  hadc1.Init.DMAContinuousRequests = DISABLE;
 8000e8c:	4b11      	ldr	r3, [pc, #68]	; (8000ed4 <MX_ADC1_Init+0x98>)
 8000e8e:	2200      	movs	r2, #0
 8000e90:	f883 2030 	strb.w	r2, [r3, #48]	; 0x30
  hadc1.Init.EOCSelection = ADC_EOC_SINGLE_CONV;
 8000e94:	4b0f      	ldr	r3, [pc, #60]	; (8000ed4 <MX_ADC1_Init+0x98>)
 8000e96:	2201      	movs	r2, #1
 8000e98:	615a      	str	r2, [r3, #20]
  if (HAL_ADC_Init(&hadc1) != HAL_OK)
 8000e9a:	480e      	ldr	r0, [pc, #56]	; (8000ed4 <MX_ADC1_Init+0x98>)
 8000e9c:	f001 f8d8 	bl	8002050 <HAL_ADC_Init>
 8000ea0:	4603      	mov	r3, r0
 8000ea2:	2b00      	cmp	r3, #0
 8000ea4:	d001      	beq.n	8000eaa <MX_ADC1_Init+0x6e>
  {
    Error_Handler();
 8000ea6:	f000 fc37 	bl	8001718 <Error_Handler>
  }
  /** Configure for the selected ADC regular channel its corresponding rank in the sequencer and its sample time.
  */
  sConfig.Channel = ADC_CHANNEL_TEMPSENSOR;
 8000eaa:	2310      	movs	r3, #16
 8000eac:	603b      	str	r3, [r7, #0]
  sConfig.Rank = 1;
 8000eae:	2301      	movs	r3, #1
 8000eb0:	607b      	str	r3, [r7, #4]
  sConfig.SamplingTime = ADC_SAMPLETIME_3CYCLES;
 8000eb2:	2300      	movs	r3, #0
 8000eb4:	60bb      	str	r3, [r7, #8]
  if (HAL_ADC_ConfigChannel(&hadc1, &sConfig) != HAL_OK)
 8000eb6:	463b      	mov	r3, r7
 8000eb8:	4619      	mov	r1, r3
 8000eba:	4806      	ldr	r0, [pc, #24]	; (8000ed4 <MX_ADC1_Init+0x98>)
 8000ebc:	f001 f90c 	bl	80020d8 <HAL_ADC_ConfigChannel>
 8000ec0:	4603      	mov	r3, r0
 8000ec2:	2b00      	cmp	r3, #0
 8000ec4:	d001      	beq.n	8000eca <MX_ADC1_Init+0x8e>
  {
    Error_Handler();
 8000ec6:	f000 fc27 	bl	8001718 <Error_Handler>
  }
  /* USER CODE BEGIN ADC1_Init 2 */

  /* USER CODE END ADC1_Init 2 */

}
 8000eca:	bf00      	nop
 8000ecc:	3710      	adds	r7, #16
 8000ece:	46bd      	mov	sp, r7
 8000ed0:	bd80      	pop	{r7, pc}
 8000ed2:	bf00      	nop
 8000ed4:	200056dc 	.word	0x200056dc
 8000ed8:	40012000 	.word	0x40012000
 8000edc:	0f000001 	.word	0x0f000001

08000ee0 <MX_I2C1_Init>:
  * @brief I2C1 Initialization Function
  * @param None
  * @retval None
  */
static void MX_I2C1_Init(void)
{
 8000ee0:	b580      	push	{r7, lr}
 8000ee2:	af00      	add	r7, sp, #0
  /* USER CODE END I2C1_Init 0 */

  /* USER CODE BEGIN I2C1_Init 1 */

  /* USER CODE END I2C1_Init 1 */
  hi2c1.Instance = I2C1;
 8000ee4:	4b12      	ldr	r3, [pc, #72]	; (8000f30 <MX_I2C1_Init+0x50>)
 8000ee6:	4a13      	ldr	r2, [pc, #76]	; (8000f34 <MX_I2C1_Init+0x54>)
 8000ee8:	601a      	str	r2, [r3, #0]
  hi2c1.Init.ClockSpeed = 100000;
 8000eea:	4b11      	ldr	r3, [pc, #68]	; (8000f30 <MX_I2C1_Init+0x50>)
 8000eec:	4a12      	ldr	r2, [pc, #72]	; (8000f38 <MX_I2C1_Init+0x58>)
 8000eee:	605a      	str	r2, [r3, #4]
  hi2c1.Init.DutyCycle = I2C_DUTYCYCLE_2;
 8000ef0:	4b0f      	ldr	r3, [pc, #60]	; (8000f30 <MX_I2C1_Init+0x50>)
 8000ef2:	2200      	movs	r2, #0
 8000ef4:	609a      	str	r2, [r3, #8]
  hi2c1.Init.OwnAddress1 = 0;
 8000ef6:	4b0e      	ldr	r3, [pc, #56]	; (8000f30 <MX_I2C1_Init+0x50>)
 8000ef8:	2200      	movs	r2, #0
 8000efa:	60da      	str	r2, [r3, #12]
  hi2c1.Init.AddressingMode = I2C_ADDRESSINGMODE_7BIT;
 8000efc:	4b0c      	ldr	r3, [pc, #48]	; (8000f30 <MX_I2C1_Init+0x50>)
 8000efe:	f44f 4280 	mov.w	r2, #16384	; 0x4000
 8000f02:	611a      	str	r2, [r3, #16]
  hi2c1.Init.DualAddressMode = I2C_DUALADDRESS_DISABLE;
 8000f04:	4b0a      	ldr	r3, [pc, #40]	; (8000f30 <MX_I2C1_Init+0x50>)
 8000f06:	2200      	movs	r2, #0
 8000f08:	615a      	str	r2, [r3, #20]
  hi2c1.Init.OwnAddress2 = 0;
 8000f0a:	4b09      	ldr	r3, [pc, #36]	; (8000f30 <MX_I2C1_Init+0x50>)
 8000f0c:	2200      	movs	r2, #0
 8000f0e:	619a      	str	r2, [r3, #24]
  hi2c1.Init.GeneralCallMode = I2C_GENERALCALL_DISABLE;
 8000f10:	4b07      	ldr	r3, [pc, #28]	; (8000f30 <MX_I2C1_Init+0x50>)
 8000f12:	2200      	movs	r2, #0
 8000f14:	61da      	str	r2, [r3, #28]
  hi2c1.Init.NoStretchMode = I2C_NOSTRETCH_DISABLE;
 8000f16:	4b06      	ldr	r3, [pc, #24]	; (8000f30 <MX_I2C1_Init+0x50>)
 8000f18:	2200      	movs	r2, #0
 8000f1a:	621a      	str	r2, [r3, #32]
  if (HAL_I2C_Init(&hi2c1) != HAL_OK)
 8000f1c:	4804      	ldr	r0, [pc, #16]	; (8000f30 <MX_I2C1_Init+0x50>)
 8000f1e:	f001 fd8f 	bl	8002a40 <HAL_I2C_Init>
 8000f22:	4603      	mov	r3, r0
 8000f24:	2b00      	cmp	r3, #0
 8000f26:	d001      	beq.n	8000f2c <MX_I2C1_Init+0x4c>
  {
    Error_Handler();
 8000f28:	f000 fbf6 	bl	8001718 <Error_Handler>
  }
  /* USER CODE BEGIN I2C1_Init 2 */

  /* USER CODE END I2C1_Init 2 */

}
 8000f2c:	bf00      	nop
 8000f2e:	bd80      	pop	{r7, pc}
 8000f30:	20005048 	.word	0x20005048
 8000f34:	40005400 	.word	0x40005400
 8000f38:	000186a0 	.word	0x000186a0

08000f3c <MX_I2C2_Init>:
  * @brief I2C2 Initialization Function
  * @param None
  * @retval None
  */
static void MX_I2C2_Init(void)
{
 8000f3c:	b580      	push	{r7, lr}
 8000f3e:	af00      	add	r7, sp, #0
  /* USER CODE END I2C2_Init 0 */

  /* USER CODE BEGIN I2C2_Init 1 */

  /* USER CODE END I2C2_Init 1 */
  hi2c2.Instance = I2C2;
 8000f40:	4b12      	ldr	r3, [pc, #72]	; (8000f8c <MX_I2C2_Init+0x50>)
 8000f42:	4a13      	ldr	r2, [pc, #76]	; (8000f90 <MX_I2C2_Init+0x54>)
 8000f44:	601a      	str	r2, [r3, #0]
  hi2c2.Init.ClockSpeed = 100000;
 8000f46:	4b11      	ldr	r3, [pc, #68]	; (8000f8c <MX_I2C2_Init+0x50>)
 8000f48:	4a12      	ldr	r2, [pc, #72]	; (8000f94 <MX_I2C2_Init+0x58>)
 8000f4a:	605a      	str	r2, [r3, #4]
  hi2c2.Init.DutyCycle = I2C_DUTYCYCLE_2;
 8000f4c:	4b0f      	ldr	r3, [pc, #60]	; (8000f8c <MX_I2C2_Init+0x50>)
 8000f4e:	2200      	movs	r2, #0
 8000f50:	609a      	str	r2, [r3, #8]
  hi2c2.Init.OwnAddress1 = 0;
 8000f52:	4b0e      	ldr	r3, [pc, #56]	; (8000f8c <MX_I2C2_Init+0x50>)
 8000f54:	2200      	movs	r2, #0
 8000f56:	60da      	str	r2, [r3, #12]
  hi2c2.Init.AddressingMode = I2C_ADDRESSINGMODE_7BIT;
 8000f58:	4b0c      	ldr	r3, [pc, #48]	; (8000f8c <MX_I2C2_Init+0x50>)
 8000f5a:	f44f 4280 	mov.w	r2, #16384	; 0x4000
 8000f5e:	611a      	str	r2, [r3, #16]
  hi2c2.Init.DualAddressMode = I2C_DUALADDRESS_DISABLE;
 8000f60:	4b0a      	ldr	r3, [pc, #40]	; (8000f8c <MX_I2C2_Init+0x50>)
 8000f62:	2200      	movs	r2, #0
 8000f64:	615a      	str	r2, [r3, #20]
  hi2c2.Init.OwnAddress2 = 0;
 8000f66:	4b09      	ldr	r3, [pc, #36]	; (8000f8c <MX_I2C2_Init+0x50>)
 8000f68:	2200      	movs	r2, #0
 8000f6a:	619a      	str	r2, [r3, #24]
  hi2c2.Init.GeneralCallMode = I2C_GENERALCALL_DISABLE;
 8000f6c:	4b07      	ldr	r3, [pc, #28]	; (8000f8c <MX_I2C2_Init+0x50>)
 8000f6e:	2200      	movs	r2, #0
 8000f70:	61da      	str	r2, [r3, #28]
  hi2c2.Init.NoStretchMode = I2C_NOSTRETCH_DISABLE;
 8000f72:	4b06      	ldr	r3, [pc, #24]	; (8000f8c <MX_I2C2_Init+0x50>)
 8000f74:	2200      	movs	r2, #0
 8000f76:	621a      	str	r2, [r3, #32]
  if (HAL_I2C_Init(&hi2c2) != HAL_OK)
 8000f78:	4804      	ldr	r0, [pc, #16]	; (8000f8c <MX_I2C2_Init+0x50>)
 8000f7a:	f001 fd61 	bl	8002a40 <HAL_I2C_Init>
 8000f7e:	4603      	mov	r3, r0
 8000f80:	2b00      	cmp	r3, #0
 8000f82:	d001      	beq.n	8000f88 <MX_I2C2_Init+0x4c>
  {
    Error_Handler();
 8000f84:	f000 fbc8 	bl	8001718 <Error_Handler>
  }
  /* USER CODE BEGIN I2C2_Init 2 */

  /* USER CODE END I2C2_Init 2 */

}
 8000f88:	bf00      	nop
 8000f8a:	bd80      	pop	{r7, pc}
 8000f8c:	2000551c 	.word	0x2000551c
 8000f90:	40005800 	.word	0x40005800
 8000f94:	000186a0 	.word	0x000186a0

08000f98 <MX_SPI1_Init>:
  * @brief SPI1 Initialization Function
  * @param None
  * @retval None
  */
static void MX_SPI1_Init(void)
{
 8000f98:	b580      	push	{r7, lr}
 8000f9a:	af00      	add	r7, sp, #0

  /* USER CODE BEGIN SPI1_Init 1 */

  /* USER CODE END SPI1_Init 1 */
  /* SPI1 parameter configuration*/
  hspi1.Instance = SPI1;
 8000f9c:	4b17      	ldr	r3, [pc, #92]	; (8000ffc <MX_SPI1_Init+0x64>)
 8000f9e:	4a18      	ldr	r2, [pc, #96]	; (8001000 <MX_SPI1_Init+0x68>)
 8000fa0:	601a      	str	r2, [r3, #0]
  hspi1.Init.Mode = SPI_MODE_MASTER;
 8000fa2:	4b16      	ldr	r3, [pc, #88]	; (8000ffc <MX_SPI1_Init+0x64>)
 8000fa4:	f44f 7282 	mov.w	r2, #260	; 0x104
 8000fa8:	605a      	str	r2, [r3, #4]
  hspi1.Init.Direction = SPI_DIRECTION_2LINES;
 8000faa:	4b14      	ldr	r3, [pc, #80]	; (8000ffc <MX_SPI1_Init+0x64>)
 8000fac:	2200      	movs	r2, #0
 8000fae:	609a      	str	r2, [r3, #8]
  hspi1.Init.DataSize = SPI_DATASIZE_8BIT;
 8000fb0:	4b12      	ldr	r3, [pc, #72]	; (8000ffc <MX_SPI1_Init+0x64>)
 8000fb2:	2200      	movs	r2, #0
 8000fb4:	60da      	str	r2, [r3, #12]
  hspi1.Init.CLKPolarity = SPI_POLARITY_LOW;
 8000fb6:	4b11      	ldr	r3, [pc, #68]	; (8000ffc <MX_SPI1_Init+0x64>)
 8000fb8:	2200      	movs	r2, #0
 8000fba:	611a      	str	r2, [r3, #16]
  hspi1.Init.CLKPhase = SPI_PHASE_1EDGE;
 8000fbc:	4b0f      	ldr	r3, [pc, #60]	; (8000ffc <MX_SPI1_Init+0x64>)
 8000fbe:	2200      	movs	r2, #0
 8000fc0:	615a      	str	r2, [r3, #20]
  hspi1.Init.NSS = SPI_NSS_SOFT;
 8000fc2:	4b0e      	ldr	r3, [pc, #56]	; (8000ffc <MX_SPI1_Init+0x64>)
 8000fc4:	f44f 7200 	mov.w	r2, #512	; 0x200
 8000fc8:	619a      	str	r2, [r3, #24]
  hspi1.Init.BaudRatePrescaler = SPI_BAUDRATEPRESCALER_2;
 8000fca:	4b0c      	ldr	r3, [pc, #48]	; (8000ffc <MX_SPI1_Init+0x64>)
 8000fcc:	2200      	movs	r2, #0
 8000fce:	61da      	str	r2, [r3, #28]
  hspi1.Init.FirstBit = SPI_FIRSTBIT_MSB;
 8000fd0:	4b0a      	ldr	r3, [pc, #40]	; (8000ffc <MX_SPI1_Init+0x64>)
 8000fd2:	2200      	movs	r2, #0
 8000fd4:	621a      	str	r2, [r3, #32]
  hspi1.Init.TIMode = SPI_TIMODE_DISABLE;
 8000fd6:	4b09      	ldr	r3, [pc, #36]	; (8000ffc <MX_SPI1_Init+0x64>)
 8000fd8:	2200      	movs	r2, #0
 8000fda:	625a      	str	r2, [r3, #36]	; 0x24
  hspi1.Init.CRCCalculation = SPI_CRCCALCULATION_DISABLE;
 8000fdc:	4b07      	ldr	r3, [pc, #28]	; (8000ffc <MX_SPI1_Init+0x64>)
 8000fde:	2200      	movs	r2, #0
 8000fe0:	629a      	str	r2, [r3, #40]	; 0x28
  hspi1.Init.CRCPolynomial = 10;
 8000fe2:	4b06      	ldr	r3, [pc, #24]	; (8000ffc <MX_SPI1_Init+0x64>)
 8000fe4:	220a      	movs	r2, #10
 8000fe6:	62da      	str	r2, [r3, #44]	; 0x2c
  if (HAL_SPI_Init(&hspi1) != HAL_OK)
 8000fe8:	4804      	ldr	r0, [pc, #16]	; (8000ffc <MX_SPI1_Init+0x64>)
 8000fea:	f003 fa25 	bl	8004438 <HAL_SPI_Init>
 8000fee:	4603      	mov	r3, r0
 8000ff0:	2b00      	cmp	r3, #0
 8000ff2:	d001      	beq.n	8000ff8 <MX_SPI1_Init+0x60>
  {
    Error_Handler();
 8000ff4:	f000 fb90 	bl	8001718 <Error_Handler>
  }
  /* USER CODE BEGIN SPI1_Init 2 */

  /* USER CODE END SPI1_Init 2 */

}
 8000ff8:	bf00      	nop
 8000ffa:	bd80      	pop	{r7, pc}
 8000ffc:	2000605c 	.word	0x2000605c
 8001000:	40013000 	.word	0x40013000

08001004 <MX_SPI2_Init>:
  * @brief SPI2 Initialization Function
  * @param None
  * @retval None
  */
static void MX_SPI2_Init(void)
{
 8001004:	b580      	push	{r7, lr}
 8001006:	af00      	add	r7, sp, #0

  /* USER CODE BEGIN SPI2_Init 1 */

  /* USER CODE END SPI2_Init 1 */
  /* SPI2 parameter configuration*/
  hspi2.Instance = SPI2;
 8001008:	4b17      	ldr	r3, [pc, #92]	; (8001068 <MX_SPI2_Init+0x64>)
 800100a:	4a18      	ldr	r2, [pc, #96]	; (800106c <MX_SPI2_Init+0x68>)
 800100c:	601a      	str	r2, [r3, #0]
  hspi2.Init.Mode = SPI_MODE_MASTER;
 800100e:	4b16      	ldr	r3, [pc, #88]	; (8001068 <MX_SPI2_Init+0x64>)
 8001010:	f44f 7282 	mov.w	r2, #260	; 0x104
 8001014:	605a      	str	r2, [r3, #4]
  hspi2.Init.Direction = SPI_DIRECTION_2LINES;
 8001016:	4b14      	ldr	r3, [pc, #80]	; (8001068 <MX_SPI2_Init+0x64>)
 8001018:	2200      	movs	r2, #0
 800101a:	609a      	str	r2, [r3, #8]
  hspi2.Init.DataSize = SPI_DATASIZE_8BIT;
 800101c:	4b12      	ldr	r3, [pc, #72]	; (8001068 <MX_SPI2_Init+0x64>)
 800101e:	2200      	movs	r2, #0
 8001020:	60da      	str	r2, [r3, #12]
  hspi2.Init.CLKPolarity = SPI_POLARITY_LOW;
 8001022:	4b11      	ldr	r3, [pc, #68]	; (8001068 <MX_SPI2_Init+0x64>)
 8001024:	2200      	movs	r2, #0
 8001026:	611a      	str	r2, [r3, #16]
  hspi2.Init.CLKPhase = SPI_PHASE_1EDGE;
 8001028:	4b0f      	ldr	r3, [pc, #60]	; (8001068 <MX_SPI2_Init+0x64>)
 800102a:	2200      	movs	r2, #0
 800102c:	615a      	str	r2, [r3, #20]
  hspi2.Init.NSS = SPI_NSS_SOFT;
 800102e:	4b0e      	ldr	r3, [pc, #56]	; (8001068 <MX_SPI2_Init+0x64>)
 8001030:	f44f 7200 	mov.w	r2, #512	; 0x200
 8001034:	619a      	str	r2, [r3, #24]
  hspi2.Init.BaudRatePrescaler = SPI_BAUDRATEPRESCALER_2;
 8001036:	4b0c      	ldr	r3, [pc, #48]	; (8001068 <MX_SPI2_Init+0x64>)
 8001038:	2200      	movs	r2, #0
 800103a:	61da      	str	r2, [r3, #28]
  hspi2.Init.FirstBit = SPI_FIRSTBIT_MSB;
 800103c:	4b0a      	ldr	r3, [pc, #40]	; (8001068 <MX_SPI2_Init+0x64>)
 800103e:	2200      	movs	r2, #0
 8001040:	621a      	str	r2, [r3, #32]
  hspi2.Init.TIMode = SPI_TIMODE_DISABLE;
 8001042:	4b09      	ldr	r3, [pc, #36]	; (8001068 <MX_SPI2_Init+0x64>)
 8001044:	2200      	movs	r2, #0
 8001046:	625a      	str	r2, [r3, #36]	; 0x24
  hspi2.Init.CRCCalculation = SPI_CRCCALCULATION_DISABLE;
 8001048:	4b07      	ldr	r3, [pc, #28]	; (8001068 <MX_SPI2_Init+0x64>)
 800104a:	2200      	movs	r2, #0
 800104c:	629a      	str	r2, [r3, #40]	; 0x28
  hspi2.Init.CRCPolynomial = 10;
 800104e:	4b06      	ldr	r3, [pc, #24]	; (8001068 <MX_SPI2_Init+0x64>)
 8001050:	220a      	movs	r2, #10
 8001052:	62da      	str	r2, [r3, #44]	; 0x2c
  if (HAL_SPI_Init(&hspi2) != HAL_OK)
 8001054:	4804      	ldr	r0, [pc, #16]	; (8001068 <MX_SPI2_Init+0x64>)
 8001056:	f003 f9ef 	bl	8004438 <HAL_SPI_Init>
 800105a:	4603      	mov	r3, r0
 800105c:	2b00      	cmp	r3, #0
 800105e:	d001      	beq.n	8001064 <MX_SPI2_Init+0x60>
  {
    Error_Handler();
 8001060:	f000 fb5a 	bl	8001718 <Error_Handler>
  }
  /* USER CODE BEGIN SPI2_Init 2 */

  /* USER CODE END SPI2_Init 2 */

}
 8001064:	bf00      	nop
 8001066:	bd80      	pop	{r7, pc}
 8001068:	20004980 	.word	0x20004980
 800106c:	40003800 	.word	0x40003800

08001070 <MX_SPI3_Init>:
  * @brief SPI3 Initialization Function
  * @param None
  * @retval None
  */
static void MX_SPI3_Init(void)
{
 8001070:	b580      	push	{r7, lr}
 8001072:	af00      	add	r7, sp, #0

  /* USER CODE BEGIN SPI3_Init 1 */

  /* USER CODE END SPI3_Init 1 */
  /* SPI3 parameter configuration*/
  hspi3.Instance = SPI3;
 8001074:	4b17      	ldr	r3, [pc, #92]	; (80010d4 <MX_SPI3_Init+0x64>)
 8001076:	4a18      	ldr	r2, [pc, #96]	; (80010d8 <MX_SPI3_Init+0x68>)
 8001078:	601a      	str	r2, [r3, #0]
  hspi3.Init.Mode = SPI_MODE_MASTER;
 800107a:	4b16      	ldr	r3, [pc, #88]	; (80010d4 <MX_SPI3_Init+0x64>)
 800107c:	f44f 7282 	mov.w	r2, #260	; 0x104
 8001080:	605a      	str	r2, [r3, #4]
  hspi3.Init.Direction = SPI_DIRECTION_2LINES;
 8001082:	4b14      	ldr	r3, [pc, #80]	; (80010d4 <MX_SPI3_Init+0x64>)
 8001084:	2200      	movs	r2, #0
 8001086:	609a      	str	r2, [r3, #8]
  hspi3.Init.DataSize = SPI_DATASIZE_8BIT;
 8001088:	4b12      	ldr	r3, [pc, #72]	; (80010d4 <MX_SPI3_Init+0x64>)
 800108a:	2200      	movs	r2, #0
 800108c:	60da      	str	r2, [r3, #12]
  hspi3.Init.CLKPolarity = SPI_POLARITY_LOW;
 800108e:	4b11      	ldr	r3, [pc, #68]	; (80010d4 <MX_SPI3_Init+0x64>)
 8001090:	2200      	movs	r2, #0
 8001092:	611a      	str	r2, [r3, #16]
  hspi3.Init.CLKPhase = SPI_PHASE_1EDGE;
 8001094:	4b0f      	ldr	r3, [pc, #60]	; (80010d4 <MX_SPI3_Init+0x64>)
 8001096:	2200      	movs	r2, #0
 8001098:	615a      	str	r2, [r3, #20]
  hspi3.Init.NSS = SPI_NSS_SOFT;
 800109a:	4b0e      	ldr	r3, [pc, #56]	; (80010d4 <MX_SPI3_Init+0x64>)
 800109c:	f44f 7200 	mov.w	r2, #512	; 0x200
 80010a0:	619a      	str	r2, [r3, #24]
  hspi3.Init.BaudRatePrescaler = SPI_BAUDRATEPRESCALER_2;
 80010a2:	4b0c      	ldr	r3, [pc, #48]	; (80010d4 <MX_SPI3_Init+0x64>)
 80010a4:	2200      	movs	r2, #0
 80010a6:	61da      	str	r2, [r3, #28]
  hspi3.Init.FirstBit = SPI_FIRSTBIT_MSB;
 80010a8:	4b0a      	ldr	r3, [pc, #40]	; (80010d4 <MX_SPI3_Init+0x64>)
 80010aa:	2200      	movs	r2, #0
 80010ac:	621a      	str	r2, [r3, #32]
  hspi3.Init.TIMode = SPI_TIMODE_DISABLE;
 80010ae:	4b09      	ldr	r3, [pc, #36]	; (80010d4 <MX_SPI3_Init+0x64>)
 80010b0:	2200      	movs	r2, #0
 80010b2:	625a      	str	r2, [r3, #36]	; 0x24
  hspi3.Init.CRCCalculation = SPI_CRCCALCULATION_DISABLE;
 80010b4:	4b07      	ldr	r3, [pc, #28]	; (80010d4 <MX_SPI3_Init+0x64>)
 80010b6:	2200      	movs	r2, #0
 80010b8:	629a      	str	r2, [r3, #40]	; 0x28
  hspi3.Init.CRCPolynomial = 10;
 80010ba:	4b06      	ldr	r3, [pc, #24]	; (80010d4 <MX_SPI3_Init+0x64>)
 80010bc:	220a      	movs	r2, #10
 80010be:	62da      	str	r2, [r3, #44]	; 0x2c
  if (HAL_SPI_Init(&hspi3) != HAL_OK)
 80010c0:	4804      	ldr	r0, [pc, #16]	; (80010d4 <MX_SPI3_Init+0x64>)
 80010c2:	f003 f9b9 	bl	8004438 <HAL_SPI_Init>
 80010c6:	4603      	mov	r3, r0
 80010c8:	2b00      	cmp	r3, #0
 80010ca:	d001      	beq.n	80010d0 <MX_SPI3_Init+0x60>
  {
    Error_Handler();
 80010cc:	f000 fb24 	bl	8001718 <Error_Handler>
  }
  /* USER CODE BEGIN SPI3_Init 2 */

  /* USER CODE END SPI3_Init 2 */

}
 80010d0:	bf00      	nop
 80010d2:	bd80      	pop	{r7, pc}
 80010d4:	20005604 	.word	0x20005604
 80010d8:	40003c00 	.word	0x40003c00

080010dc <MX_TIM2_Init>:
  * @brief TIM2 Initialization Function
  * @param None
  * @retval None
  */
static void MX_TIM2_Init(void)
{
 80010dc:	b580      	push	{r7, lr}
 80010de:	b08e      	sub	sp, #56	; 0x38
 80010e0:	af00      	add	r7, sp, #0

  /* USER CODE BEGIN TIM2_Init 0 */

  /* USER CODE END TIM2_Init 0 */

  TIM_ClockConfigTypeDef sClockSourceConfig = {0};
 80010e2:	f107 0328 	add.w	r3, r7, #40	; 0x28
 80010e6:	2200      	movs	r2, #0
 80010e8:	601a      	str	r2, [r3, #0]
 80010ea:	605a      	str	r2, [r3, #4]
 80010ec:	609a      	str	r2, [r3, #8]
 80010ee:	60da      	str	r2, [r3, #12]
  TIM_MasterConfigTypeDef sMasterConfig = {0};
 80010f0:	f107 0320 	add.w	r3, r7, #32
 80010f4:	2200      	movs	r2, #0
 80010f6:	601a      	str	r2, [r3, #0]
 80010f8:	605a      	str	r2, [r3, #4]
  TIM_OC_InitTypeDef sConfigOC = {0};
 80010fa:	1d3b      	adds	r3, r7, #4
 80010fc:	2200      	movs	r2, #0
 80010fe:	601a      	str	r2, [r3, #0]
 8001100:	605a      	str	r2, [r3, #4]
 8001102:	609a      	str	r2, [r3, #8]
 8001104:	60da      	str	r2, [r3, #12]
 8001106:	611a      	str	r2, [r3, #16]
 8001108:	615a      	str	r2, [r3, #20]
 800110a:	619a      	str	r2, [r3, #24]

  /* USER CODE BEGIN TIM2_Init 1 */

  /* USER CODE END TIM2_Init 1 */
  htim2.Instance = TIM2;
 800110c:	4b3a      	ldr	r3, [pc, #232]	; (80011f8 <MX_TIM2_Init+0x11c>)
 800110e:	f04f 4280 	mov.w	r2, #1073741824	; 0x40000000
 8001112:	601a      	str	r2, [r3, #0]
  htim2.Init.Prescaler = 1600-1;
 8001114:	4b38      	ldr	r3, [pc, #224]	; (80011f8 <MX_TIM2_Init+0x11c>)
 8001116:	f240 623f 	movw	r2, #1599	; 0x63f
 800111a:	605a      	str	r2, [r3, #4]
  htim2.Init.CounterMode = TIM_COUNTERMODE_UP;
 800111c:	4b36      	ldr	r3, [pc, #216]	; (80011f8 <MX_TIM2_Init+0x11c>)
 800111e:	2200      	movs	r2, #0
 8001120:	609a      	str	r2, [r3, #8]
  htim2.Init.Period = 100-1;
 8001122:	4b35      	ldr	r3, [pc, #212]	; (80011f8 <MX_TIM2_Init+0x11c>)
 8001124:	2263      	movs	r2, #99	; 0x63
 8001126:	60da      	str	r2, [r3, #12]
  htim2.Init.ClockDivision = TIM_CLOCKDIVISION_DIV1;
 8001128:	4b33      	ldr	r3, [pc, #204]	; (80011f8 <MX_TIM2_Init+0x11c>)
 800112a:	2200      	movs	r2, #0
 800112c:	611a      	str	r2, [r3, #16]
  htim2.Init.AutoReloadPreload = TIM_AUTORELOAD_PRELOAD_ENABLE;
 800112e:	4b32      	ldr	r3, [pc, #200]	; (80011f8 <MX_TIM2_Init+0x11c>)
 8001130:	2280      	movs	r2, #128	; 0x80
 8001132:	619a      	str	r2, [r3, #24]
  if (HAL_TIM_Base_Init(&htim2) != HAL_OK)
 8001134:	4830      	ldr	r0, [pc, #192]	; (80011f8 <MX_TIM2_Init+0x11c>)
 8001136:	f003 f9e3 	bl	8004500 <HAL_TIM_Base_Init>
 800113a:	4603      	mov	r3, r0
 800113c:	2b00      	cmp	r3, #0
 800113e:	d001      	beq.n	8001144 <MX_TIM2_Init+0x68>
  {
    Error_Handler();
 8001140:	f000 faea 	bl	8001718 <Error_Handler>
  }
  sClockSourceConfig.ClockSource = TIM_CLOCKSOURCE_INTERNAL;
 8001144:	f44f 5380 	mov.w	r3, #4096	; 0x1000
 8001148:	62bb      	str	r3, [r7, #40]	; 0x28
  if (HAL_TIM_ConfigClockSource(&htim2, &sClockSourceConfig) != HAL_OK)
 800114a:	f107 0328 	add.w	r3, r7, #40	; 0x28
 800114e:	4619      	mov	r1, r3
 8001150:	4829      	ldr	r0, [pc, #164]	; (80011f8 <MX_TIM2_Init+0x11c>)
 8001152:	f003 fcb3 	bl	8004abc <HAL_TIM_ConfigClockSource>
 8001156:	4603      	mov	r3, r0
 8001158:	2b00      	cmp	r3, #0
 800115a:	d001      	beq.n	8001160 <MX_TIM2_Init+0x84>
  {
    Error_Handler();
 800115c:	f000 fadc 	bl	8001718 <Error_Handler>
  }
  if (HAL_TIM_PWM_Init(&htim2) != HAL_OK)
 8001160:	4825      	ldr	r0, [pc, #148]	; (80011f8 <MX_TIM2_Init+0x11c>)
 8001162:	f003 fa1c 	bl	800459e <HAL_TIM_PWM_Init>
 8001166:	4603      	mov	r3, r0
 8001168:	2b00      	cmp	r3, #0
 800116a:	d001      	beq.n	8001170 <MX_TIM2_Init+0x94>
  {
    Error_Handler();
 800116c:	f000 fad4 	bl	8001718 <Error_Handler>
  }
  sMasterConfig.MasterOutputTrigger = TIM_TRGO_RESET;
 8001170:	2300      	movs	r3, #0
 8001172:	623b      	str	r3, [r7, #32]
  sMasterConfig.MasterSlaveMode = TIM_MASTERSLAVEMODE_DISABLE;
 8001174:	2300      	movs	r3, #0
 8001176:	627b      	str	r3, [r7, #36]	; 0x24
  if (HAL_TIMEx_MasterConfigSynchronization(&htim2, &sMasterConfig) != HAL_OK)
 8001178:	f107 0320 	add.w	r3, r7, #32
 800117c:	4619      	mov	r1, r3
 800117e:	481e      	ldr	r0, [pc, #120]	; (80011f8 <MX_TIM2_Init+0x11c>)
 8001180:	f004 f88c 	bl	800529c <HAL_TIMEx_MasterConfigSynchronization>
 8001184:	4603      	mov	r3, r0
 8001186:	2b00      	cmp	r3, #0
 8001188:	d001      	beq.n	800118e <MX_TIM2_Init+0xb2>
  {
    Error_Handler();
 800118a:	f000 fac5 	bl	8001718 <Error_Handler>
  }
  sConfigOC.OCMode = TIM_OCMODE_PWM1;
 800118e:	2360      	movs	r3, #96	; 0x60
 8001190:	607b      	str	r3, [r7, #4]
  sConfigOC.Pulse = 50-1;
 8001192:	2331      	movs	r3, #49	; 0x31
 8001194:	60bb      	str	r3, [r7, #8]
  sConfigOC.OCPolarity = TIM_OCPOLARITY_HIGH;
 8001196:	2300      	movs	r3, #0
 8001198:	60fb      	str	r3, [r7, #12]
  sConfigOC.OCFastMode = TIM_OCFAST_DISABLE;
 800119a:	2300      	movs	r3, #0
 800119c:	617b      	str	r3, [r7, #20]
  if (HAL_TIM_PWM_ConfigChannel(&htim2, &sConfigOC, TIM_CHANNEL_1) != HAL_OK)
 800119e:	1d3b      	adds	r3, r7, #4
 80011a0:	2200      	movs	r2, #0
 80011a2:	4619      	mov	r1, r3
 80011a4:	4814      	ldr	r0, [pc, #80]	; (80011f8 <MX_TIM2_Init+0x11c>)
 80011a6:	f003 fbc3 	bl	8004930 <HAL_TIM_PWM_ConfigChannel>
 80011aa:	4603      	mov	r3, r0
 80011ac:	2b00      	cmp	r3, #0
 80011ae:	d001      	beq.n	80011b4 <MX_TIM2_Init+0xd8>
  {
    Error_Handler();
 80011b0:	f000 fab2 	bl	8001718 <Error_Handler>
  }
  sConfigOC.Pulse = 25-1;
 80011b4:	2318      	movs	r3, #24
 80011b6:	60bb      	str	r3, [r7, #8]
  if (HAL_TIM_PWM_ConfigChannel(&htim2, &sConfigOC, TIM_CHANNEL_2) != HAL_OK)
 80011b8:	1d3b      	adds	r3, r7, #4
 80011ba:	2204      	movs	r2, #4
 80011bc:	4619      	mov	r1, r3
 80011be:	480e      	ldr	r0, [pc, #56]	; (80011f8 <MX_TIM2_Init+0x11c>)
 80011c0:	f003 fbb6 	bl	8004930 <HAL_TIM_PWM_ConfigChannel>
 80011c4:	4603      	mov	r3, r0
 80011c6:	2b00      	cmp	r3, #0
 80011c8:	d001      	beq.n	80011ce <MX_TIM2_Init+0xf2>
  {
    Error_Handler();
 80011ca:	f000 faa5 	bl	8001718 <Error_Handler>
  }
  sConfigOC.Pulse = 750-1;
 80011ce:	f240 23ed 	movw	r3, #749	; 0x2ed
 80011d2:	60bb      	str	r3, [r7, #8]
  if (HAL_TIM_PWM_ConfigChannel(&htim2, &sConfigOC, TIM_CHANNEL_3) != HAL_OK)
 80011d4:	1d3b      	adds	r3, r7, #4
 80011d6:	2208      	movs	r2, #8
 80011d8:	4619      	mov	r1, r3
 80011da:	4807      	ldr	r0, [pc, #28]	; (80011f8 <MX_TIM2_Init+0x11c>)
 80011dc:	f003 fba8 	bl	8004930 <HAL_TIM_PWM_ConfigChannel>
 80011e0:	4603      	mov	r3, r0
 80011e2:	2b00      	cmp	r3, #0
 80011e4:	d001      	beq.n	80011ea <MX_TIM2_Init+0x10e>
  {
    Error_Handler();
 80011e6:	f000 fa97 	bl	8001718 <Error_Handler>
  }
  /* USER CODE BEGIN TIM2_Init 2 */

  /* USER CODE END TIM2_Init 2 */
  HAL_TIM_MspPostInit(&htim2);
 80011ea:	4803      	ldr	r0, [pc, #12]	; (80011f8 <MX_TIM2_Init+0x11c>)
 80011ec:	f000 fc5c 	bl	8001aa8 <HAL_TIM_MspPostInit>

}
 80011f0:	bf00      	nop
 80011f2:	3738      	adds	r7, #56	; 0x38
 80011f4:	46bd      	mov	sp, r7
 80011f6:	bd80      	pop	{r7, pc}
 80011f8:	200060b4 	.word	0x200060b4

080011fc <MX_TIM3_Init>:
  * @brief TIM3 Initialization Function
  * @param None
  * @retval None
  */
static void MX_TIM3_Init(void)
{
 80011fc:	b580      	push	{r7, lr}
 80011fe:	b08a      	sub	sp, #40	; 0x28
 8001200:	af00      	add	r7, sp, #0

  /* USER CODE BEGIN TIM3_Init 0 */

  /* USER CODE END TIM3_Init 0 */

  TIM_MasterConfigTypeDef sMasterConfig = {0};
 8001202:	f107 0320 	add.w	r3, r7, #32
 8001206:	2200      	movs	r2, #0
 8001208:	601a      	str	r2, [r3, #0]
 800120a:	605a      	str	r2, [r3, #4]
  TIM_OC_InitTypeDef sConfigOC = {0};
 800120c:	1d3b      	adds	r3, r7, #4
 800120e:	2200      	movs	r2, #0
 8001210:	601a      	str	r2, [r3, #0]
 8001212:	605a      	str	r2, [r3, #4]
 8001214:	609a      	str	r2, [r3, #8]
 8001216:	60da      	str	r2, [r3, #12]
 8001218:	611a      	str	r2, [r3, #16]
 800121a:	615a      	str	r2, [r3, #20]
 800121c:	619a      	str	r2, [r3, #24]

  /* USER CODE BEGIN TIM3_Init 1 */

  /* USER CODE END TIM3_Init 1 */
  htim3.Instance = TIM3;
 800121e:	4b22      	ldr	r3, [pc, #136]	; (80012a8 <MX_TIM3_Init+0xac>)
 8001220:	4a22      	ldr	r2, [pc, #136]	; (80012ac <MX_TIM3_Init+0xb0>)
 8001222:	601a      	str	r2, [r3, #0]
  htim3.Init.Prescaler = 1600-1;
 8001224:	4b20      	ldr	r3, [pc, #128]	; (80012a8 <MX_TIM3_Init+0xac>)
 8001226:	f240 623f 	movw	r2, #1599	; 0x63f
 800122a:	605a      	str	r2, [r3, #4]
  htim3.Init.CounterMode = TIM_COUNTERMODE_UP;
 800122c:	4b1e      	ldr	r3, [pc, #120]	; (80012a8 <MX_TIM3_Init+0xac>)
 800122e:	2200      	movs	r2, #0
 8001230:	609a      	str	r2, [r3, #8]
  htim3.Init.Period = 100-1;
 8001232:	4b1d      	ldr	r3, [pc, #116]	; (80012a8 <MX_TIM3_Init+0xac>)
 8001234:	2263      	movs	r2, #99	; 0x63
 8001236:	60da      	str	r2, [r3, #12]
  htim3.Init.ClockDivision = TIM_CLOCKDIVISION_DIV1;
 8001238:	4b1b      	ldr	r3, [pc, #108]	; (80012a8 <MX_TIM3_Init+0xac>)
 800123a:	2200      	movs	r2, #0
 800123c:	611a      	str	r2, [r3, #16]
  htim3.Init.AutoReloadPreload = TIM_AUTORELOAD_PRELOAD_ENABLE;
 800123e:	4b1a      	ldr	r3, [pc, #104]	; (80012a8 <MX_TIM3_Init+0xac>)
 8001240:	2280      	movs	r2, #128	; 0x80
 8001242:	619a      	str	r2, [r3, #24]
  if (HAL_TIM_PWM_Init(&htim3) != HAL_OK)
 8001244:	4818      	ldr	r0, [pc, #96]	; (80012a8 <MX_TIM3_Init+0xac>)
 8001246:	f003 f9aa 	bl	800459e <HAL_TIM_PWM_Init>
 800124a:	4603      	mov	r3, r0
 800124c:	2b00      	cmp	r3, #0
 800124e:	d001      	beq.n	8001254 <MX_TIM3_Init+0x58>
  {
    Error_Handler();
 8001250:	f000 fa62 	bl	8001718 <Error_Handler>
  }
  sMasterConfig.MasterOutputTrigger = TIM_TRGO_RESET;
 8001254:	2300      	movs	r3, #0
 8001256:	623b      	str	r3, [r7, #32]
  sMasterConfig.MasterSlaveMode = TIM_MASTERSLAVEMODE_DISABLE;
 8001258:	2300      	movs	r3, #0
 800125a:	627b      	str	r3, [r7, #36]	; 0x24
  if (HAL_TIMEx_MasterConfigSynchronization(&htim3, &sMasterConfig) != HAL_OK)
 800125c:	f107 0320 	add.w	r3, r7, #32
 8001260:	4619      	mov	r1, r3
 8001262:	4811      	ldr	r0, [pc, #68]	; (80012a8 <MX_TIM3_Init+0xac>)
 8001264:	f004 f81a 	bl	800529c <HAL_TIMEx_MasterConfigSynchronization>
 8001268:	4603      	mov	r3, r0
 800126a:	2b00      	cmp	r3, #0
 800126c:	d001      	beq.n	8001272 <MX_TIM3_Init+0x76>
  {
    Error_Handler();
 800126e:	f000 fa53 	bl	8001718 <Error_Handler>
  }
  sConfigOC.OCMode = TIM_OCMODE_PWM1;
 8001272:	2360      	movs	r3, #96	; 0x60
 8001274:	607b      	str	r3, [r7, #4]
  sConfigOC.Pulse = 50-1;
 8001276:	2331      	movs	r3, #49	; 0x31
 8001278:	60bb      	str	r3, [r7, #8]
  sConfigOC.OCPolarity = TIM_OCPOLARITY_HIGH;
 800127a:	2300      	movs	r3, #0
 800127c:	60fb      	str	r3, [r7, #12]
  sConfigOC.OCFastMode = TIM_OCFAST_DISABLE;
 800127e:	2300      	movs	r3, #0
 8001280:	617b      	str	r3, [r7, #20]
  if (HAL_TIM_PWM_ConfigChannel(&htim3, &sConfigOC, TIM_CHANNEL_3) != HAL_OK)
 8001282:	1d3b      	adds	r3, r7, #4
 8001284:	2208      	movs	r2, #8
 8001286:	4619      	mov	r1, r3
 8001288:	4807      	ldr	r0, [pc, #28]	; (80012a8 <MX_TIM3_Init+0xac>)
 800128a:	f003 fb51 	bl	8004930 <HAL_TIM_PWM_ConfigChannel>
 800128e:	4603      	mov	r3, r0
 8001290:	2b00      	cmp	r3, #0
 8001292:	d001      	beq.n	8001298 <MX_TIM3_Init+0x9c>
  {
    Error_Handler();
 8001294:	f000 fa40 	bl	8001718 <Error_Handler>
  }
  /* USER CODE BEGIN TIM3_Init 2 */

  /* USER CODE END TIM3_Init 2 */
  HAL_TIM_MspPostInit(&htim3);
 8001298:	4803      	ldr	r0, [pc, #12]	; (80012a8 <MX_TIM3_Init+0xac>)
 800129a:	f000 fc05 	bl	8001aa8 <HAL_TIM_MspPostInit>

}
 800129e:	bf00      	nop
 80012a0:	3728      	adds	r7, #40	; 0x28
 80012a2:	46bd      	mov	sp, r7
 80012a4:	bd80      	pop	{r7, pc}
 80012a6:	bf00      	nop
 80012a8:	200055c4 	.word	0x200055c4
 80012ac:	40000400 	.word	0x40000400

080012b0 <MX_USART1_UART_Init>:
  * @brief USART1 Initialization Function
  * @param None
  * @retval None
  */
static void MX_USART1_UART_Init(void)
{
 80012b0:	b580      	push	{r7, lr}
 80012b2:	af00      	add	r7, sp, #0
  /* USER CODE END USART1_Init 0 */

  /* USER CODE BEGIN USART1_Init 1 */

  /* USER CODE END USART1_Init 1 */
  huart1.Instance = USART1;
 80012b4:	4b11      	ldr	r3, [pc, #68]	; (80012fc <MX_USART1_UART_Init+0x4c>)
 80012b6:	4a12      	ldr	r2, [pc, #72]	; (8001300 <MX_USART1_UART_Init+0x50>)
 80012b8:	601a      	str	r2, [r3, #0]
  huart1.Init.BaudRate = 115200;
 80012ba:	4b10      	ldr	r3, [pc, #64]	; (80012fc <MX_USART1_UART_Init+0x4c>)
 80012bc:	f44f 32e1 	mov.w	r2, #115200	; 0x1c200
 80012c0:	605a      	str	r2, [r3, #4]
  huart1.Init.WordLength = UART_WORDLENGTH_8B;
 80012c2:	4b0e      	ldr	r3, [pc, #56]	; (80012fc <MX_USART1_UART_Init+0x4c>)
 80012c4:	2200      	movs	r2, #0
 80012c6:	609a      	str	r2, [r3, #8]
  huart1.Init.StopBits = UART_STOPBITS_1;
 80012c8:	4b0c      	ldr	r3, [pc, #48]	; (80012fc <MX_USART1_UART_Init+0x4c>)
 80012ca:	2200      	movs	r2, #0
 80012cc:	60da      	str	r2, [r3, #12]
  huart1.Init.Parity = UART_PARITY_NONE;
 80012ce:	4b0b      	ldr	r3, [pc, #44]	; (80012fc <MX_USART1_UART_Init+0x4c>)
 80012d0:	2200      	movs	r2, #0
 80012d2:	611a      	str	r2, [r3, #16]
  huart1.Init.Mode = UART_MODE_TX_RX;
 80012d4:	4b09      	ldr	r3, [pc, #36]	; (80012fc <MX_USART1_UART_Init+0x4c>)
 80012d6:	220c      	movs	r2, #12
 80012d8:	615a      	str	r2, [r3, #20]
  huart1.Init.HwFlowCtl = UART_HWCONTROL_NONE;
 80012da:	4b08      	ldr	r3, [pc, #32]	; (80012fc <MX_USART1_UART_Init+0x4c>)
 80012dc:	2200      	movs	r2, #0
 80012de:	619a      	str	r2, [r3, #24]
  huart1.Init.OverSampling = UART_OVERSAMPLING_16;
 80012e0:	4b06      	ldr	r3, [pc, #24]	; (80012fc <MX_USART1_UART_Init+0x4c>)
 80012e2:	2200      	movs	r2, #0
 80012e4:	61da      	str	r2, [r3, #28]
  if (HAL_UART_Init(&huart1) != HAL_OK)
 80012e6:	4805      	ldr	r0, [pc, #20]	; (80012fc <MX_USART1_UART_Init+0x4c>)
 80012e8:	f004 f868 	bl	80053bc <HAL_UART_Init>
 80012ec:	4603      	mov	r3, r0
 80012ee:	2b00      	cmp	r3, #0
 80012f0:	d001      	beq.n	80012f6 <MX_USART1_UART_Init+0x46>
  {
    Error_Handler();
 80012f2:	f000 fa11 	bl	8001718 <Error_Handler>
  }
  /* USER CODE BEGIN USART1_Init 2 */

  /* USER CODE END USART1_Init 2 */

}
 80012f6:	bf00      	nop
 80012f8:	bd80      	pop	{r7, pc}
 80012fa:	bf00      	nop
 80012fc:	200057c4 	.word	0x200057c4
 8001300:	40011000 	.word	0x40011000

08001304 <MX_USART2_UART_Init>:
  * @brief USART2 Initialization Function
  * @param None
  * @retval None
  */
static void MX_USART2_UART_Init(void)
{
 8001304:	b580      	push	{r7, lr}
 8001306:	af00      	add	r7, sp, #0
  /* USER CODE END USART2_Init 0 */

  /* USER CODE BEGIN USART2_Init 1 */

  /* USER CODE END USART2_Init 1 */
  huart2.Instance = USART2;
 8001308:	4b11      	ldr	r3, [pc, #68]	; (8001350 <MX_USART2_UART_Init+0x4c>)
 800130a:	4a12      	ldr	r2, [pc, #72]	; (8001354 <MX_USART2_UART_Init+0x50>)
 800130c:	601a      	str	r2, [r3, #0]
  huart2.Init.BaudRate = 115200;
 800130e:	4b10      	ldr	r3, [pc, #64]	; (8001350 <MX_USART2_UART_Init+0x4c>)
 8001310:	f44f 32e1 	mov.w	r2, #115200	; 0x1c200
 8001314:	605a      	str	r2, [r3, #4]
  huart2.Init.WordLength = UART_WORDLENGTH_8B;
 8001316:	4b0e      	ldr	r3, [pc, #56]	; (8001350 <MX_USART2_UART_Init+0x4c>)
 8001318:	2200      	movs	r2, #0
 800131a:	609a      	str	r2, [r3, #8]
  huart2.Init.StopBits = UART_STOPBITS_1;
 800131c:	4b0c      	ldr	r3, [pc, #48]	; (8001350 <MX_USART2_UART_Init+0x4c>)
 800131e:	2200      	movs	r2, #0
 8001320:	60da      	str	r2, [r3, #12]
  huart2.Init.Parity = UART_PARITY_NONE;
 8001322:	4b0b      	ldr	r3, [pc, #44]	; (8001350 <MX_USART2_UART_Init+0x4c>)
 8001324:	2200      	movs	r2, #0
 8001326:	611a      	str	r2, [r3, #16]
  huart2.Init.Mode = UART_MODE_TX_RX;
 8001328:	4b09      	ldr	r3, [pc, #36]	; (8001350 <MX_USART2_UART_Init+0x4c>)
 800132a:	220c      	movs	r2, #12
 800132c:	615a      	str	r2, [r3, #20]
  huart2.Init.HwFlowCtl = UART_HWCONTROL_NONE;
 800132e:	4b08      	ldr	r3, [pc, #32]	; (8001350 <MX_USART2_UART_Init+0x4c>)
 8001330:	2200      	movs	r2, #0
 8001332:	619a      	str	r2, [r3, #24]
  huart2.Init.OverSampling = UART_OVERSAMPLING_16;
 8001334:	4b06      	ldr	r3, [pc, #24]	; (8001350 <MX_USART2_UART_Init+0x4c>)
 8001336:	2200      	movs	r2, #0
 8001338:	61da      	str	r2, [r3, #28]
  if (HAL_UART_Init(&huart2) != HAL_OK)
 800133a:	4805      	ldr	r0, [pc, #20]	; (8001350 <MX_USART2_UART_Init+0x4c>)
 800133c:	f004 f83e 	bl	80053bc <HAL_UART_Init>
 8001340:	4603      	mov	r3, r0
 8001342:	2b00      	cmp	r3, #0
 8001344:	d001      	beq.n	800134a <MX_USART2_UART_Init+0x46>
  {
    Error_Handler();
 8001346:	f000 f9e7 	bl	8001718 <Error_Handler>
  }
  /* USER CODE BEGIN USART2_Init 2 */

  /* USER CODE END USART2_Init 2 */

}
 800134a:	bf00      	nop
 800134c:	bd80      	pop	{r7, pc}
 800134e:	bf00      	nop
 8001350:	20006100 	.word	0x20006100
 8001354:	40004400 	.word	0x40004400

08001358 <MX_USART3_UART_Init>:
  * @brief USART3 Initialization Function
  * @param None
  * @retval None
  */
static void MX_USART3_UART_Init(void)
{
 8001358:	b580      	push	{r7, lr}
 800135a:	af00      	add	r7, sp, #0
  /* USER CODE END USART3_Init 0 */

  /* USER CODE BEGIN USART3_Init 1 */

  /* USER CODE END USART3_Init 1 */
  huart3.Instance = USART3;
 800135c:	4b11      	ldr	r3, [pc, #68]	; (80013a4 <MX_USART3_UART_Init+0x4c>)
 800135e:	4a12      	ldr	r2, [pc, #72]	; (80013a8 <MX_USART3_UART_Init+0x50>)
 8001360:	601a      	str	r2, [r3, #0]
  huart3.Init.BaudRate = 115200;
 8001362:	4b10      	ldr	r3, [pc, #64]	; (80013a4 <MX_USART3_UART_Init+0x4c>)
 8001364:	f44f 32e1 	mov.w	r2, #115200	; 0x1c200
 8001368:	605a      	str	r2, [r3, #4]
  huart3.Init.WordLength = UART_WORDLENGTH_8B;
 800136a:	4b0e      	ldr	r3, [pc, #56]	; (80013a4 <MX_USART3_UART_Init+0x4c>)
 800136c:	2200      	movs	r2, #0
 800136e:	609a      	str	r2, [r3, #8]
  huart3.Init.StopBits = UART_STOPBITS_1;
 8001370:	4b0c      	ldr	r3, [pc, #48]	; (80013a4 <MX_USART3_UART_Init+0x4c>)
 8001372:	2200      	movs	r2, #0
 8001374:	60da      	str	r2, [r3, #12]
  huart3.Init.Parity = UART_PARITY_NONE;
 8001376:	4b0b      	ldr	r3, [pc, #44]	; (80013a4 <MX_USART3_UART_Init+0x4c>)
 8001378:	2200      	movs	r2, #0
 800137a:	611a      	str	r2, [r3, #16]
  huart3.Init.Mode = UART_MODE_TX_RX;
 800137c:	4b09      	ldr	r3, [pc, #36]	; (80013a4 <MX_USART3_UART_Init+0x4c>)
 800137e:	220c      	movs	r2, #12
 8001380:	615a      	str	r2, [r3, #20]
  huart3.Init.HwFlowCtl = UART_HWCONTROL_NONE;
 8001382:	4b08      	ldr	r3, [pc, #32]	; (80013a4 <MX_USART3_UART_Init+0x4c>)
 8001384:	2200      	movs	r2, #0
 8001386:	619a      	str	r2, [r3, #24]
  huart3.Init.OverSampling = UART_OVERSAMPLING_16;
 8001388:	4b06      	ldr	r3, [pc, #24]	; (80013a4 <MX_USART3_UART_Init+0x4c>)
 800138a:	2200      	movs	r2, #0
 800138c:	61da      	str	r2, [r3, #28]
  if (HAL_UART_Init(&huart3) != HAL_OK)
 800138e:	4805      	ldr	r0, [pc, #20]	; (80013a4 <MX_USART3_UART_Init+0x4c>)
 8001390:	f004 f814 	bl	80053bc <HAL_UART_Init>
 8001394:	4603      	mov	r3, r0
 8001396:	2b00      	cmp	r3, #0
 8001398:	d001      	beq.n	800139e <MX_USART3_UART_Init+0x46>
  {
    Error_Handler();
 800139a:	f000 f9bd 	bl	8001718 <Error_Handler>
  }
  /* USER CODE BEGIN USART3_Init 2 */

  /* USER CODE END USART3_Init 2 */

}
 800139e:	bf00      	nop
 80013a0:	bd80      	pop	{r7, pc}
 80013a2:	bf00      	nop
 80013a4:	20004ffc 	.word	0x20004ffc
 80013a8:	40004800 	.word	0x40004800

080013ac <MX_USART6_UART_Init>:
  * @brief USART6 Initialization Function
  * @param None
  * @retval None
  */
static void MX_USART6_UART_Init(void)
{
 80013ac:	b580      	push	{r7, lr}
 80013ae:	af00      	add	r7, sp, #0
  /* USER CODE END USART6_Init 0 */

  /* USER CODE BEGIN USART6_Init 1 */

  /* USER CODE END USART6_Init 1 */
  huart6.Instance = USART6;
 80013b0:	4b11      	ldr	r3, [pc, #68]	; (80013f8 <MX_USART6_UART_Init+0x4c>)
 80013b2:	4a12      	ldr	r2, [pc, #72]	; (80013fc <MX_USART6_UART_Init+0x50>)
 80013b4:	601a      	str	r2, [r3, #0]
  huart6.Init.BaudRate = 115200;
 80013b6:	4b10      	ldr	r3, [pc, #64]	; (80013f8 <MX_USART6_UART_Init+0x4c>)
 80013b8:	f44f 32e1 	mov.w	r2, #115200	; 0x1c200
 80013bc:	605a      	str	r2, [r3, #4]
  huart6.Init.WordLength = UART_WORDLENGTH_8B;
 80013be:	4b0e      	ldr	r3, [pc, #56]	; (80013f8 <MX_USART6_UART_Init+0x4c>)
 80013c0:	2200      	movs	r2, #0
 80013c2:	609a      	str	r2, [r3, #8]
  huart6.Init.StopBits = UART_STOPBITS_1;
 80013c4:	4b0c      	ldr	r3, [pc, #48]	; (80013f8 <MX_USART6_UART_Init+0x4c>)
 80013c6:	2200      	movs	r2, #0
 80013c8:	60da      	str	r2, [r3, #12]
  huart6.Init.Parity = UART_PARITY_NONE;
 80013ca:	4b0b      	ldr	r3, [pc, #44]	; (80013f8 <MX_USART6_UART_Init+0x4c>)
 80013cc:	2200      	movs	r2, #0
 80013ce:	611a      	str	r2, [r3, #16]
  huart6.Init.Mode = UART_MODE_TX_RX;
 80013d0:	4b09      	ldr	r3, [pc, #36]	; (80013f8 <MX_USART6_UART_Init+0x4c>)
 80013d2:	220c      	movs	r2, #12
 80013d4:	615a      	str	r2, [r3, #20]
  huart6.Init.HwFlowCtl = UART_HWCONTROL_NONE;
 80013d6:	4b08      	ldr	r3, [pc, #32]	; (80013f8 <MX_USART6_UART_Init+0x4c>)
 80013d8:	2200      	movs	r2, #0
 80013da:	619a      	str	r2, [r3, #24]
  huart6.Init.OverSampling = UART_OVERSAMPLING_16;
 80013dc:	4b06      	ldr	r3, [pc, #24]	; (80013f8 <MX_USART6_UART_Init+0x4c>)
 80013de:	2200      	movs	r2, #0
 80013e0:	61da      	str	r2, [r3, #28]
  if (HAL_UART_Init(&huart6) != HAL_OK)
 80013e2:	4805      	ldr	r0, [pc, #20]	; (80013f8 <MX_USART6_UART_Init+0x4c>)
 80013e4:	f003 ffea 	bl	80053bc <HAL_UART_Init>
 80013e8:	4603      	mov	r3, r0
 80013ea:	2b00      	cmp	r3, #0
 80013ec:	d001      	beq.n	80013f2 <MX_USART6_UART_Init+0x46>
  {
    Error_Handler();
 80013ee:	f000 f993 	bl	8001718 <Error_Handler>
  }
  /* USER CODE BEGIN USART6_Init 2 */

  /* USER CODE END USART6_Init 2 */

}
 80013f2:	bf00      	nop
 80013f4:	bd80      	pop	{r7, pc}
 80013f6:	bf00      	nop
 80013f8:	20005da8 	.word	0x20005da8
 80013fc:	40011400 	.word	0x40011400

08001400 <MX_USB_OTG_FS_PCD_Init>:
  * @brief USB_OTG_FS Initialization Function
  * @param None
  * @retval None
  */
static void MX_USB_OTG_FS_PCD_Init(void)
{
 8001400:	b580      	push	{r7, lr}
 8001402:	af00      	add	r7, sp, #0
  /* USER CODE END USB_OTG_FS_Init 0 */

  /* USER CODE BEGIN USB_OTG_FS_Init 1 */

  /* USER CODE END USB_OTG_FS_Init 1 */
  hpcd_USB_OTG_FS.Instance = USB_OTG_FS;
 8001404:	4b14      	ldr	r3, [pc, #80]	; (8001458 <MX_USB_OTG_FS_PCD_Init+0x58>)
 8001406:	f04f 42a0 	mov.w	r2, #1342177280	; 0x50000000
 800140a:	601a      	str	r2, [r3, #0]
  hpcd_USB_OTG_FS.Init.dev_endpoints = 4;
 800140c:	4b12      	ldr	r3, [pc, #72]	; (8001458 <MX_USB_OTG_FS_PCD_Init+0x58>)
 800140e:	2204      	movs	r2, #4
 8001410:	605a      	str	r2, [r3, #4]
  hpcd_USB_OTG_FS.Init.speed = PCD_SPEED_FULL;
 8001412:	4b11      	ldr	r3, [pc, #68]	; (8001458 <MX_USB_OTG_FS_PCD_Init+0x58>)
 8001414:	2202      	movs	r2, #2
 8001416:	60da      	str	r2, [r3, #12]
  hpcd_USB_OTG_FS.Init.dma_enable = DISABLE;
 8001418:	4b0f      	ldr	r3, [pc, #60]	; (8001458 <MX_USB_OTG_FS_PCD_Init+0x58>)
 800141a:	2200      	movs	r2, #0
 800141c:	611a      	str	r2, [r3, #16]
  hpcd_USB_OTG_FS.Init.phy_itface = PCD_PHY_EMBEDDED;
 800141e:	4b0e      	ldr	r3, [pc, #56]	; (8001458 <MX_USB_OTG_FS_PCD_Init+0x58>)
 8001420:	2202      	movs	r2, #2
 8001422:	619a      	str	r2, [r3, #24]
  hpcd_USB_OTG_FS.Init.Sof_enable = DISABLE;
 8001424:	4b0c      	ldr	r3, [pc, #48]	; (8001458 <MX_USB_OTG_FS_PCD_Init+0x58>)
 8001426:	2200      	movs	r2, #0
 8001428:	61da      	str	r2, [r3, #28]
  hpcd_USB_OTG_FS.Init.low_power_enable = DISABLE;
 800142a:	4b0b      	ldr	r3, [pc, #44]	; (8001458 <MX_USB_OTG_FS_PCD_Init+0x58>)
 800142c:	2200      	movs	r2, #0
 800142e:	621a      	str	r2, [r3, #32]
  hpcd_USB_OTG_FS.Init.lpm_enable = DISABLE;
 8001430:	4b09      	ldr	r3, [pc, #36]	; (8001458 <MX_USB_OTG_FS_PCD_Init+0x58>)
 8001432:	2200      	movs	r2, #0
 8001434:	625a      	str	r2, [r3, #36]	; 0x24
  hpcd_USB_OTG_FS.Init.vbus_sensing_enable = ENABLE;
 8001436:	4b08      	ldr	r3, [pc, #32]	; (8001458 <MX_USB_OTG_FS_PCD_Init+0x58>)
 8001438:	2201      	movs	r2, #1
 800143a:	62da      	str	r2, [r3, #44]	; 0x2c
  hpcd_USB_OTG_FS.Init.use_dedicated_ep1 = DISABLE;
 800143c:	4b06      	ldr	r3, [pc, #24]	; (8001458 <MX_USB_OTG_FS_PCD_Init+0x58>)
 800143e:	2200      	movs	r2, #0
 8001440:	631a      	str	r2, [r3, #48]	; 0x30
  if (HAL_PCD_Init(&hpcd_USB_OTG_FS) != HAL_OK)
 8001442:	4805      	ldr	r0, [pc, #20]	; (8001458 <MX_USB_OTG_FS_PCD_Init+0x58>)
 8001444:	f001 fc34 	bl	8002cb0 <HAL_PCD_Init>
 8001448:	4603      	mov	r3, r0
 800144a:	2b00      	cmp	r3, #0
 800144c:	d001      	beq.n	8001452 <MX_USB_OTG_FS_PCD_Init+0x52>
  {
    Error_Handler();
 800144e:	f000 f963 	bl	8001718 <Error_Handler>
  }
  /* USER CODE BEGIN USB_OTG_FS_Init 2 */

  /* USER CODE END USB_OTG_FS_Init 2 */

}
 8001452:	bf00      	nop
 8001454:	bd80      	pop	{r7, pc}
 8001456:	bf00      	nop
 8001458:	200050a8 	.word	0x200050a8

0800145c <MX_GPIO_Init>:
  * @brief GPIO Initialization Function
  * @param None
  * @retval None
  */
static void MX_GPIO_Init(void)
{
 800145c:	b580      	push	{r7, lr}
 800145e:	b08c      	sub	sp, #48	; 0x30
 8001460:	af00      	add	r7, sp, #0
  GPIO_InitTypeDef GPIO_InitStruct = {0};
 8001462:	f107 031c 	add.w	r3, r7, #28
 8001466:	2200      	movs	r2, #0
 8001468:	601a      	str	r2, [r3, #0]
 800146a:	605a      	str	r2, [r3, #4]
 800146c:	609a      	str	r2, [r3, #8]
 800146e:	60da      	str	r2, [r3, #12]
 8001470:	611a      	str	r2, [r3, #16]

  /* GPIO Ports Clock Enable */
  __HAL_RCC_GPIOE_CLK_ENABLE();
 8001472:	2300      	movs	r3, #0
 8001474:	61bb      	str	r3, [r7, #24]
 8001476:	4b6e      	ldr	r3, [pc, #440]	; (8001630 <MX_GPIO_Init+0x1d4>)
 8001478:	6b1b      	ldr	r3, [r3, #48]	; 0x30
 800147a:	4a6d      	ldr	r2, [pc, #436]	; (8001630 <MX_GPIO_Init+0x1d4>)
 800147c:	f043 0310 	orr.w	r3, r3, #16
 8001480:	6313      	str	r3, [r2, #48]	; 0x30
 8001482:	4b6b      	ldr	r3, [pc, #428]	; (8001630 <MX_GPIO_Init+0x1d4>)
 8001484:	6b1b      	ldr	r3, [r3, #48]	; 0x30
 8001486:	f003 0310 	and.w	r3, r3, #16
 800148a:	61bb      	str	r3, [r7, #24]
 800148c:	69bb      	ldr	r3, [r7, #24]
  __HAL_RCC_GPIOC_CLK_ENABLE();
 800148e:	2300      	movs	r3, #0
 8001490:	617b      	str	r3, [r7, #20]
 8001492:	4b67      	ldr	r3, [pc, #412]	; (8001630 <MX_GPIO_Init+0x1d4>)
 8001494:	6b1b      	ldr	r3, [r3, #48]	; 0x30
 8001496:	4a66      	ldr	r2, [pc, #408]	; (8001630 <MX_GPIO_Init+0x1d4>)
 8001498:	f043 0304 	orr.w	r3, r3, #4
 800149c:	6313      	str	r3, [r2, #48]	; 0x30
 800149e:	4b64      	ldr	r3, [pc, #400]	; (8001630 <MX_GPIO_Init+0x1d4>)
 80014a0:	6b1b      	ldr	r3, [r3, #48]	; 0x30
 80014a2:	f003 0304 	and.w	r3, r3, #4
 80014a6:	617b      	str	r3, [r7, #20]
 80014a8:	697b      	ldr	r3, [r7, #20]
  __HAL_RCC_GPIOH_CLK_ENABLE();
 80014aa:	2300      	movs	r3, #0
 80014ac:	613b      	str	r3, [r7, #16]
 80014ae:	4b60      	ldr	r3, [pc, #384]	; (8001630 <MX_GPIO_Init+0x1d4>)
 80014b0:	6b1b      	ldr	r3, [r3, #48]	; 0x30
 80014b2:	4a5f      	ldr	r2, [pc, #380]	; (8001630 <MX_GPIO_Init+0x1d4>)
 80014b4:	f043 0380 	orr.w	r3, r3, #128	; 0x80
 80014b8:	6313      	str	r3, [r2, #48]	; 0x30
 80014ba:	4b5d      	ldr	r3, [pc, #372]	; (8001630 <MX_GPIO_Init+0x1d4>)
 80014bc:	6b1b      	ldr	r3, [r3, #48]	; 0x30
 80014be:	f003 0380 	and.w	r3, r3, #128	; 0x80
 80014c2:	613b      	str	r3, [r7, #16]
 80014c4:	693b      	ldr	r3, [r7, #16]
  __HAL_RCC_GPIOA_CLK_ENABLE();
 80014c6:	2300      	movs	r3, #0
 80014c8:	60fb      	str	r3, [r7, #12]
 80014ca:	4b59      	ldr	r3, [pc, #356]	; (8001630 <MX_GPIO_Init+0x1d4>)
 80014cc:	6b1b      	ldr	r3, [r3, #48]	; 0x30
 80014ce:	4a58      	ldr	r2, [pc, #352]	; (8001630 <MX_GPIO_Init+0x1d4>)
 80014d0:	f043 0301 	orr.w	r3, r3, #1
 80014d4:	6313      	str	r3, [r2, #48]	; 0x30
 80014d6:	4b56      	ldr	r3, [pc, #344]	; (8001630 <MX_GPIO_Init+0x1d4>)
 80014d8:	6b1b      	ldr	r3, [r3, #48]	; 0x30
 80014da:	f003 0301 	and.w	r3, r3, #1
 80014de:	60fb      	str	r3, [r7, #12]
 80014e0:	68fb      	ldr	r3, [r7, #12]
  __HAL_RCC_GPIOB_CLK_ENABLE();
 80014e2:	2300      	movs	r3, #0
 80014e4:	60bb      	str	r3, [r7, #8]
 80014e6:	4b52      	ldr	r3, [pc, #328]	; (8001630 <MX_GPIO_Init+0x1d4>)
 80014e8:	6b1b      	ldr	r3, [r3, #48]	; 0x30
 80014ea:	4a51      	ldr	r2, [pc, #324]	; (8001630 <MX_GPIO_Init+0x1d4>)
 80014ec:	f043 0302 	orr.w	r3, r3, #2
 80014f0:	6313      	str	r3, [r2, #48]	; 0x30
 80014f2:	4b4f      	ldr	r3, [pc, #316]	; (8001630 <MX_GPIO_Init+0x1d4>)
 80014f4:	6b1b      	ldr	r3, [r3, #48]	; 0x30
 80014f6:	f003 0302 	and.w	r3, r3, #2
 80014fa:	60bb      	str	r3, [r7, #8]
 80014fc:	68bb      	ldr	r3, [r7, #8]
  __HAL_RCC_GPIOD_CLK_ENABLE();
 80014fe:	2300      	movs	r3, #0
 8001500:	607b      	str	r3, [r7, #4]
 8001502:	4b4b      	ldr	r3, [pc, #300]	; (8001630 <MX_GPIO_Init+0x1d4>)
 8001504:	6b1b      	ldr	r3, [r3, #48]	; 0x30
 8001506:	4a4a      	ldr	r2, [pc, #296]	; (8001630 <MX_GPIO_Init+0x1d4>)
 8001508:	f043 0308 	orr.w	r3, r3, #8
 800150c:	6313      	str	r3, [r2, #48]	; 0x30
 800150e:	4b48      	ldr	r3, [pc, #288]	; (8001630 <MX_GPIO_Init+0x1d4>)
 8001510:	6b1b      	ldr	r3, [r3, #48]	; 0x30
 8001512:	f003 0308 	and.w	r3, r3, #8
 8001516:	607b      	str	r3, [r7, #4]
 8001518:	687b      	ldr	r3, [r7, #4]

  /*Configure GPIO pin Output Level */
  HAL_GPIO_WritePin(GPIOE, GPS_PWR_ON_Pin|SBD_PWR_ON_Pin|CS_NAND_Pin|CS_LORA_Pin
 800151a:	2200      	movs	r2, #0
 800151c:	f64f 71ff 	movw	r1, #65535	; 0xffff
 8001520:	4844      	ldr	r0, [pc, #272]	; (8001634 <MX_GPIO_Init+0x1d8>)
 8001522:	f001 fa73 	bl	8002a0c <HAL_GPIO_WritePin>
                          |RSBY_ON_Pin|DIR_X_COIL_Pin|DIR_Y_COIL_Pin|DIR_Z_COIL_Pin
                          |CS_GYRO_Pin|EN_ADC1_Pin|EN_ADC3_Pin|EN_ADC2_Pin
                          |SBD_SER_RI_Pin|SBD_SER_NET_Pin|ANA_PWR_ON_Pin|RAD_PWR_ON_Pin, GPIO_PIN_RESET);

  /*Configure GPIO pin Output Level */
  HAL_GPIO_WritePin(GPIOC, UHF_RESET_Pin|RADFET_OWB_Pin|RAD_RESET_Pin|PSD1_SEL0_Pin
 8001526:	2200      	movs	r2, #0
 8001528:	f24e 213e 	movw	r1, #57918	; 0xe23e
 800152c:	4842      	ldr	r0, [pc, #264]	; (8001638 <MX_GPIO_Init+0x1dc>)
 800152e:	f001 fa6d 	bl	8002a0c <HAL_GPIO_WritePin>
                          |PSD2_SEL1_Pin|PSD2_SEL0_Pin|CS_PSD1_AMP_Pin|CS_PSD2_AMP_Pin
                          |EX_SPI_EN_Pin, GPIO_PIN_RESET);

  /*Configure GPIO pin Output Level */
  HAL_GPIO_WritePin(PSD1_SEL1_GPIO_Port, PSD1_SEL1_Pin, GPIO_PIN_RESET);
 8001532:	2200      	movs	r2, #0
 8001534:	2101      	movs	r1, #1
 8001536:	4840      	ldr	r0, [pc, #256]	; (8001638 <MX_GPIO_Init+0x1dc>)
 8001538:	f001 fa68 	bl	8002a0c <HAL_GPIO_WritePin>

  /*Configure GPIO pin Output Level */
  HAL_GPIO_WritePin(GPIOA, EX_GPIO3_Pin|CS_RADFET_Pin|EX_GPIO4_Pin, GPIO_PIN_RESET);
 800153c:	2200      	movs	r2, #0
 800153e:	f44f 6183 	mov.w	r1, #1048	; 0x418
 8001542:	483e      	ldr	r0, [pc, #248]	; (800163c <MX_GPIO_Init+0x1e0>)
 8001544:	f001 fa62 	bl	8002a0c <HAL_GPIO_WritePin>

  /*Configure GPIO pin Output Level */
  HAL_GPIO_WritePin(GPIOB, RSBY_KEEP_EN_Pin|EX_GPIO1_Pin|EX_GPIO2_Pin|WATCHDOG_Pin, GPIO_PIN_RESET);
 8001548:	2200      	movs	r2, #0
 800154a:	f241 0123 	movw	r1, #4131	; 0x1023
 800154e:	483c      	ldr	r0, [pc, #240]	; (8001640 <MX_GPIO_Init+0x1e4>)
 8001550:	f001 fa5c 	bl	8002a0c <HAL_GPIO_WritePin>

  /*Configure GPIO pin Output Level */
  HAL_GPIO_WritePin(GPIOD, CS_EEPROM_Pin|CS_FRAM_Pin|INT_GYRO_Pin
 8001554:	2200      	movs	r2, #0
 8001556:	f64e 419f 	movw	r1, #60575	; 0xec9f
 800155a:	483a      	ldr	r0, [pc, #232]	; (8001644 <MX_GPIO_Init+0x1e8>)
 800155c:	f001 fa56 	bl	8002a0c <HAL_GPIO_WritePin>

  /*Configure GPIO pins : GPS_PWR_ON_Pin SBD_PWR_ON_Pin CS_NAND_Pin CS_LORA_Pin
                           RSBY_ON_Pin DIR_COIL_X_Pin DIR_COIL_Y_Pin DIR_COIL_Z_Pin
                           CS_GYRO_Pin EN_ADC1_Pin EN_ADC3_Pin EN_ADC2_Pin
                           SBD_SER_RI_Pin SBD_SER_NET_Pin ANA_PWR_ON_Pin RAD_PWR_ON_Pin */
  GPIO_InitStruct.Pin = GPS_PWR_ON_Pin|SBD_PWR_ON_Pin|CS_NAND_Pin|CS_LORA_Pin
 8001560:	f64f 73ff 	movw	r3, #65535	; 0xffff
 8001564:	61fb      	str	r3, [r7, #28]
                          |RSBY_ON_Pin|DIR_X_COIL_Pin|DIR_Y_COIL_Pin|DIR_Z_COIL_Pin
                          |CS_GYRO_Pin|EN_ADC1_Pin|EN_ADC3_Pin|EN_ADC2_Pin
                          |SBD_SER_RI_Pin|SBD_SER_NET_Pin|ANA_PWR_ON_Pin|RAD_PWR_ON_Pin;
  GPIO_InitStruct.Mode = GPIO_MODE_OUTPUT_PP;
 8001566:	2301      	movs	r3, #1
 8001568:	623b      	str	r3, [r7, #32]
  GPIO_InitStruct.Pull = GPIO_NOPULL;
 800156a:	2300      	movs	r3, #0
 800156c:	627b      	str	r3, [r7, #36]	; 0x24
  GPIO_InitStruct.Speed = GPIO_SPEED_FREQ_LOW;
 800156e:	2300      	movs	r3, #0
 8001570:	62bb      	str	r3, [r7, #40]	; 0x28
  HAL_GPIO_Init(GPIOE, &GPIO_InitStruct);
 8001572:	f107 031c 	add.w	r3, r7, #28
 8001576:	4619      	mov	r1, r3
 8001578:	482e      	ldr	r0, [pc, #184]	; (8001634 <MX_GPIO_Init+0x1d8>)
 800157a:	f001 f8ad 	bl	80026d8 <HAL_GPIO_Init>

  /*Configure GPIO pins : UHF_RESET_Pin RADFET_OWB_Pin RAD_RESET_Pin PSD1_SEL1_Pin
                           PSD1_SEL0_Pin PSD2_SEL1_Pin PSD2_SEL0_Pin PSD1_AMP_CS_Pin
                           PSD2_AMP_CS_Pin EX_SPI_EN_Pin */
  GPIO_InitStruct.Pin = UHF_RESET_Pin|RADFET_OWB_Pin|RAD_RESET_Pin|PSD1_SEL1_Pin
 800157e:	f24e 233f 	movw	r3, #57919	; 0xe23f
 8001582:	61fb      	str	r3, [r7, #28]
                          |PSD1_SEL0_Pin|PSD2_SEL1_Pin|PSD2_SEL0_Pin|CS_PSD1_AMP_Pin
                          |CS_PSD2_AMP_Pin|EX_SPI_EN_Pin;
  GPIO_InitStruct.Mode = GPIO_MODE_OUTPUT_PP;
 8001584:	2301      	movs	r3, #1
 8001586:	623b      	str	r3, [r7, #32]
  GPIO_InitStruct.Pull = GPIO_NOPULL;
 8001588:	2300      	movs	r3, #0
 800158a:	627b      	str	r3, [r7, #36]	; 0x24
  GPIO_InitStruct.Speed = GPIO_SPEED_FREQ_LOW;
 800158c:	2300      	movs	r3, #0
 800158e:	62bb      	str	r3, [r7, #40]	; 0x28
  HAL_GPIO_Init(GPIOC, &GPIO_InitStruct);
 8001590:	f107 031c 	add.w	r3, r7, #28
 8001594:	4619      	mov	r1, r3
 8001596:	4828      	ldr	r0, [pc, #160]	; (8001638 <MX_GPIO_Init+0x1dc>)
 8001598:	f001 f89e 	bl	80026d8 <HAL_GPIO_Init>

  /*Configure GPIO pins : EX_GPIO3_Pin CS_RADFET_Pin EX_GPIO4_Pin */
  GPIO_InitStruct.Pin = EX_GPIO3_Pin|CS_RADFET_Pin|EX_GPIO4_Pin;
 800159c:	f44f 6383 	mov.w	r3, #1048	; 0x418
 80015a0:	61fb      	str	r3, [r7, #28]
  GPIO_InitStruct.Mode = GPIO_MODE_OUTPUT_PP;
 80015a2:	2301      	movs	r3, #1
 80015a4:	623b      	str	r3, [r7, #32]
  GPIO_InitStruct.Pull = GPIO_NOPULL;
 80015a6:	2300      	movs	r3, #0
 80015a8:	627b      	str	r3, [r7, #36]	; 0x24
  GPIO_InitStruct.Speed = GPIO_SPEED_FREQ_LOW;
 80015aa:	2300      	movs	r3, #0
 80015ac:	62bb      	str	r3, [r7, #40]	; 0x28
  HAL_GPIO_Init(GPIOA, &GPIO_InitStruct);
 80015ae:	f107 031c 	add.w	r3, r7, #28
 80015b2:	4619      	mov	r1, r3
 80015b4:	4821      	ldr	r0, [pc, #132]	; (800163c <MX_GPIO_Init+0x1e0>)
 80015b6:	f001 f88f 	bl	80026d8 <HAL_GPIO_Init>

  /*Configure GPIO pins : RSBY_KEEP_EN_Pin EX_GPIO1_Pin EX_GPIO2_Pin WATCHDOG_Pin */
  GPIO_InitStruct.Pin = RSBY_KEEP_EN_Pin|EX_GPIO1_Pin|EX_GPIO2_Pin|WATCHDOG_Pin;
 80015ba:	f241 0323 	movw	r3, #4131	; 0x1023
 80015be:	61fb      	str	r3, [r7, #28]
  GPIO_InitStruct.Mode = GPIO_MODE_OUTPUT_PP;
 80015c0:	2301      	movs	r3, #1
 80015c2:	623b      	str	r3, [r7, #32]
  GPIO_InitStruct.Pull = GPIO_NOPULL;
 80015c4:	2300      	movs	r3, #0
 80015c6:	627b      	str	r3, [r7, #36]	; 0x24
  GPIO_InitStruct.Speed = GPIO_SPEED_FREQ_LOW;
 80015c8:	2300      	movs	r3, #0
 80015ca:	62bb      	str	r3, [r7, #40]	; 0x28
  HAL_GPIO_Init(GPIOB, &GPIO_InitStruct);
 80015cc:	f107 031c 	add.w	r3, r7, #28
 80015d0:	4619      	mov	r1, r3
 80015d2:	481b      	ldr	r0, [pc, #108]	; (8001640 <MX_GPIO_Init+0x1e4>)
 80015d4:	f001 f880 	bl	80026d8 <HAL_GPIO_Init>

  /*Configure GPIO pin : BOOT1_Pin */
  GPIO_InitStruct.Pin = BOOT1_Pin;
 80015d8:	2304      	movs	r3, #4
 80015da:	61fb      	str	r3, [r7, #28]
  GPIO_InitStruct.Mode = GPIO_MODE_INPUT;
 80015dc:	2300      	movs	r3, #0
 80015de:	623b      	str	r3, [r7, #32]
  GPIO_InitStruct.Pull = GPIO_NOPULL;
 80015e0:	2300      	movs	r3, #0
 80015e2:	627b      	str	r3, [r7, #36]	; 0x24
  HAL_GPIO_Init(BOOT1_GPIO_Port, &GPIO_InitStruct);
 80015e4:	f107 031c 	add.w	r3, r7, #28
 80015e8:	4619      	mov	r1, r3
 80015ea:	4815      	ldr	r0, [pc, #84]	; (8001640 <MX_GPIO_Init+0x1e4>)
 80015ec:	f001 f874 	bl	80026d8 <HAL_GPIO_Init>

  /*Configure GPIO pins : CS_EEPROM_Pin CS_FRAM_Pin CS_GYROD12_Pin INT_GYRO_Pin
                           CS_GYRO2_Pin INT_GYRO2_Pin SBD_SER_DCD_Pin SBD_SER_DSR_Pin
                           SBD_SER_DTR_Pin SBD_SER_CTS_Pin SBD_SER_RTS_Pin SBD_ON_OFF_Pin */
  GPIO_InitStruct.Pin = CS_EEPROM_Pin|CS_FRAM_Pin|INT_GYRO_Pin
 80015f0:	f64e 439f 	movw	r3, #60575	; 0xec9f
 80015f4:	61fb      	str	r3, [r7, #28]
                          |CS_GYRO2_Pin|INT_GYRO2_Pin|SBD_SER_DCD_Pin|SBD_SER_DSR_Pin
                          |SBD_SER_DTR_Pin|SBD_SER_CTS_Pin|SBD_SER_RTS_Pin|SBD_ON_OFF_Pin;
  GPIO_InitStruct.Mode = GPIO_MODE_OUTPUT_PP;
 80015f6:	2301      	movs	r3, #1
 80015f8:	623b      	str	r3, [r7, #32]
  GPIO_InitStruct.Pull = GPIO_NOPULL;
 80015fa:	2300      	movs	r3, #0
 80015fc:	627b      	str	r3, [r7, #36]	; 0x24
  GPIO_InitStruct.Speed = GPIO_SPEED_FREQ_LOW;
 80015fe:	2300      	movs	r3, #0
 8001600:	62bb      	str	r3, [r7, #40]	; 0x28
  HAL_GPIO_Init(GPIOD, &GPIO_InitStruct);
 8001602:	f107 031c 	add.w	r3, r7, #28
 8001606:	4619      	mov	r1, r3
 8001608:	480e      	ldr	r0, [pc, #56]	; (8001644 <MX_GPIO_Init+0x1e8>)
 800160a:	f001 f865 	bl	80026d8 <HAL_GPIO_Init>

  /*Configure GPIO pin : PGOOD_Pin */
  GPIO_InitStruct.Pin = PGOOD_Pin;
 800160e:	f44f 7380 	mov.w	r3, #256	; 0x100
 8001612:	61fb      	str	r3, [r7, #28]
  GPIO_InitStruct.Mode = GPIO_MODE_INPUT;
 8001614:	2300      	movs	r3, #0
 8001616:	623b      	str	r3, [r7, #32]
  GPIO_InitStruct.Pull = GPIO_NOPULL;
 8001618:	2300      	movs	r3, #0
 800161a:	627b      	str	r3, [r7, #36]	; 0x24
  HAL_GPIO_Init(PGOOD_GPIO_Port, &GPIO_InitStruct);
 800161c:	f107 031c 	add.w	r3, r7, #28
 8001620:	4619      	mov	r1, r3
 8001622:	4806      	ldr	r0, [pc, #24]	; (800163c <MX_GPIO_Init+0x1e0>)
 8001624:	f001 f858 	bl	80026d8 <HAL_GPIO_Init>

}
 8001628:	bf00      	nop
 800162a:	3730      	adds	r7, #48	; 0x30
 800162c:	46bd      	mov	sp, r7
 800162e:	bd80      	pop	{r7, pc}
 8001630:	40023800 	.word	0x40023800
 8001634:	40021000 	.word	0x40021000
 8001638:	40020800 	.word	0x40020800
 800163c:	40020000 	.word	0x40020000
 8001640:	40020400 	.word	0x40020400
 8001644:	40020c00 	.word	0x40020c00

08001648 <StartDefaultTask>:
  * @param  argument: Not used
  * @retval None
  */
/* USER CODE END Header_StartDefaultTask */
void StartDefaultTask(void *argument)
{
 8001648:	b480      	push	{r7}
 800164a:	b083      	sub	sp, #12
 800164c:	af00      	add	r7, sp, #0
 800164e:	6078      	str	r0, [r7, #4]
  /* USER CODE BEGIN 5 */
  /* Infinite loop */
  for(;;)
 8001650:	e7fe      	b.n	8001650 <StartDefaultTask+0x8>
	...

08001654 <Task01>:
* @param argument: Not used
* @retval None
*/
/* USER CODE END Header_Task01 */
void Task01(void *argument)
{
 8001654:	b580      	push	{r7, lr}
 8001656:	b084      	sub	sp, #16
 8001658:	af00      	add	r7, sp, #0
 800165a:	6078      	str	r0, [r7, #4]
  /* USER CODE BEGIN Task01 */
  /* Infinite loop */
  for(;;)
  {
	 // BATTERY_PID_FUNCTION();
	  osDelay(100);
 800165c:	2064      	movs	r0, #100	; 0x64
 800165e:	f005 f88f 	bl	8006780 <osDelay>

	// FEES_Pin_Toggle('d',15);  	// CS_NAND - Led BLU ( D 5 )
	  int delayvar=100;
 8001662:	2364      	movs	r3, #100	; 0x64
 8001664:	60fb      	str	r3, [r7, #12]
	  HAL_GPIO_WritePin(WATCHDOG_GPIO_Port,WATCHDOG_Pin, 1);
 8001666:	2201      	movs	r2, #1
 8001668:	2120      	movs	r1, #32
 800166a:	4808      	ldr	r0, [pc, #32]	; (800168c <Task01+0x38>)
 800166c:	f001 f9ce 	bl	8002a0c <HAL_GPIO_WritePin>
	  osDelay(delayvar);
 8001670:	68fb      	ldr	r3, [r7, #12]
 8001672:	4618      	mov	r0, r3
 8001674:	f005 f884 	bl	8006780 <osDelay>
	  HAL_GPIO_WritePin(WATCHDOG_GPIO_Port,WATCHDOG_Pin, 0);
 8001678:	2200      	movs	r2, #0
 800167a:	2120      	movs	r1, #32
 800167c:	4803      	ldr	r0, [pc, #12]	; (800168c <Task01+0x38>)
 800167e:	f001 f9c5 	bl	8002a0c <HAL_GPIO_WritePin>
	  osDelay(delayvar);
 8001682:	68fb      	ldr	r3, [r7, #12]
 8001684:	4618      	mov	r0, r3
 8001686:	f005 f87b 	bl	8006780 <osDelay>
  {
 800168a:	e7e7      	b.n	800165c <Task01+0x8>
 800168c:	40020400 	.word	0x40020400

08001690 <Task02>:
* @param argument: Not used
* @retval None
*/
/* USER CODE END Header_Task02 */
void Task02(void *argument)
{
 8001690:	b580      	push	{r7, lr}
 8001692:	b082      	sub	sp, #8
 8001694:	af00      	add	r7, sp, #0
 8001696:	6078      	str	r0, [r7, #4]

	  //HAL_TIM_PWM_Start(&htim2, TIM_CHANNEL_1);	// X-Coil PWM
	  //HAL_TIM_PWM_Start(&htim2, TIM_CHANNEL_2);	// Y-Coil PWM
	  //HAL_TIM_PWM_Start(&htim2, TIM_CHANNEL_3);	// Z-Coil PWM

	  osDelay(100);
 8001698:	2064      	movs	r0, #100	; 0x64
 800169a:	f005 f871 	bl	8006780 <osDelay>
 800169e:	e7fb      	b.n	8001698 <Task02+0x8>

080016a0 <Task03>:
* @param argument: Not used
* @retval None
*/
/* USER CODE END Header_Task03 */
void Task03(void *argument)
{
 80016a0:	b580      	push	{r7, lr}
 80016a2:	b082      	sub	sp, #8
 80016a4:	af00      	add	r7, sp, #0
 80016a6:	6078      	str	r0, [r7, #4]
  /* USER CODE BEGIN Task03 */
  /* Infinite loop */
  for(;;)
  {

	  osDelay(1000);
 80016a8:	f44f 707a 	mov.w	r0, #1000	; 0x3e8
 80016ac:	f005 f868 	bl	8006780 <osDelay>
 80016b0:	e7fa      	b.n	80016a8 <Task03+0x8>

080016b2 <Task04>:
* @param argument: Not used
* @retval None
*/
/* USER CODE END Header_Task04 */
void Task04(void *argument)
{
 80016b2:	b580      	push	{r7, lr}
 80016b4:	b082      	sub	sp, #8
 80016b6:	af00      	add	r7, sp, #0
 80016b8:	6078      	str	r0, [r7, #4]
  /* USER CODE BEGIN Task04 */
  /* Infinite loop */
  for(;;)
  {
	  osDelay(1000);
 80016ba:	f44f 707a 	mov.w	r0, #1000	; 0x3e8
 80016be:	f005 f85f 	bl	8006780 <osDelay>
 80016c2:	e7fa      	b.n	80016ba <Task04+0x8>

080016c4 <Task05>:
* @param argument: Not used
* @retval None
*/
/* USER CODE END Header_Task05 */
void Task05(void *argument)
{
 80016c4:	b580      	push	{r7, lr}
 80016c6:	b082      	sub	sp, #8
 80016c8:	af00      	add	r7, sp, #0
 80016ca:	6078      	str	r0, [r7, #4]
  /* USER CODE BEGIN Task05 */
  /* Infinite loop */
  for(;;)
  {

	  FEES_Pin_Toggle('d',12, 20); 	// TMTC_WD
 80016cc:	2214      	movs	r2, #20
 80016ce:	210c      	movs	r1, #12
 80016d0:	2064      	movs	r0, #100	; 0x64
 80016d2:	f7ff f8d3 	bl	800087c <FEES_Pin_Toggle>
	  osDelay(50);
 80016d6:	2032      	movs	r0, #50	; 0x32
 80016d8:	f005 f852 	bl	8006780 <osDelay>

	  // FEES_Pin_Toggle('c',15,20); 	//RAD RESET


	  if(1){
		  FEES_TestPins(250);
 80016dc:	20fa      	movs	r0, #250	; 0xfa
 80016de:	f7ff f91b 	bl	8000918 <FEES_TestPins>
	  FEES_Pin_Toggle('d',12, 20); 	// TMTC_WD
 80016e2:	e7f3      	b.n	80016cc <Task05+0x8>

080016e4 <Task06>:
* @param argument: Not used
* @retval None
*/
/* USER CODE END Header_Task06 */
void Task06(void *argument)
{
 80016e4:	b580      	push	{r7, lr}
 80016e6:	b086      	sub	sp, #24
 80016e8:	af00      	add	r7, sp, #0
 80016ea:	6078      	str	r0, [r7, #4]
  /* Infinite loop */
	for(;;)
	  {


		osDelay(100);
 80016ec:	2064      	movs	r0, #100	; 0x64
 80016ee:	f005 f847 	bl	8006780 <osDelay>
 80016f2:	e7fb      	b.n	80016ec <Task06+0x8>

080016f4 <HAL_TIM_PeriodElapsedCallback>:
  * a global variable "uwTick" used as application time base.
  * @param  htim : TIM handle
  * @retval None
  */
void HAL_TIM_PeriodElapsedCallback(TIM_HandleTypeDef *htim)
{
 80016f4:	b580      	push	{r7, lr}
 80016f6:	b082      	sub	sp, #8
 80016f8:	af00      	add	r7, sp, #0
 80016fa:	6078      	str	r0, [r7, #4]
  /* USER CODE BEGIN Callback 0 */

  /* USER CODE END Callback 0 */
  if (htim->Instance == TIM6) {
 80016fc:	687b      	ldr	r3, [r7, #4]
 80016fe:	681b      	ldr	r3, [r3, #0]
 8001700:	4a04      	ldr	r2, [pc, #16]	; (8001714 <HAL_TIM_PeriodElapsedCallback+0x20>)
 8001702:	4293      	cmp	r3, r2
 8001704:	d101      	bne.n	800170a <HAL_TIM_PeriodElapsedCallback+0x16>
    HAL_IncTick();
 8001706:	f000 fc61 	bl	8001fcc <HAL_IncTick>
  }
  /* USER CODE BEGIN Callback 1 */

  /* USER CODE END Callback 1 */
}
 800170a:	bf00      	nop
 800170c:	3708      	adds	r7, #8
 800170e:	46bd      	mov	sp, r7
 8001710:	bd80      	pop	{r7, pc}
 8001712:	bf00      	nop
 8001714:	40001000 	.word	0x40001000

08001718 <Error_Handler>:
/**
  * @brief  This function is executed in case of error occurrence.
  * @retval None
  */
void Error_Handler(void)
{
 8001718:	b480      	push	{r7}
 800171a:	af00      	add	r7, sp, #0
  /* USER CODE BEGIN Error_Handler_Debug */
  /* User can add his own implementation to report the HAL error return state */

  /* USER CODE END Error_Handler_Debug */
}
 800171c:	bf00      	nop
 800171e:	46bd      	mov	sp, r7
 8001720:	f85d 7b04 	ldr.w	r7, [sp], #4
 8001724:	4770      	bx	lr
	...

08001728 <HAL_MspInit>:
 8001728:	b480      	push	{r7}
 800172a:	b083      	sub	sp, #12
 800172c:	af00      	add	r7, sp, #0
 800172e:	2300      	movs	r3, #0
 8001730:	607b      	str	r3, [r7, #4]
 8001732:	4b10      	ldr	r3, [pc, #64]	; (8001774 <HAL_MspInit+0x4c>)
 8001734:	6c5b      	ldr	r3, [r3, #68]	; 0x44
 8001736:	4a0f      	ldr	r2, [pc, #60]	; (8001774 <HAL_MspInit+0x4c>)
 8001738:	f443 4380 	orr.w	r3, r3, #16384	; 0x4000
 800173c:	6453      	str	r3, [r2, #68]	; 0x44
 800173e:	4b0d      	ldr	r3, [pc, #52]	; (8001774 <HAL_MspInit+0x4c>)
 8001740:	6c5b      	ldr	r3, [r3, #68]	; 0x44
 8001742:	f403 4380 	and.w	r3, r3, #16384	; 0x4000
 8001746:	607b      	str	r3, [r7, #4]
 8001748:	687b      	ldr	r3, [r7, #4]
 800174a:	2300      	movs	r3, #0
 800174c:	603b      	str	r3, [r7, #0]
 800174e:	4b09      	ldr	r3, [pc, #36]	; (8001774 <HAL_MspInit+0x4c>)
 8001750:	6c1b      	ldr	r3, [r3, #64]	; 0x40
 8001752:	4a08      	ldr	r2, [pc, #32]	; (8001774 <HAL_MspInit+0x4c>)
 8001754:	f043 5380 	orr.w	r3, r3, #268435456	; 0x10000000
 8001758:	6413      	str	r3, [r2, #64]	; 0x40
 800175a:	4b06      	ldr	r3, [pc, #24]	; (8001774 <HAL_MspInit+0x4c>)
 800175c:	6c1b      	ldr	r3, [r3, #64]	; 0x40
 800175e:	f003 5380 	and.w	r3, r3, #268435456	; 0x10000000
 8001762:	603b      	str	r3, [r7, #0]
 8001764:	683b      	ldr	r3, [r7, #0]
 8001766:	bf00      	nop
 8001768:	370c      	adds	r7, #12
 800176a:	46bd      	mov	sp, r7
 800176c:	f85d 7b04 	ldr.w	r7, [sp], #4
 8001770:	4770      	bx	lr
 8001772:	bf00      	nop
 8001774:	40023800 	.word	0x40023800

08001778 <HAL_ADC_MspInit>:
 8001778:	b480      	push	{r7}
 800177a:	b085      	sub	sp, #20
 800177c:	af00      	add	r7, sp, #0
 800177e:	6078      	str	r0, [r7, #4]
 8001780:	687b      	ldr	r3, [r7, #4]
 8001782:	681b      	ldr	r3, [r3, #0]
 8001784:	4a0b      	ldr	r2, [pc, #44]	; (80017b4 <HAL_ADC_MspInit+0x3c>)
 8001786:	4293      	cmp	r3, r2
 8001788:	d10d      	bne.n	80017a6 <HAL_ADC_MspInit+0x2e>
 800178a:	2300      	movs	r3, #0
 800178c:	60fb      	str	r3, [r7, #12]
 800178e:	4b0a      	ldr	r3, [pc, #40]	; (80017b8 <HAL_ADC_MspInit+0x40>)
 8001790:	6c5b      	ldr	r3, [r3, #68]	; 0x44
 8001792:	4a09      	ldr	r2, [pc, #36]	; (80017b8 <HAL_ADC_MspInit+0x40>)
 8001794:	f443 7380 	orr.w	r3, r3, #256	; 0x100
 8001798:	6453      	str	r3, [r2, #68]	; 0x44
 800179a:	4b07      	ldr	r3, [pc, #28]	; (80017b8 <HAL_ADC_MspInit+0x40>)
 800179c:	6c5b      	ldr	r3, [r3, #68]	; 0x44
 800179e:	f403 7380 	and.w	r3, r3, #256	; 0x100
 80017a2:	60fb      	str	r3, [r7, #12]
 80017a4:	68fb      	ldr	r3, [r7, #12]
 80017a6:	bf00      	nop
 80017a8:	3714      	adds	r7, #20
 80017aa:	46bd      	mov	sp, r7
 80017ac:	f85d 7b04 	ldr.w	r7, [sp], #4
 80017b0:	4770      	bx	lr
 80017b2:	bf00      	nop
 80017b4:	40012000 	.word	0x40012000
 80017b8:	40023800 	.word	0x40023800

080017bc <HAL_I2C_MspInit>:
 80017bc:	b580      	push	{r7, lr}
 80017be:	b08c      	sub	sp, #48	; 0x30
 80017c0:	af00      	add	r7, sp, #0
 80017c2:	6078      	str	r0, [r7, #4]
 80017c4:	f107 031c 	add.w	r3, r7, #28
 80017c8:	2200      	movs	r2, #0
 80017ca:	601a      	str	r2, [r3, #0]
 80017cc:	605a      	str	r2, [r3, #4]
 80017ce:	609a      	str	r2, [r3, #8]
 80017d0:	60da      	str	r2, [r3, #12]
 80017d2:	611a      	str	r2, [r3, #16]
 80017d4:	687b      	ldr	r3, [r7, #4]
 80017d6:	681b      	ldr	r3, [r3, #0]
 80017d8:	4a33      	ldr	r2, [pc, #204]	; (80018a8 <HAL_I2C_MspInit+0xec>)
 80017da:	4293      	cmp	r3, r2
 80017dc:	d12d      	bne.n	800183a <HAL_I2C_MspInit+0x7e>
 80017de:	2300      	movs	r3, #0
 80017e0:	61bb      	str	r3, [r7, #24]
 80017e2:	4b32      	ldr	r3, [pc, #200]	; (80018ac <HAL_I2C_MspInit+0xf0>)
 80017e4:	6b1b      	ldr	r3, [r3, #48]	; 0x30
 80017e6:	4a31      	ldr	r2, [pc, #196]	; (80018ac <HAL_I2C_MspInit+0xf0>)
 80017e8:	f043 0302 	orr.w	r3, r3, #2
 80017ec:	6313      	str	r3, [r2, #48]	; 0x30
 80017ee:	4b2f      	ldr	r3, [pc, #188]	; (80018ac <HAL_I2C_MspInit+0xf0>)
 80017f0:	6b1b      	ldr	r3, [r3, #48]	; 0x30
 80017f2:	f003 0302 	and.w	r3, r3, #2
 80017f6:	61bb      	str	r3, [r7, #24]
 80017f8:	69bb      	ldr	r3, [r7, #24]
 80017fa:	f44f 7340 	mov.w	r3, #768	; 0x300
 80017fe:	61fb      	str	r3, [r7, #28]
 8001800:	2312      	movs	r3, #18
 8001802:	623b      	str	r3, [r7, #32]
 8001804:	2301      	movs	r3, #1
 8001806:	627b      	str	r3, [r7, #36]	; 0x24
 8001808:	2303      	movs	r3, #3
 800180a:	62bb      	str	r3, [r7, #40]	; 0x28
 800180c:	2304      	movs	r3, #4
 800180e:	62fb      	str	r3, [r7, #44]	; 0x2c
 8001810:	f107 031c 	add.w	r3, r7, #28
 8001814:	4619      	mov	r1, r3
 8001816:	4826      	ldr	r0, [pc, #152]	; (80018b0 <HAL_I2C_MspInit+0xf4>)
 8001818:	f000 ff5e 	bl	80026d8 <HAL_GPIO_Init>
 800181c:	2300      	movs	r3, #0
 800181e:	617b      	str	r3, [r7, #20]
 8001820:	4b22      	ldr	r3, [pc, #136]	; (80018ac <HAL_I2C_MspInit+0xf0>)
 8001822:	6c1b      	ldr	r3, [r3, #64]	; 0x40
 8001824:	4a21      	ldr	r2, [pc, #132]	; (80018ac <HAL_I2C_MspInit+0xf0>)
 8001826:	f443 1300 	orr.w	r3, r3, #2097152	; 0x200000
 800182a:	6413      	str	r3, [r2, #64]	; 0x40
 800182c:	4b1f      	ldr	r3, [pc, #124]	; (80018ac <HAL_I2C_MspInit+0xf0>)
 800182e:	6c1b      	ldr	r3, [r3, #64]	; 0x40
 8001830:	f403 1300 	and.w	r3, r3, #2097152	; 0x200000
 8001834:	617b      	str	r3, [r7, #20]
 8001836:	697b      	ldr	r3, [r7, #20]
 8001838:	e031      	b.n	800189e <HAL_I2C_MspInit+0xe2>
 800183a:	687b      	ldr	r3, [r7, #4]
 800183c:	681b      	ldr	r3, [r3, #0]
 800183e:	4a1d      	ldr	r2, [pc, #116]	; (80018b4 <HAL_I2C_MspInit+0xf8>)
 8001840:	4293      	cmp	r3, r2
 8001842:	d12c      	bne.n	800189e <HAL_I2C_MspInit+0xe2>
 8001844:	2300      	movs	r3, #0
 8001846:	613b      	str	r3, [r7, #16]
 8001848:	4b18      	ldr	r3, [pc, #96]	; (80018ac <HAL_I2C_MspInit+0xf0>)
 800184a:	6b1b      	ldr	r3, [r3, #48]	; 0x30
 800184c:	4a17      	ldr	r2, [pc, #92]	; (80018ac <HAL_I2C_MspInit+0xf0>)
 800184e:	f043 0302 	orr.w	r3, r3, #2
 8001852:	6313      	str	r3, [r2, #48]	; 0x30
 8001854:	4b15      	ldr	r3, [pc, #84]	; (80018ac <HAL_I2C_MspInit+0xf0>)
 8001856:	6b1b      	ldr	r3, [r3, #48]	; 0x30
 8001858:	f003 0302 	and.w	r3, r3, #2
 800185c:	613b      	str	r3, [r7, #16]
 800185e:	693b      	ldr	r3, [r7, #16]
 8001860:	f44f 6340 	mov.w	r3, #3072	; 0xc00
 8001864:	61fb      	str	r3, [r7, #28]
 8001866:	2312      	movs	r3, #18
 8001868:	623b      	str	r3, [r7, #32]
 800186a:	2301      	movs	r3, #1
 800186c:	627b      	str	r3, [r7, #36]	; 0x24
 800186e:	2303      	movs	r3, #3
 8001870:	62bb      	str	r3, [r7, #40]	; 0x28
 8001872:	2304      	movs	r3, #4
 8001874:	62fb      	str	r3, [r7, #44]	; 0x2c
 8001876:	f107 031c 	add.w	r3, r7, #28
 800187a:	4619      	mov	r1, r3
 800187c:	480c      	ldr	r0, [pc, #48]	; (80018b0 <HAL_I2C_MspInit+0xf4>)
 800187e:	f000 ff2b 	bl	80026d8 <HAL_GPIO_Init>
 8001882:	2300      	movs	r3, #0
 8001884:	60fb      	str	r3, [r7, #12]
 8001886:	4b09      	ldr	r3, [pc, #36]	; (80018ac <HAL_I2C_MspInit+0xf0>)
 8001888:	6c1b      	ldr	r3, [r3, #64]	; 0x40
 800188a:	4a08      	ldr	r2, [pc, #32]	; (80018ac <HAL_I2C_MspInit+0xf0>)
 800188c:	f443 0380 	orr.w	r3, r3, #4194304	; 0x400000
 8001890:	6413      	str	r3, [r2, #64]	; 0x40
 8001892:	4b06      	ldr	r3, [pc, #24]	; (80018ac <HAL_I2C_MspInit+0xf0>)
 8001894:	6c1b      	ldr	r3, [r3, #64]	; 0x40
 8001896:	f403 0380 	and.w	r3, r3, #4194304	; 0x400000
 800189a:	60fb      	str	r3, [r7, #12]
 800189c:	68fb      	ldr	r3, [r7, #12]
 800189e:	bf00      	nop
 80018a0:	3730      	adds	r7, #48	; 0x30
 80018a2:	46bd      	mov	sp, r7
 80018a4:	bd80      	pop	{r7, pc}
 80018a6:	bf00      	nop
 80018a8:	40005400 	.word	0x40005400
 80018ac:	40023800 	.word	0x40023800
 80018b0:	40020400 	.word	0x40020400
 80018b4:	40005800 	.word	0x40005800

080018b8 <HAL_SPI_MspInit>:
 80018b8:	b580      	push	{r7, lr}
 80018ba:	b08e      	sub	sp, #56	; 0x38
 80018bc:	af00      	add	r7, sp, #0
 80018be:	6078      	str	r0, [r7, #4]
 80018c0:	f107 0324 	add.w	r3, r7, #36	; 0x24
 80018c4:	2200      	movs	r2, #0
 80018c6:	601a      	str	r2, [r3, #0]
 80018c8:	605a      	str	r2, [r3, #4]
 80018ca:	609a      	str	r2, [r3, #8]
 80018cc:	60da      	str	r2, [r3, #12]
 80018ce:	611a      	str	r2, [r3, #16]
 80018d0:	687b      	ldr	r3, [r7, #4]
 80018d2:	681b      	ldr	r3, [r3, #0]
 80018d4:	4a4c      	ldr	r2, [pc, #304]	; (8001a08 <HAL_SPI_MspInit+0x150>)
 80018d6:	4293      	cmp	r3, r2
 80018d8:	d12c      	bne.n	8001934 <HAL_SPI_MspInit+0x7c>
 80018da:	2300      	movs	r3, #0
 80018dc:	623b      	str	r3, [r7, #32]
 80018de:	4b4b      	ldr	r3, [pc, #300]	; (8001a0c <HAL_SPI_MspInit+0x154>)
 80018e0:	6c5b      	ldr	r3, [r3, #68]	; 0x44
 80018e2:	4a4a      	ldr	r2, [pc, #296]	; (8001a0c <HAL_SPI_MspInit+0x154>)
 80018e4:	f443 5380 	orr.w	r3, r3, #4096	; 0x1000
 80018e8:	6453      	str	r3, [r2, #68]	; 0x44
 80018ea:	4b48      	ldr	r3, [pc, #288]	; (8001a0c <HAL_SPI_MspInit+0x154>)
 80018ec:	6c5b      	ldr	r3, [r3, #68]	; 0x44
 80018ee:	f403 5380 	and.w	r3, r3, #4096	; 0x1000
 80018f2:	623b      	str	r3, [r7, #32]
 80018f4:	6a3b      	ldr	r3, [r7, #32]
 80018f6:	2300      	movs	r3, #0
 80018f8:	61fb      	str	r3, [r7, #28]
 80018fa:	4b44      	ldr	r3, [pc, #272]	; (8001a0c <HAL_SPI_MspInit+0x154>)
 80018fc:	6b1b      	ldr	r3, [r3, #48]	; 0x30
 80018fe:	4a43      	ldr	r2, [pc, #268]	; (8001a0c <HAL_SPI_MspInit+0x154>)
 8001900:	f043 0301 	orr.w	r3, r3, #1
 8001904:	6313      	str	r3, [r2, #48]	; 0x30
 8001906:	4b41      	ldr	r3, [pc, #260]	; (8001a0c <HAL_SPI_MspInit+0x154>)
 8001908:	6b1b      	ldr	r3, [r3, #48]	; 0x30
 800190a:	f003 0301 	and.w	r3, r3, #1
 800190e:	61fb      	str	r3, [r7, #28]
 8001910:	69fb      	ldr	r3, [r7, #28]
 8001912:	23e0      	movs	r3, #224	; 0xe0
 8001914:	627b      	str	r3, [r7, #36]	; 0x24
 8001916:	2302      	movs	r3, #2
 8001918:	62bb      	str	r3, [r7, #40]	; 0x28
 800191a:	2300      	movs	r3, #0
 800191c:	62fb      	str	r3, [r7, #44]	; 0x2c
 800191e:	2303      	movs	r3, #3
 8001920:	633b      	str	r3, [r7, #48]	; 0x30
 8001922:	2305      	movs	r3, #5
 8001924:	637b      	str	r3, [r7, #52]	; 0x34
 8001926:	f107 0324 	add.w	r3, r7, #36	; 0x24
 800192a:	4619      	mov	r1, r3
 800192c:	4838      	ldr	r0, [pc, #224]	; (8001a10 <HAL_SPI_MspInit+0x158>)
 800192e:	f000 fed3 	bl	80026d8 <HAL_GPIO_Init>
 8001932:	e064      	b.n	80019fe <HAL_SPI_MspInit+0x146>
 8001934:	687b      	ldr	r3, [r7, #4]
 8001936:	681b      	ldr	r3, [r3, #0]
 8001938:	4a36      	ldr	r2, [pc, #216]	; (8001a14 <HAL_SPI_MspInit+0x15c>)
 800193a:	4293      	cmp	r3, r2
 800193c:	d12d      	bne.n	800199a <HAL_SPI_MspInit+0xe2>
 800193e:	2300      	movs	r3, #0
 8001940:	61bb      	str	r3, [r7, #24]
 8001942:	4b32      	ldr	r3, [pc, #200]	; (8001a0c <HAL_SPI_MspInit+0x154>)
 8001944:	6c1b      	ldr	r3, [r3, #64]	; 0x40
 8001946:	4a31      	ldr	r2, [pc, #196]	; (8001a0c <HAL_SPI_MspInit+0x154>)
 8001948:	f443 4380 	orr.w	r3, r3, #16384	; 0x4000
 800194c:	6413      	str	r3, [r2, #64]	; 0x40
 800194e:	4b2f      	ldr	r3, [pc, #188]	; (8001a0c <HAL_SPI_MspInit+0x154>)
 8001950:	6c1b      	ldr	r3, [r3, #64]	; 0x40
 8001952:	f403 4380 	and.w	r3, r3, #16384	; 0x4000
 8001956:	61bb      	str	r3, [r7, #24]
 8001958:	69bb      	ldr	r3, [r7, #24]
 800195a:	2300      	movs	r3, #0
 800195c:	617b      	str	r3, [r7, #20]
 800195e:	4b2b      	ldr	r3, [pc, #172]	; (8001a0c <HAL_SPI_MspInit+0x154>)
 8001960:	6b1b      	ldr	r3, [r3, #48]	; 0x30
 8001962:	4a2a      	ldr	r2, [pc, #168]	; (8001a0c <HAL_SPI_MspInit+0x154>)
 8001964:	f043 0302 	orr.w	r3, r3, #2
 8001968:	6313      	str	r3, [r2, #48]	; 0x30
 800196a:	4b28      	ldr	r3, [pc, #160]	; (8001a0c <HAL_SPI_MspInit+0x154>)
 800196c:	6b1b      	ldr	r3, [r3, #48]	; 0x30
 800196e:	f003 0302 	and.w	r3, r3, #2
 8001972:	617b      	str	r3, [r7, #20]
 8001974:	697b      	ldr	r3, [r7, #20]
 8001976:	f44f 4360 	mov.w	r3, #57344	; 0xe000
 800197a:	627b      	str	r3, [r7, #36]	; 0x24
 800197c:	2302      	movs	r3, #2
 800197e:	62bb      	str	r3, [r7, #40]	; 0x28
 8001980:	2300      	movs	r3, #0
 8001982:	62fb      	str	r3, [r7, #44]	; 0x2c
 8001984:	2303      	movs	r3, #3
 8001986:	633b      	str	r3, [r7, #48]	; 0x30
 8001988:	2305      	movs	r3, #5
 800198a:	637b      	str	r3, [r7, #52]	; 0x34
 800198c:	f107 0324 	add.w	r3, r7, #36	; 0x24
 8001990:	4619      	mov	r1, r3
 8001992:	4821      	ldr	r0, [pc, #132]	; (8001a18 <HAL_SPI_MspInit+0x160>)
 8001994:	f000 fea0 	bl	80026d8 <HAL_GPIO_Init>
 8001998:	e031      	b.n	80019fe <HAL_SPI_MspInit+0x146>
 800199a:	687b      	ldr	r3, [r7, #4]
 800199c:	681b      	ldr	r3, [r3, #0]
 800199e:	4a1f      	ldr	r2, [pc, #124]	; (8001a1c <HAL_SPI_MspInit+0x164>)
 80019a0:	4293      	cmp	r3, r2
 80019a2:	d12c      	bne.n	80019fe <HAL_SPI_MspInit+0x146>
 80019a4:	2300      	movs	r3, #0
 80019a6:	613b      	str	r3, [r7, #16]
 80019a8:	4b18      	ldr	r3, [pc, #96]	; (8001a0c <HAL_SPI_MspInit+0x154>)
 80019aa:	6c1b      	ldr	r3, [r3, #64]	; 0x40
 80019ac:	4a17      	ldr	r2, [pc, #92]	; (8001a0c <HAL_SPI_MspInit+0x154>)
 80019ae:	f443 4300 	orr.w	r3, r3, #32768	; 0x8000
 80019b2:	6413      	str	r3, [r2, #64]	; 0x40
 80019b4:	4b15      	ldr	r3, [pc, #84]	; (8001a0c <HAL_SPI_MspInit+0x154>)
 80019b6:	6c1b      	ldr	r3, [r3, #64]	; 0x40
 80019b8:	f403 4300 	and.w	r3, r3, #32768	; 0x8000
 80019bc:	613b      	str	r3, [r7, #16]
 80019be:	693b      	ldr	r3, [r7, #16]
 80019c0:	2300      	movs	r3, #0
 80019c2:	60fb      	str	r3, [r7, #12]
 80019c4:	4b11      	ldr	r3, [pc, #68]	; (8001a0c <HAL_SPI_MspInit+0x154>)
 80019c6:	6b1b      	ldr	r3, [r3, #48]	; 0x30
 80019c8:	4a10      	ldr	r2, [pc, #64]	; (8001a0c <HAL_SPI_MspInit+0x154>)
 80019ca:	f043 0304 	orr.w	r3, r3, #4
 80019ce:	6313      	str	r3, [r2, #48]	; 0x30
 80019d0:	4b0e      	ldr	r3, [pc, #56]	; (8001a0c <HAL_SPI_MspInit+0x154>)
 80019d2:	6b1b      	ldr	r3, [r3, #48]	; 0x30
 80019d4:	f003 0304 	and.w	r3, r3, #4
 80019d8:	60fb      	str	r3, [r7, #12]
 80019da:	68fb      	ldr	r3, [r7, #12]
 80019dc:	f44f 53e0 	mov.w	r3, #7168	; 0x1c00
 80019e0:	627b      	str	r3, [r7, #36]	; 0x24
 80019e2:	2302      	movs	r3, #2
 80019e4:	62bb      	str	r3, [r7, #40]	; 0x28
 80019e6:	2300      	movs	r3, #0
 80019e8:	62fb      	str	r3, [r7, #44]	; 0x2c
 80019ea:	2303      	movs	r3, #3
 80019ec:	633b      	str	r3, [r7, #48]	; 0x30
 80019ee:	2306      	movs	r3, #6
 80019f0:	637b      	str	r3, [r7, #52]	; 0x34
 80019f2:	f107 0324 	add.w	r3, r7, #36	; 0x24
 80019f6:	4619      	mov	r1, r3
 80019f8:	4809      	ldr	r0, [pc, #36]	; (8001a20 <HAL_SPI_MspInit+0x168>)
 80019fa:	f000 fe6d 	bl	80026d8 <HAL_GPIO_Init>
 80019fe:	bf00      	nop
 8001a00:	3738      	adds	r7, #56	; 0x38
 8001a02:	46bd      	mov	sp, r7
 8001a04:	bd80      	pop	{r7, pc}
 8001a06:	bf00      	nop
 8001a08:	40013000 	.word	0x40013000
 8001a0c:	40023800 	.word	0x40023800
 8001a10:	40020000 	.word	0x40020000
 8001a14:	40003800 	.word	0x40003800
 8001a18:	40020400 	.word	0x40020400
 8001a1c:	40003c00 	.word	0x40003c00
 8001a20:	40020800 	.word	0x40020800

08001a24 <HAL_TIM_Base_MspInit>:
 8001a24:	b480      	push	{r7}
 8001a26:	b085      	sub	sp, #20
 8001a28:	af00      	add	r7, sp, #0
 8001a2a:	6078      	str	r0, [r7, #4]
 8001a2c:	687b      	ldr	r3, [r7, #4]
 8001a2e:	681b      	ldr	r3, [r3, #0]
 8001a30:	f1b3 4f80 	cmp.w	r3, #1073741824	; 0x40000000
 8001a34:	d10d      	bne.n	8001a52 <HAL_TIM_Base_MspInit+0x2e>
 8001a36:	2300      	movs	r3, #0
 8001a38:	60fb      	str	r3, [r7, #12]
 8001a3a:	4b09      	ldr	r3, [pc, #36]	; (8001a60 <HAL_TIM_Base_MspInit+0x3c>)
 8001a3c:	6c1b      	ldr	r3, [r3, #64]	; 0x40
 8001a3e:	4a08      	ldr	r2, [pc, #32]	; (8001a60 <HAL_TIM_Base_MspInit+0x3c>)
 8001a40:	f043 0301 	orr.w	r3, r3, #1
 8001a44:	6413      	str	r3, [r2, #64]	; 0x40
 8001a46:	4b06      	ldr	r3, [pc, #24]	; (8001a60 <HAL_TIM_Base_MspInit+0x3c>)
 8001a48:	6c1b      	ldr	r3, [r3, #64]	; 0x40
 8001a4a:	f003 0301 	and.w	r3, r3, #1
 8001a4e:	60fb      	str	r3, [r7, #12]
 8001a50:	68fb      	ldr	r3, [r7, #12]
 8001a52:	bf00      	nop
 8001a54:	3714      	adds	r7, #20
 8001a56:	46bd      	mov	sp, r7
 8001a58:	f85d 7b04 	ldr.w	r7, [sp], #4
 8001a5c:	4770      	bx	lr
 8001a5e:	bf00      	nop
 8001a60:	40023800 	.word	0x40023800

08001a64 <HAL_TIM_PWM_MspInit>:
 8001a64:	b480      	push	{r7}
 8001a66:	b085      	sub	sp, #20
 8001a68:	af00      	add	r7, sp, #0
 8001a6a:	6078      	str	r0, [r7, #4]
 8001a6c:	687b      	ldr	r3, [r7, #4]
 8001a6e:	681b      	ldr	r3, [r3, #0]
 8001a70:	4a0b      	ldr	r2, [pc, #44]	; (8001aa0 <HAL_TIM_PWM_MspInit+0x3c>)
 8001a72:	4293      	cmp	r3, r2
 8001a74:	d10d      	bne.n	8001a92 <HAL_TIM_PWM_MspInit+0x2e>
 8001a76:	2300      	movs	r3, #0
 8001a78:	60fb      	str	r3, [r7, #12]
 8001a7a:	4b0a      	ldr	r3, [pc, #40]	; (8001aa4 <HAL_TIM_PWM_MspInit+0x40>)
 8001a7c:	6c1b      	ldr	r3, [r3, #64]	; 0x40
 8001a7e:	4a09      	ldr	r2, [pc, #36]	; (8001aa4 <HAL_TIM_PWM_MspInit+0x40>)
 8001a80:	f043 0302 	orr.w	r3, r3, #2
 8001a84:	6413      	str	r3, [r2, #64]	; 0x40
 8001a86:	4b07      	ldr	r3, [pc, #28]	; (8001aa4 <HAL_TIM_PWM_MspInit+0x40>)
 8001a88:	6c1b      	ldr	r3, [r3, #64]	; 0x40
 8001a8a:	f003 0302 	and.w	r3, r3, #2
 8001a8e:	60fb      	str	r3, [r7, #12]
 8001a90:	68fb      	ldr	r3, [r7, #12]
 8001a92:	bf00      	nop
 8001a94:	3714      	adds	r7, #20
 8001a96:	46bd      	mov	sp, r7
 8001a98:	f85d 7b04 	ldr.w	r7, [sp], #4
 8001a9c:	4770      	bx	lr
 8001a9e:	bf00      	nop
 8001aa0:	40000400 	.word	0x40000400
 8001aa4:	40023800 	.word	0x40023800

08001aa8 <HAL_TIM_MspPostInit>:
 8001aa8:	b580      	push	{r7, lr}
 8001aaa:	b08a      	sub	sp, #40	; 0x28
 8001aac:	af00      	add	r7, sp, #0
 8001aae:	6078      	str	r0, [r7, #4]
 8001ab0:	f107 0314 	add.w	r3, r7, #20
 8001ab4:	2200      	movs	r2, #0
 8001ab6:	601a      	str	r2, [r3, #0]
 8001ab8:	605a      	str	r2, [r3, #4]
 8001aba:	609a      	str	r2, [r3, #8]
 8001abc:	60da      	str	r2, [r3, #12]
 8001abe:	611a      	str	r2, [r3, #16]
 8001ac0:	687b      	ldr	r3, [r7, #4]
 8001ac2:	681b      	ldr	r3, [r3, #0]
 8001ac4:	f1b3 4f80 	cmp.w	r3, #1073741824	; 0x40000000
 8001ac8:	d11e      	bne.n	8001b08 <HAL_TIM_MspPostInit+0x60>
 8001aca:	2300      	movs	r3, #0
 8001acc:	613b      	str	r3, [r7, #16]
 8001ace:	4b22      	ldr	r3, [pc, #136]	; (8001b58 <HAL_TIM_MspPostInit+0xb0>)
 8001ad0:	6b1b      	ldr	r3, [r3, #48]	; 0x30
 8001ad2:	4a21      	ldr	r2, [pc, #132]	; (8001b58 <HAL_TIM_MspPostInit+0xb0>)
 8001ad4:	f043 0301 	orr.w	r3, r3, #1
 8001ad8:	6313      	str	r3, [r2, #48]	; 0x30
 8001ada:	4b1f      	ldr	r3, [pc, #124]	; (8001b58 <HAL_TIM_MspPostInit+0xb0>)
 8001adc:	6b1b      	ldr	r3, [r3, #48]	; 0x30
 8001ade:	f003 0301 	and.w	r3, r3, #1
 8001ae2:	613b      	str	r3, [r7, #16]
 8001ae4:	693b      	ldr	r3, [r7, #16]
 8001ae6:	2307      	movs	r3, #7
 8001ae8:	617b      	str	r3, [r7, #20]
 8001aea:	2302      	movs	r3, #2
 8001aec:	61bb      	str	r3, [r7, #24]
 8001aee:	2300      	movs	r3, #0
 8001af0:	61fb      	str	r3, [r7, #28]
 8001af2:	2300      	movs	r3, #0
 8001af4:	623b      	str	r3, [r7, #32]
 8001af6:	2301      	movs	r3, #1
 8001af8:	627b      	str	r3, [r7, #36]	; 0x24
 8001afa:	f107 0314 	add.w	r3, r7, #20
 8001afe:	4619      	mov	r1, r3
 8001b00:	4816      	ldr	r0, [pc, #88]	; (8001b5c <HAL_TIM_MspPostInit+0xb4>)
 8001b02:	f000 fde9 	bl	80026d8 <HAL_GPIO_Init>
 8001b06:	e023      	b.n	8001b50 <HAL_TIM_MspPostInit+0xa8>
 8001b08:	687b      	ldr	r3, [r7, #4]
 8001b0a:	681b      	ldr	r3, [r3, #0]
 8001b0c:	4a14      	ldr	r2, [pc, #80]	; (8001b60 <HAL_TIM_MspPostInit+0xb8>)
 8001b0e:	4293      	cmp	r3, r2
 8001b10:	d11e      	bne.n	8001b50 <HAL_TIM_MspPostInit+0xa8>
 8001b12:	2300      	movs	r3, #0
 8001b14:	60fb      	str	r3, [r7, #12]
 8001b16:	4b10      	ldr	r3, [pc, #64]	; (8001b58 <HAL_TIM_MspPostInit+0xb0>)
 8001b18:	6b1b      	ldr	r3, [r3, #48]	; 0x30
 8001b1a:	4a0f      	ldr	r2, [pc, #60]	; (8001b58 <HAL_TIM_MspPostInit+0xb0>)
 8001b1c:	f043 0304 	orr.w	r3, r3, #4
 8001b20:	6313      	str	r3, [r2, #48]	; 0x30
 8001b22:	4b0d      	ldr	r3, [pc, #52]	; (8001b58 <HAL_TIM_MspPostInit+0xb0>)
 8001b24:	6b1b      	ldr	r3, [r3, #48]	; 0x30
 8001b26:	f003 0304 	and.w	r3, r3, #4
 8001b2a:	60fb      	str	r3, [r7, #12]
 8001b2c:	68fb      	ldr	r3, [r7, #12]
 8001b2e:	f44f 7380 	mov.w	r3, #256	; 0x100
 8001b32:	617b      	str	r3, [r7, #20]
 8001b34:	2302      	movs	r3, #2
 8001b36:	61bb      	str	r3, [r7, #24]
 8001b38:	2300      	movs	r3, #0
 8001b3a:	61fb      	str	r3, [r7, #28]
 8001b3c:	2300      	movs	r3, #0
 8001b3e:	623b      	str	r3, [r7, #32]
 8001b40:	2302      	movs	r3, #2
 8001b42:	627b      	str	r3, [r7, #36]	; 0x24
 8001b44:	f107 0314 	add.w	r3, r7, #20
 8001b48:	4619      	mov	r1, r3
 8001b4a:	4806      	ldr	r0, [pc, #24]	; (8001b64 <HAL_TIM_MspPostInit+0xbc>)
 8001b4c:	f000 fdc4 	bl	80026d8 <HAL_GPIO_Init>
 8001b50:	bf00      	nop
 8001b52:	3728      	adds	r7, #40	; 0x28
 8001b54:	46bd      	mov	sp, r7
 8001b56:	bd80      	pop	{r7, pc}
 8001b58:	40023800 	.word	0x40023800
 8001b5c:	40020000 	.word	0x40020000
 8001b60:	40000400 	.word	0x40000400
 8001b64:	40020800 	.word	0x40020800

08001b68 <HAL_UART_MspInit>:
 8001b68:	b580      	push	{r7, lr}
 8001b6a:	b090      	sub	sp, #64	; 0x40
 8001b6c:	af00      	add	r7, sp, #0
 8001b6e:	6078      	str	r0, [r7, #4]
 8001b70:	f107 032c 	add.w	r3, r7, #44	; 0x2c
 8001b74:	2200      	movs	r2, #0
 8001b76:	601a      	str	r2, [r3, #0]
 8001b78:	605a      	str	r2, [r3, #4]
 8001b7a:	609a      	str	r2, [r3, #8]
 8001b7c:	60da      	str	r2, [r3, #12]
 8001b7e:	611a      	str	r2, [r3, #16]
 8001b80:	687b      	ldr	r3, [r7, #4]
 8001b82:	681b      	ldr	r3, [r3, #0]
 8001b84:	4a64      	ldr	r2, [pc, #400]	; (8001d18 <HAL_UART_MspInit+0x1b0>)
 8001b86:	4293      	cmp	r3, r2
 8001b88:	d12c      	bne.n	8001be4 <HAL_UART_MspInit+0x7c>
 8001b8a:	2300      	movs	r3, #0
 8001b8c:	62bb      	str	r3, [r7, #40]	; 0x28
 8001b8e:	4b63      	ldr	r3, [pc, #396]	; (8001d1c <HAL_UART_MspInit+0x1b4>)
 8001b90:	6c5b      	ldr	r3, [r3, #68]	; 0x44
 8001b92:	4a62      	ldr	r2, [pc, #392]	; (8001d1c <HAL_UART_MspInit+0x1b4>)
 8001b94:	f043 0310 	orr.w	r3, r3, #16
 8001b98:	6453      	str	r3, [r2, #68]	; 0x44
 8001b9a:	4b60      	ldr	r3, [pc, #384]	; (8001d1c <HAL_UART_MspInit+0x1b4>)
 8001b9c:	6c5b      	ldr	r3, [r3, #68]	; 0x44
 8001b9e:	f003 0310 	and.w	r3, r3, #16
 8001ba2:	62bb      	str	r3, [r7, #40]	; 0x28
 8001ba4:	6abb      	ldr	r3, [r7, #40]	; 0x28
 8001ba6:	2300      	movs	r3, #0
 8001ba8:	627b      	str	r3, [r7, #36]	; 0x24
 8001baa:	4b5c      	ldr	r3, [pc, #368]	; (8001d1c <HAL_UART_MspInit+0x1b4>)
 8001bac:	6b1b      	ldr	r3, [r3, #48]	; 0x30
 8001bae:	4a5b      	ldr	r2, [pc, #364]	; (8001d1c <HAL_UART_MspInit+0x1b4>)
 8001bb0:	f043 0302 	orr.w	r3, r3, #2
 8001bb4:	6313      	str	r3, [r2, #48]	; 0x30
 8001bb6:	4b59      	ldr	r3, [pc, #356]	; (8001d1c <HAL_UART_MspInit+0x1b4>)
 8001bb8:	6b1b      	ldr	r3, [r3, #48]	; 0x30
 8001bba:	f003 0302 	and.w	r3, r3, #2
 8001bbe:	627b      	str	r3, [r7, #36]	; 0x24
 8001bc0:	6a7b      	ldr	r3, [r7, #36]	; 0x24
 8001bc2:	23c0      	movs	r3, #192	; 0xc0
 8001bc4:	62fb      	str	r3, [r7, #44]	; 0x2c
 8001bc6:	2302      	movs	r3, #2
 8001bc8:	633b      	str	r3, [r7, #48]	; 0x30
 8001bca:	2300      	movs	r3, #0
 8001bcc:	637b      	str	r3, [r7, #52]	; 0x34
 8001bce:	2303      	movs	r3, #3
 8001bd0:	63bb      	str	r3, [r7, #56]	; 0x38
 8001bd2:	2307      	movs	r3, #7
 8001bd4:	63fb      	str	r3, [r7, #60]	; 0x3c
 8001bd6:	f107 032c 	add.w	r3, r7, #44	; 0x2c
 8001bda:	4619      	mov	r1, r3
 8001bdc:	4850      	ldr	r0, [pc, #320]	; (8001d20 <HAL_UART_MspInit+0x1b8>)
 8001bde:	f000 fd7b 	bl	80026d8 <HAL_GPIO_Init>
 8001be2:	e095      	b.n	8001d10 <HAL_UART_MspInit+0x1a8>
 8001be4:	687b      	ldr	r3, [r7, #4]
 8001be6:	681b      	ldr	r3, [r3, #0]
 8001be8:	4a4e      	ldr	r2, [pc, #312]	; (8001d24 <HAL_UART_MspInit+0x1bc>)
 8001bea:	4293      	cmp	r3, r2
 8001bec:	d12c      	bne.n	8001c48 <HAL_UART_MspInit+0xe0>
 8001bee:	2300      	movs	r3, #0
 8001bf0:	623b      	str	r3, [r7, #32]
 8001bf2:	4b4a      	ldr	r3, [pc, #296]	; (8001d1c <HAL_UART_MspInit+0x1b4>)
 8001bf4:	6c1b      	ldr	r3, [r3, #64]	; 0x40
 8001bf6:	4a49      	ldr	r2, [pc, #292]	; (8001d1c <HAL_UART_MspInit+0x1b4>)
 8001bf8:	f443 3300 	orr.w	r3, r3, #131072	; 0x20000
 8001bfc:	6413      	str	r3, [r2, #64]	; 0x40
 8001bfe:	4b47      	ldr	r3, [pc, #284]	; (8001d1c <HAL_UART_MspInit+0x1b4>)
 8001c00:	6c1b      	ldr	r3, [r3, #64]	; 0x40
 8001c02:	f403 3300 	and.w	r3, r3, #131072	; 0x20000
 8001c06:	623b      	str	r3, [r7, #32]
 8001c08:	6a3b      	ldr	r3, [r7, #32]
 8001c0a:	2300      	movs	r3, #0
 8001c0c:	61fb      	str	r3, [r7, #28]
 8001c0e:	4b43      	ldr	r3, [pc, #268]	; (8001d1c <HAL_UART_MspInit+0x1b4>)
 8001c10:	6b1b      	ldr	r3, [r3, #48]	; 0x30
 8001c12:	4a42      	ldr	r2, [pc, #264]	; (8001d1c <HAL_UART_MspInit+0x1b4>)
 8001c14:	f043 0308 	orr.w	r3, r3, #8
 8001c18:	6313      	str	r3, [r2, #48]	; 0x30
 8001c1a:	4b40      	ldr	r3, [pc, #256]	; (8001d1c <HAL_UART_MspInit+0x1b4>)
 8001c1c:	6b1b      	ldr	r3, [r3, #48]	; 0x30
 8001c1e:	f003 0308 	and.w	r3, r3, #8
 8001c22:	61fb      	str	r3, [r7, #28]
 8001c24:	69fb      	ldr	r3, [r7, #28]
 8001c26:	2360      	movs	r3, #96	; 0x60
 8001c28:	62fb      	str	r3, [r7, #44]	; 0x2c
 8001c2a:	2302      	movs	r3, #2
 8001c2c:	633b      	str	r3, [r7, #48]	; 0x30
 8001c2e:	2300      	movs	r3, #0
 8001c30:	637b      	str	r3, [r7, #52]	; 0x34
 8001c32:	2303      	movs	r3, #3
 8001c34:	63bb      	str	r3, [r7, #56]	; 0x38
 8001c36:	2307      	movs	r3, #7
 8001c38:	63fb      	str	r3, [r7, #60]	; 0x3c
 8001c3a:	f107 032c 	add.w	r3, r7, #44	; 0x2c
 8001c3e:	4619      	mov	r1, r3
 8001c40:	4839      	ldr	r0, [pc, #228]	; (8001d28 <HAL_UART_MspInit+0x1c0>)
 8001c42:	f000 fd49 	bl	80026d8 <HAL_GPIO_Init>
 8001c46:	e063      	b.n	8001d10 <HAL_UART_MspInit+0x1a8>
 8001c48:	687b      	ldr	r3, [r7, #4]
 8001c4a:	681b      	ldr	r3, [r3, #0]
 8001c4c:	4a37      	ldr	r2, [pc, #220]	; (8001d2c <HAL_UART_MspInit+0x1c4>)
 8001c4e:	4293      	cmp	r3, r2
 8001c50:	d12d      	bne.n	8001cae <HAL_UART_MspInit+0x146>
 8001c52:	2300      	movs	r3, #0
 8001c54:	61bb      	str	r3, [r7, #24]
 8001c56:	4b31      	ldr	r3, [pc, #196]	; (8001d1c <HAL_UART_MspInit+0x1b4>)
 8001c58:	6c1b      	ldr	r3, [r3, #64]	; 0x40
 8001c5a:	4a30      	ldr	r2, [pc, #192]	; (8001d1c <HAL_UART_MspInit+0x1b4>)
 8001c5c:	f443 2380 	orr.w	r3, r3, #262144	; 0x40000
 8001c60:	6413      	str	r3, [r2, #64]	; 0x40
 8001c62:	4b2e      	ldr	r3, [pc, #184]	; (8001d1c <HAL_UART_MspInit+0x1b4>)
 8001c64:	6c1b      	ldr	r3, [r3, #64]	; 0x40
 8001c66:	f403 2380 	and.w	r3, r3, #262144	; 0x40000
 8001c6a:	61bb      	str	r3, [r7, #24]
 8001c6c:	69bb      	ldr	r3, [r7, #24]
 8001c6e:	2300      	movs	r3, #0
 8001c70:	617b      	str	r3, [r7, #20]
 8001c72:	4b2a      	ldr	r3, [pc, #168]	; (8001d1c <HAL_UART_MspInit+0x1b4>)
 8001c74:	6b1b      	ldr	r3, [r3, #48]	; 0x30
 8001c76:	4a29      	ldr	r2, [pc, #164]	; (8001d1c <HAL_UART_MspInit+0x1b4>)
 8001c78:	f043 0308 	orr.w	r3, r3, #8
 8001c7c:	6313      	str	r3, [r2, #48]	; 0x30
 8001c7e:	4b27      	ldr	r3, [pc, #156]	; (8001d1c <HAL_UART_MspInit+0x1b4>)
 8001c80:	6b1b      	ldr	r3, [r3, #48]	; 0x30
 8001c82:	f003 0308 	and.w	r3, r3, #8
 8001c86:	617b      	str	r3, [r7, #20]
 8001c88:	697b      	ldr	r3, [r7, #20]
 8001c8a:	f44f 7340 	mov.w	r3, #768	; 0x300
 8001c8e:	62fb      	str	r3, [r7, #44]	; 0x2c
 8001c90:	2302      	movs	r3, #2
 8001c92:	633b      	str	r3, [r7, #48]	; 0x30
 8001c94:	2300      	movs	r3, #0
 8001c96:	637b      	str	r3, [r7, #52]	; 0x34
 8001c98:	2303      	movs	r3, #3
 8001c9a:	63bb      	str	r3, [r7, #56]	; 0x38
 8001c9c:	2307      	movs	r3, #7
 8001c9e:	63fb      	str	r3, [r7, #60]	; 0x3c
 8001ca0:	f107 032c 	add.w	r3, r7, #44	; 0x2c
 8001ca4:	4619      	mov	r1, r3
 8001ca6:	4820      	ldr	r0, [pc, #128]	; (8001d28 <HAL_UART_MspInit+0x1c0>)
 8001ca8:	f000 fd16 	bl	80026d8 <HAL_GPIO_Init>
 8001cac:	e030      	b.n	8001d10 <HAL_UART_MspInit+0x1a8>
 8001cae:	687b      	ldr	r3, [r7, #4]
 8001cb0:	681b      	ldr	r3, [r3, #0]
 8001cb2:	4a1f      	ldr	r2, [pc, #124]	; (8001d30 <HAL_UART_MspInit+0x1c8>)
 8001cb4:	4293      	cmp	r3, r2
 8001cb6:	d12b      	bne.n	8001d10 <HAL_UART_MspInit+0x1a8>
 8001cb8:	2300      	movs	r3, #0
 8001cba:	613b      	str	r3, [r7, #16]
 8001cbc:	4b17      	ldr	r3, [pc, #92]	; (8001d1c <HAL_UART_MspInit+0x1b4>)
 8001cbe:	6c5b      	ldr	r3, [r3, #68]	; 0x44
 8001cc0:	4a16      	ldr	r2, [pc, #88]	; (8001d1c <HAL_UART_MspInit+0x1b4>)
 8001cc2:	f043 0320 	orr.w	r3, r3, #32
 8001cc6:	6453      	str	r3, [r2, #68]	; 0x44
 8001cc8:	4b14      	ldr	r3, [pc, #80]	; (8001d1c <HAL_UART_MspInit+0x1b4>)
 8001cca:	6c5b      	ldr	r3, [r3, #68]	; 0x44
 8001ccc:	f003 0320 	and.w	r3, r3, #32
 8001cd0:	613b      	str	r3, [r7, #16]
 8001cd2:	693b      	ldr	r3, [r7, #16]
 8001cd4:	2300      	movs	r3, #0
 8001cd6:	60fb      	str	r3, [r7, #12]
 8001cd8:	4b10      	ldr	r3, [pc, #64]	; (8001d1c <HAL_UART_MspInit+0x1b4>)
 8001cda:	6b1b      	ldr	r3, [r3, #48]	; 0x30
 8001cdc:	4a0f      	ldr	r2, [pc, #60]	; (8001d1c <HAL_UART_MspInit+0x1b4>)
 8001cde:	f043 0304 	orr.w	r3, r3, #4
 8001ce2:	6313      	str	r3, [r2, #48]	; 0x30
 8001ce4:	4b0d      	ldr	r3, [pc, #52]	; (8001d1c <HAL_UART_MspInit+0x1b4>)
 8001ce6:	6b1b      	ldr	r3, [r3, #48]	; 0x30
 8001ce8:	f003 0304 	and.w	r3, r3, #4
 8001cec:	60fb      	str	r3, [r7, #12]
 8001cee:	68fb      	ldr	r3, [r7, #12]
 8001cf0:	23c0      	movs	r3, #192	; 0xc0
 8001cf2:	62fb      	str	r3, [r7, #44]	; 0x2c
 8001cf4:	2302      	movs	r3, #2
 8001cf6:	633b      	str	r3, [r7, #48]	; 0x30
 8001cf8:	2300      	movs	r3, #0
 8001cfa:	637b      	str	r3, [r7, #52]	; 0x34
 8001cfc:	2303      	movs	r3, #3
 8001cfe:	63bb      	str	r3, [r7, #56]	; 0x38
 8001d00:	2308      	movs	r3, #8
 8001d02:	63fb      	str	r3, [r7, #60]	; 0x3c
 8001d04:	f107 032c 	add.w	r3, r7, #44	; 0x2c
 8001d08:	4619      	mov	r1, r3
 8001d0a:	480a      	ldr	r0, [pc, #40]	; (8001d34 <HAL_UART_MspInit+0x1cc>)
 8001d0c:	f000 fce4 	bl	80026d8 <HAL_GPIO_Init>
 8001d10:	bf00      	nop
 8001d12:	3740      	adds	r7, #64	; 0x40
 8001d14:	46bd      	mov	sp, r7
 8001d16:	bd80      	pop	{r7, pc}
 8001d18:	40011000 	.word	0x40011000
 8001d1c:	40023800 	.word	0x40023800
 8001d20:	40020400 	.word	0x40020400
 8001d24:	40004400 	.word	0x40004400
 8001d28:	40020c00 	.word	0x40020c00
 8001d2c:	40004800 	.word	0x40004800
 8001d30:	40011400 	.word	0x40011400
 8001d34:	40020800 	.word	0x40020800

08001d38 <HAL_PCD_MspInit>:
 8001d38:	b580      	push	{r7, lr}
 8001d3a:	b08a      	sub	sp, #40	; 0x28
 8001d3c:	af00      	add	r7, sp, #0
 8001d3e:	6078      	str	r0, [r7, #4]
 8001d40:	f107 0314 	add.w	r3, r7, #20
 8001d44:	2200      	movs	r2, #0
 8001d46:	601a      	str	r2, [r3, #0]
 8001d48:	605a      	str	r2, [r3, #4]
 8001d4a:	609a      	str	r2, [r3, #8]
 8001d4c:	60da      	str	r2, [r3, #12]
 8001d4e:	611a      	str	r2, [r3, #16]
 8001d50:	687b      	ldr	r3, [r7, #4]
 8001d52:	681b      	ldr	r3, [r3, #0]
 8001d54:	f1b3 4fa0 	cmp.w	r3, #1342177280	; 0x50000000
 8001d58:	d147      	bne.n	8001dea <HAL_PCD_MspInit+0xb2>
 8001d5a:	2300      	movs	r3, #0
 8001d5c:	613b      	str	r3, [r7, #16]
 8001d5e:	4b25      	ldr	r3, [pc, #148]	; (8001df4 <HAL_PCD_MspInit+0xbc>)
 8001d60:	6b1b      	ldr	r3, [r3, #48]	; 0x30
 8001d62:	4a24      	ldr	r2, [pc, #144]	; (8001df4 <HAL_PCD_MspInit+0xbc>)
 8001d64:	f043 0301 	orr.w	r3, r3, #1
 8001d68:	6313      	str	r3, [r2, #48]	; 0x30
 8001d6a:	4b22      	ldr	r3, [pc, #136]	; (8001df4 <HAL_PCD_MspInit+0xbc>)
 8001d6c:	6b1b      	ldr	r3, [r3, #48]	; 0x30
 8001d6e:	f003 0301 	and.w	r3, r3, #1
 8001d72:	613b      	str	r3, [r7, #16]
 8001d74:	693b      	ldr	r3, [r7, #16]
 8001d76:	f44f 7300 	mov.w	r3, #512	; 0x200
 8001d7a:	617b      	str	r3, [r7, #20]
 8001d7c:	2300      	movs	r3, #0
 8001d7e:	61bb      	str	r3, [r7, #24]
 8001d80:	2300      	movs	r3, #0
 8001d82:	61fb      	str	r3, [r7, #28]
 8001d84:	f107 0314 	add.w	r3, r7, #20
 8001d88:	4619      	mov	r1, r3
 8001d8a:	481b      	ldr	r0, [pc, #108]	; (8001df8 <HAL_PCD_MspInit+0xc0>)
 8001d8c:	f000 fca4 	bl	80026d8 <HAL_GPIO_Init>
 8001d90:	f44f 53c0 	mov.w	r3, #6144	; 0x1800
 8001d94:	617b      	str	r3, [r7, #20]
 8001d96:	2302      	movs	r3, #2
 8001d98:	61bb      	str	r3, [r7, #24]
 8001d9a:	2300      	movs	r3, #0
 8001d9c:	61fb      	str	r3, [r7, #28]
 8001d9e:	2300      	movs	r3, #0
 8001da0:	623b      	str	r3, [r7, #32]
 8001da2:	230a      	movs	r3, #10
 8001da4:	627b      	str	r3, [r7, #36]	; 0x24
 8001da6:	f107 0314 	add.w	r3, r7, #20
 8001daa:	4619      	mov	r1, r3
 8001dac:	4812      	ldr	r0, [pc, #72]	; (8001df8 <HAL_PCD_MspInit+0xc0>)
 8001dae:	f000 fc93 	bl	80026d8 <HAL_GPIO_Init>
 8001db2:	4b10      	ldr	r3, [pc, #64]	; (8001df4 <HAL_PCD_MspInit+0xbc>)
 8001db4:	6b5b      	ldr	r3, [r3, #52]	; 0x34
 8001db6:	4a0f      	ldr	r2, [pc, #60]	; (8001df4 <HAL_PCD_MspInit+0xbc>)
 8001db8:	f043 0380 	orr.w	r3, r3, #128	; 0x80
 8001dbc:	6353      	str	r3, [r2, #52]	; 0x34
 8001dbe:	2300      	movs	r3, #0
 8001dc0:	60fb      	str	r3, [r7, #12]
 8001dc2:	4b0c      	ldr	r3, [pc, #48]	; (8001df4 <HAL_PCD_MspInit+0xbc>)
 8001dc4:	6c5b      	ldr	r3, [r3, #68]	; 0x44
 8001dc6:	4a0b      	ldr	r2, [pc, #44]	; (8001df4 <HAL_PCD_MspInit+0xbc>)
 8001dc8:	f443 4380 	orr.w	r3, r3, #16384	; 0x4000
 8001dcc:	6453      	str	r3, [r2, #68]	; 0x44
 8001dce:	4b09      	ldr	r3, [pc, #36]	; (8001df4 <HAL_PCD_MspInit+0xbc>)
 8001dd0:	6c5b      	ldr	r3, [r3, #68]	; 0x44
 8001dd2:	f403 4380 	and.w	r3, r3, #16384	; 0x4000
 8001dd6:	60fb      	str	r3, [r7, #12]
 8001dd8:	68fb      	ldr	r3, [r7, #12]
 8001dda:	2200      	movs	r2, #0
 8001ddc:	2100      	movs	r1, #0
 8001dde:	2043      	movs	r0, #67	; 0x43
 8001de0:	f000 fc50 	bl	8002684 <HAL_NVIC_SetPriority>
 8001de4:	2043      	movs	r0, #67	; 0x43
 8001de6:	f000 fc69 	bl	80026bc <HAL_NVIC_EnableIRQ>
 8001dea:	bf00      	nop
 8001dec:	3728      	adds	r7, #40	; 0x28
 8001dee:	46bd      	mov	sp, r7
 8001df0:	bd80      	pop	{r7, pc}
 8001df2:	bf00      	nop
 8001df4:	40023800 	.word	0x40023800
 8001df8:	40020000 	.word	0x40020000

08001dfc <HAL_InitTick>:
 8001dfc:	b580      	push	{r7, lr}
 8001dfe:	b08c      	sub	sp, #48	; 0x30
 8001e00:	af00      	add	r7, sp, #0
 8001e02:	6078      	str	r0, [r7, #4]
 8001e04:	2300      	movs	r3, #0
 8001e06:	62fb      	str	r3, [r7, #44]	; 0x2c
 8001e08:	2300      	movs	r3, #0
 8001e0a:	62bb      	str	r3, [r7, #40]	; 0x28
 8001e0c:	2200      	movs	r2, #0
 8001e0e:	6879      	ldr	r1, [r7, #4]
 8001e10:	2036      	movs	r0, #54	; 0x36
 8001e12:	f000 fc37 	bl	8002684 <HAL_NVIC_SetPriority>
 8001e16:	2036      	movs	r0, #54	; 0x36
 8001e18:	f000 fc50 	bl	80026bc <HAL_NVIC_EnableIRQ>
 8001e1c:	2300      	movs	r3, #0
 8001e1e:	60fb      	str	r3, [r7, #12]
 8001e20:	4b1e      	ldr	r3, [pc, #120]	; (8001e9c <HAL_InitTick+0xa0>)
 8001e22:	6c1b      	ldr	r3, [r3, #64]	; 0x40
 8001e24:	4a1d      	ldr	r2, [pc, #116]	; (8001e9c <HAL_InitTick+0xa0>)
 8001e26:	f043 0310 	orr.w	r3, r3, #16
 8001e2a:	6413      	str	r3, [r2, #64]	; 0x40
 8001e2c:	4b1b      	ldr	r3, [pc, #108]	; (8001e9c <HAL_InitTick+0xa0>)
 8001e2e:	6c1b      	ldr	r3, [r3, #64]	; 0x40
 8001e30:	f003 0310 	and.w	r3, r3, #16
 8001e34:	60fb      	str	r3, [r7, #12]
 8001e36:	68fb      	ldr	r3, [r7, #12]
 8001e38:	f107 0210 	add.w	r2, r7, #16
 8001e3c:	f107 0314 	add.w	r3, r7, #20
 8001e40:	4611      	mov	r1, r2
 8001e42:	4618      	mov	r0, r3
 8001e44:	f002 fac6 	bl	80043d4 <HAL_RCC_GetClockConfig>
 8001e48:	f002 fa9c 	bl	8004384 <HAL_RCC_GetPCLK1Freq>
 8001e4c:	62f8      	str	r0, [r7, #44]	; 0x2c
 8001e4e:	6afb      	ldr	r3, [r7, #44]	; 0x2c
 8001e50:	4a13      	ldr	r2, [pc, #76]	; (8001ea0 <HAL_InitTick+0xa4>)
 8001e52:	fba2 2303 	umull	r2, r3, r2, r3
 8001e56:	0c9b      	lsrs	r3, r3, #18
 8001e58:	3b01      	subs	r3, #1
 8001e5a:	62bb      	str	r3, [r7, #40]	; 0x28
 8001e5c:	4b11      	ldr	r3, [pc, #68]	; (8001ea4 <HAL_InitTick+0xa8>)
 8001e5e:	4a12      	ldr	r2, [pc, #72]	; (8001ea8 <HAL_InitTick+0xac>)
 8001e60:	601a      	str	r2, [r3, #0]
 8001e62:	4b10      	ldr	r3, [pc, #64]	; (8001ea4 <HAL_InitTick+0xa8>)
 8001e64:	f240 32e7 	movw	r2, #999	; 0x3e7
 8001e68:	60da      	str	r2, [r3, #12]
 8001e6a:	4a0e      	ldr	r2, [pc, #56]	; (8001ea4 <HAL_InitTick+0xa8>)
 8001e6c:	6abb      	ldr	r3, [r7, #40]	; 0x28
 8001e6e:	6053      	str	r3, [r2, #4]
 8001e70:	4b0c      	ldr	r3, [pc, #48]	; (8001ea4 <HAL_InitTick+0xa8>)
 8001e72:	2200      	movs	r2, #0
 8001e74:	611a      	str	r2, [r3, #16]
 8001e76:	4b0b      	ldr	r3, [pc, #44]	; (8001ea4 <HAL_InitTick+0xa8>)
 8001e78:	2200      	movs	r2, #0
 8001e7a:	609a      	str	r2, [r3, #8]
 8001e7c:	4809      	ldr	r0, [pc, #36]	; (8001ea4 <HAL_InitTick+0xa8>)
 8001e7e:	f002 fb3f 	bl	8004500 <HAL_TIM_Base_Init>
 8001e82:	4603      	mov	r3, r0
 8001e84:	2b00      	cmp	r3, #0
 8001e86:	d104      	bne.n	8001e92 <HAL_InitTick+0x96>
 8001e88:	4806      	ldr	r0, [pc, #24]	; (8001ea4 <HAL_InitTick+0xa8>)
 8001e8a:	f002 fb64 	bl	8004556 <HAL_TIM_Base_Start_IT>
 8001e8e:	4603      	mov	r3, r0
 8001e90:	e000      	b.n	8001e94 <HAL_InitTick+0x98>
 8001e92:	2301      	movs	r3, #1
 8001e94:	4618      	mov	r0, r3
 8001e96:	3730      	adds	r7, #48	; 0x30
 8001e98:	46bd      	mov	sp, r7
 8001e9a:	bd80      	pop	{r7, pc}
 8001e9c:	40023800 	.word	0x40023800
 8001ea0:	431bde83 	.word	0x431bde83
 8001ea4:	20006194 	.word	0x20006194
 8001ea8:	40001000 	.word	0x40001000

08001eac <NMI_Handler>:
 8001eac:	b480      	push	{r7}
 8001eae:	af00      	add	r7, sp, #0
 8001eb0:	bf00      	nop
 8001eb2:	46bd      	mov	sp, r7
 8001eb4:	f85d 7b04 	ldr.w	r7, [sp], #4
 8001eb8:	4770      	bx	lr

08001eba <HardFault_Handler>:
 8001eba:	b480      	push	{r7}
 8001ebc:	af00      	add	r7, sp, #0
 8001ebe:	e7fe      	b.n	8001ebe <HardFault_Handler+0x4>

08001ec0 <MemManage_Handler>:
 8001ec0:	b480      	push	{r7}
 8001ec2:	af00      	add	r7, sp, #0
 8001ec4:	e7fe      	b.n	8001ec4 <MemManage_Handler+0x4>

08001ec6 <BusFault_Handler>:
 8001ec6:	b480      	push	{r7}
 8001ec8:	af00      	add	r7, sp, #0
 8001eca:	e7fe      	b.n	8001eca <BusFault_Handler+0x4>

08001ecc <UsageFault_Handler>:
 8001ecc:	b480      	push	{r7}
 8001ece:	af00      	add	r7, sp, #0
 8001ed0:	e7fe      	b.n	8001ed0 <UsageFault_Handler+0x4>

08001ed2 <DebugMon_Handler>:
 8001ed2:	b480      	push	{r7}
 8001ed4:	af00      	add	r7, sp, #0
 8001ed6:	bf00      	nop
 8001ed8:	46bd      	mov	sp, r7
 8001eda:	f85d 7b04 	ldr.w	r7, [sp], #4
 8001ede:	4770      	bx	lr

08001ee0 <TIM6_DAC_IRQHandler>:
 8001ee0:	b580      	push	{r7, lr}
 8001ee2:	af00      	add	r7, sp, #0
 8001ee4:	4802      	ldr	r0, [pc, #8]	; (8001ef0 <TIM6_DAC_IRQHandler+0x10>)
 8001ee6:	f002 fc1b 	bl	8004720 <HAL_TIM_IRQHandler>
 8001eea:	bf00      	nop
 8001eec:	bd80      	pop	{r7, pc}
 8001eee:	bf00      	nop
 8001ef0:	20006194 	.word	0x20006194

08001ef4 <OTG_FS_IRQHandler>:
 8001ef4:	b580      	push	{r7, lr}
 8001ef6:	af00      	add	r7, sp, #0
 8001ef8:	4802      	ldr	r0, [pc, #8]	; (8001f04 <OTG_FS_IRQHandler+0x10>)
 8001efa:	f000 fff6 	bl	8002eea <HAL_PCD_IRQHandler>
 8001efe:	bf00      	nop
 8001f00:	bd80      	pop	{r7, pc}
 8001f02:	bf00      	nop
 8001f04:	200050a8 	.word	0x200050a8

08001f08 <SystemInit>:
 8001f08:	b480      	push	{r7}
 8001f0a:	af00      	add	r7, sp, #0
 8001f0c:	4b08      	ldr	r3, [pc, #32]	; (8001f30 <SystemInit+0x28>)
 8001f0e:	f8d3 3088 	ldr.w	r3, [r3, #136]	; 0x88
 8001f12:	4a07      	ldr	r2, [pc, #28]	; (8001f30 <SystemInit+0x28>)
 8001f14:	f443 0370 	orr.w	r3, r3, #15728640	; 0xf00000
 8001f18:	f8c2 3088 	str.w	r3, [r2, #136]	; 0x88
 8001f1c:	4b04      	ldr	r3, [pc, #16]	; (8001f30 <SystemInit+0x28>)
 8001f1e:	f04f 6200 	mov.w	r2, #134217728	; 0x8000000
 8001f22:	609a      	str	r2, [r3, #8]
 8001f24:	bf00      	nop
 8001f26:	46bd      	mov	sp, r7
 8001f28:	f85d 7b04 	ldr.w	r7, [sp], #4
 8001f2c:	4770      	bx	lr
 8001f2e:	bf00      	nop
 8001f30:	e000ed00 	.word	0xe000ed00

08001f34 <Reset_Handler>:
 8001f34:	f8df d034 	ldr.w	sp, [pc, #52]	; 8001f6c <LoopFillZerobss+0x14>
 8001f38:	2100      	movs	r1, #0
 8001f3a:	e003      	b.n	8001f44 <LoopCopyDataInit>

08001f3c <CopyDataInit>:
 8001f3c:	4b0c      	ldr	r3, [pc, #48]	; (8001f70 <LoopFillZerobss+0x18>)
 8001f3e:	585b      	ldr	r3, [r3, r1]
 8001f40:	5043      	str	r3, [r0, r1]
 8001f42:	3104      	adds	r1, #4

08001f44 <LoopCopyDataInit>:
 8001f44:	480b      	ldr	r0, [pc, #44]	; (8001f74 <LoopFillZerobss+0x1c>)
 8001f46:	4b0c      	ldr	r3, [pc, #48]	; (8001f78 <LoopFillZerobss+0x20>)
 8001f48:	1842      	adds	r2, r0, r1
 8001f4a:	429a      	cmp	r2, r3
 8001f4c:	d3f6      	bcc.n	8001f3c <CopyDataInit>
 8001f4e:	4a0b      	ldr	r2, [pc, #44]	; (8001f7c <LoopFillZerobss+0x24>)
 8001f50:	e002      	b.n	8001f58 <LoopFillZerobss>

08001f52 <FillZerobss>:
 8001f52:	2300      	movs	r3, #0
 8001f54:	f842 3b04 	str.w	r3, [r2], #4

08001f58 <LoopFillZerobss>:
 8001f58:	4b09      	ldr	r3, [pc, #36]	; (8001f80 <LoopFillZerobss+0x28>)
 8001f5a:	429a      	cmp	r2, r3
 8001f5c:	d3f9      	bcc.n	8001f52 <FillZerobss>
 8001f5e:	f7ff ffd3 	bl	8001f08 <SystemInit>
 8001f62:	f007 f83b 	bl	8008fdc <__libc_init_array>
 8001f66:	f7fe fe73 	bl	8000c50 <main>
 8001f6a:	4770      	bx	lr
 8001f6c:	20020000 	.word	0x20020000
 8001f70:	0800923c 	.word	0x0800923c
 8001f74:	20000000 	.word	0x20000000
 8001f78:	20000010 	.word	0x20000010
 8001f7c:	20000010 	.word	0x20000010
 8001f80:	20006218 	.word	0x20006218

08001f84 <ADC_IRQHandler>:
 8001f84:	e7fe      	b.n	8001f84 <ADC_IRQHandler>
	...

08001f88 <HAL_Init>:
 8001f88:	b580      	push	{r7, lr}
 8001f8a:	af00      	add	r7, sp, #0
 8001f8c:	4b0e      	ldr	r3, [pc, #56]	; (8001fc8 <HAL_Init+0x40>)
 8001f8e:	681b      	ldr	r3, [r3, #0]
 8001f90:	4a0d      	ldr	r2, [pc, #52]	; (8001fc8 <HAL_Init+0x40>)
 8001f92:	f443 7300 	orr.w	r3, r3, #512	; 0x200
 8001f96:	6013      	str	r3, [r2, #0]
 8001f98:	4b0b      	ldr	r3, [pc, #44]	; (8001fc8 <HAL_Init+0x40>)
 8001f9a:	681b      	ldr	r3, [r3, #0]
 8001f9c:	4a0a      	ldr	r2, [pc, #40]	; (8001fc8 <HAL_Init+0x40>)
 8001f9e:	f443 6380 	orr.w	r3, r3, #1024	; 0x400
 8001fa2:	6013      	str	r3, [r2, #0]
 8001fa4:	4b08      	ldr	r3, [pc, #32]	; (8001fc8 <HAL_Init+0x40>)
 8001fa6:	681b      	ldr	r3, [r3, #0]
 8001fa8:	4a07      	ldr	r2, [pc, #28]	; (8001fc8 <HAL_Init+0x40>)
 8001faa:	f443 7380 	orr.w	r3, r3, #256	; 0x100
 8001fae:	6013      	str	r3, [r2, #0]
 8001fb0:	2003      	movs	r0, #3
 8001fb2:	f000 fb5c 	bl	800266e <HAL_NVIC_SetPriorityGrouping>
 8001fb6:	2000      	movs	r0, #0
 8001fb8:	f7ff ff20 	bl	8001dfc <HAL_InitTick>
 8001fbc:	f7ff fbb4 	bl	8001728 <HAL_MspInit>
 8001fc0:	2300      	movs	r3, #0
 8001fc2:	4618      	mov	r0, r3
 8001fc4:	bd80      	pop	{r7, pc}
 8001fc6:	bf00      	nop
 8001fc8:	40023c00 	.word	0x40023c00

08001fcc <HAL_IncTick>:
 8001fcc:	b480      	push	{r7}
 8001fce:	af00      	add	r7, sp, #0
 8001fd0:	4b06      	ldr	r3, [pc, #24]	; (8001fec <HAL_IncTick+0x20>)
 8001fd2:	781b      	ldrb	r3, [r3, #0]
 8001fd4:	461a      	mov	r2, r3
 8001fd6:	4b06      	ldr	r3, [pc, #24]	; (8001ff0 <HAL_IncTick+0x24>)
 8001fd8:	681b      	ldr	r3, [r3, #0]
 8001fda:	4413      	add	r3, r2
 8001fdc:	4a04      	ldr	r2, [pc, #16]	; (8001ff0 <HAL_IncTick+0x24>)
 8001fde:	6013      	str	r3, [r2, #0]
 8001fe0:	bf00      	nop
 8001fe2:	46bd      	mov	sp, r7
 8001fe4:	f85d 7b04 	ldr.w	r7, [sp], #4
 8001fe8:	4770      	bx	lr
 8001fea:	bf00      	nop
 8001fec:	20000008 	.word	0x20000008
 8001ff0:	200061d4 	.word	0x200061d4

08001ff4 <HAL_GetTick>:
 8001ff4:	b480      	push	{r7}
 8001ff6:	af00      	add	r7, sp, #0
 8001ff8:	4b03      	ldr	r3, [pc, #12]	; (8002008 <HAL_GetTick+0x14>)
 8001ffa:	681b      	ldr	r3, [r3, #0]
 8001ffc:	4618      	mov	r0, r3
 8001ffe:	46bd      	mov	sp, r7
 8002000:	f85d 7b04 	ldr.w	r7, [sp], #4
 8002004:	4770      	bx	lr
 8002006:	bf00      	nop
 8002008:	200061d4 	.word	0x200061d4

0800200c <HAL_Delay>:
 800200c:	b580      	push	{r7, lr}
 800200e:	b084      	sub	sp, #16
 8002010:	af00      	add	r7, sp, #0
 8002012:	6078      	str	r0, [r7, #4]
 8002014:	f7ff ffee 	bl	8001ff4 <HAL_GetTick>
 8002018:	60b8      	str	r0, [r7, #8]
 800201a:	687b      	ldr	r3, [r7, #4]
 800201c:	60fb      	str	r3, [r7, #12]
 800201e:	68fb      	ldr	r3, [r7, #12]
 8002020:	f1b3 3fff 	cmp.w	r3, #4294967295
 8002024:	d005      	beq.n	8002032 <HAL_Delay+0x26>
 8002026:	4b09      	ldr	r3, [pc, #36]	; (800204c <HAL_Delay+0x40>)
 8002028:	781b      	ldrb	r3, [r3, #0]
 800202a:	461a      	mov	r2, r3
 800202c:	68fb      	ldr	r3, [r7, #12]
 800202e:	4413      	add	r3, r2
 8002030:	60fb      	str	r3, [r7, #12]
 8002032:	bf00      	nop
 8002034:	f7ff ffde 	bl	8001ff4 <HAL_GetTick>
 8002038:	4602      	mov	r2, r0
 800203a:	68bb      	ldr	r3, [r7, #8]
 800203c:	1ad3      	subs	r3, r2, r3
 800203e:	68fa      	ldr	r2, [r7, #12]
 8002040:	429a      	cmp	r2, r3
 8002042:	d8f7      	bhi.n	8002034 <HAL_Delay+0x28>
 8002044:	bf00      	nop
 8002046:	3710      	adds	r7, #16
 8002048:	46bd      	mov	sp, r7
 800204a:	bd80      	pop	{r7, pc}
 800204c:	20000008 	.word	0x20000008

08002050 <HAL_ADC_Init>:
 8002050:	b580      	push	{r7, lr}
 8002052:	b084      	sub	sp, #16
 8002054:	af00      	add	r7, sp, #0
 8002056:	6078      	str	r0, [r7, #4]
 8002058:	2300      	movs	r3, #0
 800205a:	73fb      	strb	r3, [r7, #15]
 800205c:	687b      	ldr	r3, [r7, #4]
 800205e:	2b00      	cmp	r3, #0
 8002060:	d101      	bne.n	8002066 <HAL_ADC_Init+0x16>
 8002062:	2301      	movs	r3, #1
 8002064:	e033      	b.n	80020ce <HAL_ADC_Init+0x7e>
 8002066:	687b      	ldr	r3, [r7, #4]
 8002068:	6c1b      	ldr	r3, [r3, #64]	; 0x40
 800206a:	2b00      	cmp	r3, #0
 800206c:	d109      	bne.n	8002082 <HAL_ADC_Init+0x32>
 800206e:	6878      	ldr	r0, [r7, #4]
 8002070:	f7ff fb82 	bl	8001778 <HAL_ADC_MspInit>
 8002074:	687b      	ldr	r3, [r7, #4]
 8002076:	2200      	movs	r2, #0
 8002078:	645a      	str	r2, [r3, #68]	; 0x44
 800207a:	687b      	ldr	r3, [r7, #4]
 800207c:	2200      	movs	r2, #0
 800207e:	f883 203c 	strb.w	r2, [r3, #60]	; 0x3c
 8002082:	687b      	ldr	r3, [r7, #4]
 8002084:	6c1b      	ldr	r3, [r3, #64]	; 0x40
 8002086:	f003 0310 	and.w	r3, r3, #16
 800208a:	2b00      	cmp	r3, #0
 800208c:	d118      	bne.n	80020c0 <HAL_ADC_Init+0x70>
 800208e:	687b      	ldr	r3, [r7, #4]
 8002090:	6c1b      	ldr	r3, [r3, #64]	; 0x40
 8002092:	f423 5388 	bic.w	r3, r3, #4352	; 0x1100
 8002096:	f023 0302 	bic.w	r3, r3, #2
 800209a:	f043 0202 	orr.w	r2, r3, #2
 800209e:	687b      	ldr	r3, [r7, #4]
 80020a0:	641a      	str	r2, [r3, #64]	; 0x40
 80020a2:	6878      	ldr	r0, [r7, #4]
 80020a4:	f000 f93a 	bl	800231c <ADC_Init>
 80020a8:	687b      	ldr	r3, [r7, #4]
 80020aa:	2200      	movs	r2, #0
 80020ac:	645a      	str	r2, [r3, #68]	; 0x44
 80020ae:	687b      	ldr	r3, [r7, #4]
 80020b0:	6c1b      	ldr	r3, [r3, #64]	; 0x40
 80020b2:	f023 0303 	bic.w	r3, r3, #3
 80020b6:	f043 0201 	orr.w	r2, r3, #1
 80020ba:	687b      	ldr	r3, [r7, #4]
 80020bc:	641a      	str	r2, [r3, #64]	; 0x40
 80020be:	e001      	b.n	80020c4 <HAL_ADC_Init+0x74>
 80020c0:	2301      	movs	r3, #1
 80020c2:	73fb      	strb	r3, [r7, #15]
 80020c4:	687b      	ldr	r3, [r7, #4]
 80020c6:	2200      	movs	r2, #0
 80020c8:	f883 203c 	strb.w	r2, [r3, #60]	; 0x3c
 80020cc:	7bfb      	ldrb	r3, [r7, #15]
 80020ce:	4618      	mov	r0, r3
 80020d0:	3710      	adds	r7, #16
 80020d2:	46bd      	mov	sp, r7
 80020d4:	bd80      	pop	{r7, pc}
	...

080020d8 <HAL_ADC_ConfigChannel>:
 80020d8:	b480      	push	{r7}
 80020da:	b085      	sub	sp, #20
 80020dc:	af00      	add	r7, sp, #0
 80020de:	6078      	str	r0, [r7, #4]
 80020e0:	6039      	str	r1, [r7, #0]
 80020e2:	2300      	movs	r3, #0
 80020e4:	60bb      	str	r3, [r7, #8]
 80020e6:	687b      	ldr	r3, [r7, #4]
 80020e8:	f893 303c 	ldrb.w	r3, [r3, #60]	; 0x3c
 80020ec:	2b01      	cmp	r3, #1
 80020ee:	d101      	bne.n	80020f4 <HAL_ADC_ConfigChannel+0x1c>
 80020f0:	2302      	movs	r3, #2
 80020f2:	e105      	b.n	8002300 <HAL_ADC_ConfigChannel+0x228>
 80020f4:	687b      	ldr	r3, [r7, #4]
 80020f6:	2201      	movs	r2, #1
 80020f8:	f883 203c 	strb.w	r2, [r3, #60]	; 0x3c
 80020fc:	683b      	ldr	r3, [r7, #0]
 80020fe:	681b      	ldr	r3, [r3, #0]
 8002100:	2b09      	cmp	r3, #9
 8002102:	d925      	bls.n	8002150 <HAL_ADC_ConfigChannel+0x78>
 8002104:	687b      	ldr	r3, [r7, #4]
 8002106:	681b      	ldr	r3, [r3, #0]
 8002108:	68d9      	ldr	r1, [r3, #12]
 800210a:	683b      	ldr	r3, [r7, #0]
 800210c:	681b      	ldr	r3, [r3, #0]
 800210e:	b29b      	uxth	r3, r3
 8002110:	461a      	mov	r2, r3
 8002112:	4613      	mov	r3, r2
 8002114:	005b      	lsls	r3, r3, #1
 8002116:	4413      	add	r3, r2
 8002118:	3b1e      	subs	r3, #30
 800211a:	2207      	movs	r2, #7
 800211c:	fa02 f303 	lsl.w	r3, r2, r3
 8002120:	43da      	mvns	r2, r3
 8002122:	687b      	ldr	r3, [r7, #4]
 8002124:	681b      	ldr	r3, [r3, #0]
 8002126:	400a      	ands	r2, r1
 8002128:	60da      	str	r2, [r3, #12]
 800212a:	687b      	ldr	r3, [r7, #4]
 800212c:	681b      	ldr	r3, [r3, #0]
 800212e:	68d9      	ldr	r1, [r3, #12]
 8002130:	683b      	ldr	r3, [r7, #0]
 8002132:	689a      	ldr	r2, [r3, #8]
 8002134:	683b      	ldr	r3, [r7, #0]
 8002136:	681b      	ldr	r3, [r3, #0]
 8002138:	b29b      	uxth	r3, r3
 800213a:	4618      	mov	r0, r3
 800213c:	4603      	mov	r3, r0
 800213e:	005b      	lsls	r3, r3, #1
 8002140:	4403      	add	r3, r0
 8002142:	3b1e      	subs	r3, #30
 8002144:	409a      	lsls	r2, r3
 8002146:	687b      	ldr	r3, [r7, #4]
 8002148:	681b      	ldr	r3, [r3, #0]
 800214a:	430a      	orrs	r2, r1
 800214c:	60da      	str	r2, [r3, #12]
 800214e:	e022      	b.n	8002196 <HAL_ADC_ConfigChannel+0xbe>
 8002150:	687b      	ldr	r3, [r7, #4]
 8002152:	681b      	ldr	r3, [r3, #0]
 8002154:	6919      	ldr	r1, [r3, #16]
 8002156:	683b      	ldr	r3, [r7, #0]
 8002158:	681b      	ldr	r3, [r3, #0]
 800215a:	b29b      	uxth	r3, r3
 800215c:	461a      	mov	r2, r3
 800215e:	4613      	mov	r3, r2
 8002160:	005b      	lsls	r3, r3, #1
 8002162:	4413      	add	r3, r2
 8002164:	2207      	movs	r2, #7
 8002166:	fa02 f303 	lsl.w	r3, r2, r3
 800216a:	43da      	mvns	r2, r3
 800216c:	687b      	ldr	r3, [r7, #4]
 800216e:	681b      	ldr	r3, [r3, #0]
 8002170:	400a      	ands	r2, r1
 8002172:	611a      	str	r2, [r3, #16]
 8002174:	687b      	ldr	r3, [r7, #4]
 8002176:	681b      	ldr	r3, [r3, #0]
 8002178:	6919      	ldr	r1, [r3, #16]
 800217a:	683b      	ldr	r3, [r7, #0]
 800217c:	689a      	ldr	r2, [r3, #8]
 800217e:	683b      	ldr	r3, [r7, #0]
 8002180:	681b      	ldr	r3, [r3, #0]
 8002182:	b29b      	uxth	r3, r3
 8002184:	4618      	mov	r0, r3
 8002186:	4603      	mov	r3, r0
 8002188:	005b      	lsls	r3, r3, #1
 800218a:	4403      	add	r3, r0
 800218c:	409a      	lsls	r2, r3
 800218e:	687b      	ldr	r3, [r7, #4]
 8002190:	681b      	ldr	r3, [r3, #0]
 8002192:	430a      	orrs	r2, r1
 8002194:	611a      	str	r2, [r3, #16]
 8002196:	683b      	ldr	r3, [r7, #0]
 8002198:	685b      	ldr	r3, [r3, #4]
 800219a:	2b06      	cmp	r3, #6
 800219c:	d824      	bhi.n	80021e8 <HAL_ADC_ConfigChannel+0x110>
 800219e:	687b      	ldr	r3, [r7, #4]
 80021a0:	681b      	ldr	r3, [r3, #0]
 80021a2:	6b59      	ldr	r1, [r3, #52]	; 0x34
 80021a4:	683b      	ldr	r3, [r7, #0]
 80021a6:	685a      	ldr	r2, [r3, #4]
 80021a8:	4613      	mov	r3, r2
 80021aa:	009b      	lsls	r3, r3, #2
 80021ac:	4413      	add	r3, r2
 80021ae:	3b05      	subs	r3, #5
 80021b0:	221f      	movs	r2, #31
 80021b2:	fa02 f303 	lsl.w	r3, r2, r3
 80021b6:	43da      	mvns	r2, r3
 80021b8:	687b      	ldr	r3, [r7, #4]
 80021ba:	681b      	ldr	r3, [r3, #0]
 80021bc:	400a      	ands	r2, r1
 80021be:	635a      	str	r2, [r3, #52]	; 0x34
 80021c0:	687b      	ldr	r3, [r7, #4]
 80021c2:	681b      	ldr	r3, [r3, #0]
 80021c4:	6b59      	ldr	r1, [r3, #52]	; 0x34
 80021c6:	683b      	ldr	r3, [r7, #0]
 80021c8:	681b      	ldr	r3, [r3, #0]
 80021ca:	b29b      	uxth	r3, r3
 80021cc:	4618      	mov	r0, r3
 80021ce:	683b      	ldr	r3, [r7, #0]
 80021d0:	685a      	ldr	r2, [r3, #4]
 80021d2:	4613      	mov	r3, r2
 80021d4:	009b      	lsls	r3, r3, #2
 80021d6:	4413      	add	r3, r2
 80021d8:	3b05      	subs	r3, #5
 80021da:	fa00 f203 	lsl.w	r2, r0, r3
 80021de:	687b      	ldr	r3, [r7, #4]
 80021e0:	681b      	ldr	r3, [r3, #0]
 80021e2:	430a      	orrs	r2, r1
 80021e4:	635a      	str	r2, [r3, #52]	; 0x34
 80021e6:	e04c      	b.n	8002282 <HAL_ADC_ConfigChannel+0x1aa>
 80021e8:	683b      	ldr	r3, [r7, #0]
 80021ea:	685b      	ldr	r3, [r3, #4]
 80021ec:	2b0c      	cmp	r3, #12
 80021ee:	d824      	bhi.n	800223a <HAL_ADC_ConfigChannel+0x162>
 80021f0:	687b      	ldr	r3, [r7, #4]
 80021f2:	681b      	ldr	r3, [r3, #0]
 80021f4:	6b19      	ldr	r1, [r3, #48]	; 0x30
 80021f6:	683b      	ldr	r3, [r7, #0]
 80021f8:	685a      	ldr	r2, [r3, #4]
 80021fa:	4613      	mov	r3, r2
 80021fc:	009b      	lsls	r3, r3, #2
 80021fe:	4413      	add	r3, r2
 8002200:	3b23      	subs	r3, #35	; 0x23
 8002202:	221f      	movs	r2, #31
 8002204:	fa02 f303 	lsl.w	r3, r2, r3
 8002208:	43da      	mvns	r2, r3
 800220a:	687b      	ldr	r3, [r7, #4]
 800220c:	681b      	ldr	r3, [r3, #0]
 800220e:	400a      	ands	r2, r1
 8002210:	631a      	str	r2, [r3, #48]	; 0x30
 8002212:	687b      	ldr	r3, [r7, #4]
 8002214:	681b      	ldr	r3, [r3, #0]
 8002216:	6b19      	ldr	r1, [r3, #48]	; 0x30
 8002218:	683b      	ldr	r3, [r7, #0]
 800221a:	681b      	ldr	r3, [r3, #0]
 800221c:	b29b      	uxth	r3, r3
 800221e:	4618      	mov	r0, r3
 8002220:	683b      	ldr	r3, [r7, #0]
 8002222:	685a      	ldr	r2, [r3, #4]
 8002224:	4613      	mov	r3, r2
 8002226:	009b      	lsls	r3, r3, #2
 8002228:	4413      	add	r3, r2
 800222a:	3b23      	subs	r3, #35	; 0x23
 800222c:	fa00 f203 	lsl.w	r2, r0, r3
 8002230:	687b      	ldr	r3, [r7, #4]
 8002232:	681b      	ldr	r3, [r3, #0]
 8002234:	430a      	orrs	r2, r1
 8002236:	631a      	str	r2, [r3, #48]	; 0x30
 8002238:	e023      	b.n	8002282 <HAL_ADC_ConfigChannel+0x1aa>
 800223a:	687b      	ldr	r3, [r7, #4]
 800223c:	681b      	ldr	r3, [r3, #0]
 800223e:	6ad9      	ldr	r1, [r3, #44]	; 0x2c
 8002240:	683b      	ldr	r3, [r7, #0]
 8002242:	685a      	ldr	r2, [r3, #4]
 8002244:	4613      	mov	r3, r2
 8002246:	009b      	lsls	r3, r3, #2
 8002248:	4413      	add	r3, r2
 800224a:	3b41      	subs	r3, #65	; 0x41
 800224c:	221f      	movs	r2, #31
 800224e:	fa02 f303 	lsl.w	r3, r2, r3
 8002252:	43da      	mvns	r2, r3
 8002254:	687b      	ldr	r3, [r7, #4]
 8002256:	681b      	ldr	r3, [r3, #0]
 8002258:	400a      	ands	r2, r1
 800225a:	62da      	str	r2, [r3, #44]	; 0x2c
 800225c:	687b      	ldr	r3, [r7, #4]
 800225e:	681b      	ldr	r3, [r3, #0]
 8002260:	6ad9      	ldr	r1, [r3, #44]	; 0x2c
 8002262:	683b      	ldr	r3, [r7, #0]
 8002264:	681b      	ldr	r3, [r3, #0]
 8002266:	b29b      	uxth	r3, r3
 8002268:	4618      	mov	r0, r3
 800226a:	683b      	ldr	r3, [r7, #0]
 800226c:	685a      	ldr	r2, [r3, #4]
 800226e:	4613      	mov	r3, r2
 8002270:	009b      	lsls	r3, r3, #2
 8002272:	4413      	add	r3, r2
 8002274:	3b41      	subs	r3, #65	; 0x41
 8002276:	fa00 f203 	lsl.w	r2, r0, r3
 800227a:	687b      	ldr	r3, [r7, #4]
 800227c:	681b      	ldr	r3, [r3, #0]
 800227e:	430a      	orrs	r2, r1
 8002280:	62da      	str	r2, [r3, #44]	; 0x2c
 8002282:	4b22      	ldr	r3, [pc, #136]	; (800230c <HAL_ADC_ConfigChannel+0x234>)
 8002284:	60fb      	str	r3, [r7, #12]
 8002286:	687b      	ldr	r3, [r7, #4]
 8002288:	681b      	ldr	r3, [r3, #0]
 800228a:	4a21      	ldr	r2, [pc, #132]	; (8002310 <HAL_ADC_ConfigChannel+0x238>)
 800228c:	4293      	cmp	r3, r2
 800228e:	d109      	bne.n	80022a4 <HAL_ADC_ConfigChannel+0x1cc>
 8002290:	683b      	ldr	r3, [r7, #0]
 8002292:	681b      	ldr	r3, [r3, #0]
 8002294:	2b12      	cmp	r3, #18
 8002296:	d105      	bne.n	80022a4 <HAL_ADC_ConfigChannel+0x1cc>
 8002298:	68fb      	ldr	r3, [r7, #12]
 800229a:	685b      	ldr	r3, [r3, #4]
 800229c:	f443 0280 	orr.w	r2, r3, #4194304	; 0x400000
 80022a0:	68fb      	ldr	r3, [r7, #12]
 80022a2:	605a      	str	r2, [r3, #4]
 80022a4:	687b      	ldr	r3, [r7, #4]
 80022a6:	681b      	ldr	r3, [r3, #0]
 80022a8:	4a19      	ldr	r2, [pc, #100]	; (8002310 <HAL_ADC_ConfigChannel+0x238>)
 80022aa:	4293      	cmp	r3, r2
 80022ac:	d123      	bne.n	80022f6 <HAL_ADC_ConfigChannel+0x21e>
 80022ae:	683b      	ldr	r3, [r7, #0]
 80022b0:	681b      	ldr	r3, [r3, #0]
 80022b2:	2b10      	cmp	r3, #16
 80022b4:	d003      	beq.n	80022be <HAL_ADC_ConfigChannel+0x1e6>
 80022b6:	683b      	ldr	r3, [r7, #0]
 80022b8:	681b      	ldr	r3, [r3, #0]
 80022ba:	2b11      	cmp	r3, #17
 80022bc:	d11b      	bne.n	80022f6 <HAL_ADC_ConfigChannel+0x21e>
 80022be:	68fb      	ldr	r3, [r7, #12]
 80022c0:	685b      	ldr	r3, [r3, #4]
 80022c2:	f443 0200 	orr.w	r2, r3, #8388608	; 0x800000
 80022c6:	68fb      	ldr	r3, [r7, #12]
 80022c8:	605a      	str	r2, [r3, #4]
 80022ca:	683b      	ldr	r3, [r7, #0]
 80022cc:	681b      	ldr	r3, [r3, #0]
 80022ce:	2b10      	cmp	r3, #16
 80022d0:	d111      	bne.n	80022f6 <HAL_ADC_ConfigChannel+0x21e>
 80022d2:	4b10      	ldr	r3, [pc, #64]	; (8002314 <HAL_ADC_ConfigChannel+0x23c>)
 80022d4:	681b      	ldr	r3, [r3, #0]
 80022d6:	4a10      	ldr	r2, [pc, #64]	; (8002318 <HAL_ADC_ConfigChannel+0x240>)
 80022d8:	fba2 2303 	umull	r2, r3, r2, r3
 80022dc:	0c9a      	lsrs	r2, r3, #18
 80022de:	4613      	mov	r3, r2
 80022e0:	009b      	lsls	r3, r3, #2
 80022e2:	4413      	add	r3, r2
 80022e4:	005b      	lsls	r3, r3, #1
 80022e6:	60bb      	str	r3, [r7, #8]
 80022e8:	e002      	b.n	80022f0 <HAL_ADC_ConfigChannel+0x218>
 80022ea:	68bb      	ldr	r3, [r7, #8]
 80022ec:	3b01      	subs	r3, #1
 80022ee:	60bb      	str	r3, [r7, #8]
 80022f0:	68bb      	ldr	r3, [r7, #8]
 80022f2:	2b00      	cmp	r3, #0
 80022f4:	d1f9      	bne.n	80022ea <HAL_ADC_ConfigChannel+0x212>
 80022f6:	687b      	ldr	r3, [r7, #4]
 80022f8:	2200      	movs	r2, #0
 80022fa:	f883 203c 	strb.w	r2, [r3, #60]	; 0x3c
 80022fe:	2300      	movs	r3, #0
 8002300:	4618      	mov	r0, r3
 8002302:	3714      	adds	r7, #20
 8002304:	46bd      	mov	sp, r7
 8002306:	f85d 7b04 	ldr.w	r7, [sp], #4
 800230a:	4770      	bx	lr
 800230c:	40012300 	.word	0x40012300
 8002310:	40012000 	.word	0x40012000
 8002314:	20000000 	.word	0x20000000
 8002318:	431bde83 	.word	0x431bde83

0800231c <ADC_Init>:
 800231c:	b480      	push	{r7}
 800231e:	b085      	sub	sp, #20
 8002320:	af00      	add	r7, sp, #0
 8002322:	6078      	str	r0, [r7, #4]
 8002324:	4b79      	ldr	r3, [pc, #484]	; (800250c <ADC_Init+0x1f0>)
 8002326:	60fb      	str	r3, [r7, #12]
 8002328:	68fb      	ldr	r3, [r7, #12]
 800232a:	685b      	ldr	r3, [r3, #4]
 800232c:	f423 3240 	bic.w	r2, r3, #196608	; 0x30000
 8002330:	68fb      	ldr	r3, [r7, #12]
 8002332:	605a      	str	r2, [r3, #4]
 8002334:	68fb      	ldr	r3, [r7, #12]
 8002336:	685a      	ldr	r2, [r3, #4]
 8002338:	687b      	ldr	r3, [r7, #4]
 800233a:	685b      	ldr	r3, [r3, #4]
 800233c:	431a      	orrs	r2, r3
 800233e:	68fb      	ldr	r3, [r7, #12]
 8002340:	605a      	str	r2, [r3, #4]
 8002342:	687b      	ldr	r3, [r7, #4]
 8002344:	681b      	ldr	r3, [r3, #0]
 8002346:	685a      	ldr	r2, [r3, #4]
 8002348:	687b      	ldr	r3, [r7, #4]
 800234a:	681b      	ldr	r3, [r3, #0]
 800234c:	f422 7280 	bic.w	r2, r2, #256	; 0x100
 8002350:	605a      	str	r2, [r3, #4]
 8002352:	687b      	ldr	r3, [r7, #4]
 8002354:	681b      	ldr	r3, [r3, #0]
 8002356:	6859      	ldr	r1, [r3, #4]
 8002358:	687b      	ldr	r3, [r7, #4]
 800235a:	691b      	ldr	r3, [r3, #16]
 800235c:	021a      	lsls	r2, r3, #8
 800235e:	687b      	ldr	r3, [r7, #4]
 8002360:	681b      	ldr	r3, [r3, #0]
 8002362:	430a      	orrs	r2, r1
 8002364:	605a      	str	r2, [r3, #4]
 8002366:	687b      	ldr	r3, [r7, #4]
 8002368:	681b      	ldr	r3, [r3, #0]
 800236a:	685a      	ldr	r2, [r3, #4]
 800236c:	687b      	ldr	r3, [r7, #4]
 800236e:	681b      	ldr	r3, [r3, #0]
 8002370:	f022 7240 	bic.w	r2, r2, #50331648	; 0x3000000
 8002374:	605a      	str	r2, [r3, #4]
 8002376:	687b      	ldr	r3, [r7, #4]
 8002378:	681b      	ldr	r3, [r3, #0]
 800237a:	6859      	ldr	r1, [r3, #4]
 800237c:	687b      	ldr	r3, [r7, #4]
 800237e:	689a      	ldr	r2, [r3, #8]
 8002380:	687b      	ldr	r3, [r7, #4]
 8002382:	681b      	ldr	r3, [r3, #0]
 8002384:	430a      	orrs	r2, r1
 8002386:	605a      	str	r2, [r3, #4]
 8002388:	687b      	ldr	r3, [r7, #4]
 800238a:	681b      	ldr	r3, [r3, #0]
 800238c:	689a      	ldr	r2, [r3, #8]
 800238e:	687b      	ldr	r3, [r7, #4]
 8002390:	681b      	ldr	r3, [r3, #0]
 8002392:	f422 6200 	bic.w	r2, r2, #2048	; 0x800
 8002396:	609a      	str	r2, [r3, #8]
 8002398:	687b      	ldr	r3, [r7, #4]
 800239a:	681b      	ldr	r3, [r3, #0]
 800239c:	6899      	ldr	r1, [r3, #8]
 800239e:	687b      	ldr	r3, [r7, #4]
 80023a0:	68da      	ldr	r2, [r3, #12]
 80023a2:	687b      	ldr	r3, [r7, #4]
 80023a4:	681b      	ldr	r3, [r3, #0]
 80023a6:	430a      	orrs	r2, r1
 80023a8:	609a      	str	r2, [r3, #8]
 80023aa:	687b      	ldr	r3, [r7, #4]
 80023ac:	6a9b      	ldr	r3, [r3, #40]	; 0x28
 80023ae:	4a58      	ldr	r2, [pc, #352]	; (8002510 <ADC_Init+0x1f4>)
 80023b0:	4293      	cmp	r3, r2
 80023b2:	d022      	beq.n	80023fa <ADC_Init+0xde>
 80023b4:	687b      	ldr	r3, [r7, #4]
 80023b6:	681b      	ldr	r3, [r3, #0]
 80023b8:	689a      	ldr	r2, [r3, #8]
 80023ba:	687b      	ldr	r3, [r7, #4]
 80023bc:	681b      	ldr	r3, [r3, #0]
 80023be:	f022 6270 	bic.w	r2, r2, #251658240	; 0xf000000
 80023c2:	609a      	str	r2, [r3, #8]
 80023c4:	687b      	ldr	r3, [r7, #4]
 80023c6:	681b      	ldr	r3, [r3, #0]
 80023c8:	6899      	ldr	r1, [r3, #8]
 80023ca:	687b      	ldr	r3, [r7, #4]
 80023cc:	6a9a      	ldr	r2, [r3, #40]	; 0x28
 80023ce:	687b      	ldr	r3, [r7, #4]
 80023d0:	681b      	ldr	r3, [r3, #0]
 80023d2:	430a      	orrs	r2, r1
 80023d4:	609a      	str	r2, [r3, #8]
 80023d6:	687b      	ldr	r3, [r7, #4]
 80023d8:	681b      	ldr	r3, [r3, #0]
 80023da:	689a      	ldr	r2, [r3, #8]
 80023dc:	687b      	ldr	r3, [r7, #4]
 80023de:	681b      	ldr	r3, [r3, #0]
 80023e0:	f022 5240 	bic.w	r2, r2, #805306368	; 0x30000000
 80023e4:	609a      	str	r2, [r3, #8]
 80023e6:	687b      	ldr	r3, [r7, #4]
 80023e8:	681b      	ldr	r3, [r3, #0]
 80023ea:	6899      	ldr	r1, [r3, #8]
 80023ec:	687b      	ldr	r3, [r7, #4]
 80023ee:	6ada      	ldr	r2, [r3, #44]	; 0x2c
 80023f0:	687b      	ldr	r3, [r7, #4]
 80023f2:	681b      	ldr	r3, [r3, #0]
 80023f4:	430a      	orrs	r2, r1
 80023f6:	609a      	str	r2, [r3, #8]
 80023f8:	e00f      	b.n	800241a <ADC_Init+0xfe>
 80023fa:	687b      	ldr	r3, [r7, #4]
 80023fc:	681b      	ldr	r3, [r3, #0]
 80023fe:	689a      	ldr	r2, [r3, #8]
 8002400:	687b      	ldr	r3, [r7, #4]
 8002402:	681b      	ldr	r3, [r3, #0]
 8002404:	f022 6270 	bic.w	r2, r2, #251658240	; 0xf000000
 8002408:	609a      	str	r2, [r3, #8]
 800240a:	687b      	ldr	r3, [r7, #4]
 800240c:	681b      	ldr	r3, [r3, #0]
 800240e:	689a      	ldr	r2, [r3, #8]
 8002410:	687b      	ldr	r3, [r7, #4]
 8002412:	681b      	ldr	r3, [r3, #0]
 8002414:	f022 5240 	bic.w	r2, r2, #805306368	; 0x30000000
 8002418:	609a      	str	r2, [r3, #8]
 800241a:	687b      	ldr	r3, [r7, #4]
 800241c:	681b      	ldr	r3, [r3, #0]
 800241e:	689a      	ldr	r2, [r3, #8]
 8002420:	687b      	ldr	r3, [r7, #4]
 8002422:	681b      	ldr	r3, [r3, #0]
 8002424:	f022 0202 	bic.w	r2, r2, #2
 8002428:	609a      	str	r2, [r3, #8]
 800242a:	687b      	ldr	r3, [r7, #4]
 800242c:	681b      	ldr	r3, [r3, #0]
 800242e:	6899      	ldr	r1, [r3, #8]
 8002430:	687b      	ldr	r3, [r7, #4]
 8002432:	7e1b      	ldrb	r3, [r3, #24]
 8002434:	005a      	lsls	r2, r3, #1
 8002436:	687b      	ldr	r3, [r7, #4]
 8002438:	681b      	ldr	r3, [r3, #0]
 800243a:	430a      	orrs	r2, r1
 800243c:	609a      	str	r2, [r3, #8]
 800243e:	687b      	ldr	r3, [r7, #4]
 8002440:	f893 3020 	ldrb.w	r3, [r3, #32]
 8002444:	2b00      	cmp	r3, #0
 8002446:	d01b      	beq.n	8002480 <ADC_Init+0x164>
 8002448:	687b      	ldr	r3, [r7, #4]
 800244a:	681b      	ldr	r3, [r3, #0]
 800244c:	685a      	ldr	r2, [r3, #4]
 800244e:	687b      	ldr	r3, [r7, #4]
 8002450:	681b      	ldr	r3, [r3, #0]
 8002452:	f442 6200 	orr.w	r2, r2, #2048	; 0x800
 8002456:	605a      	str	r2, [r3, #4]
 8002458:	687b      	ldr	r3, [r7, #4]
 800245a:	681b      	ldr	r3, [r3, #0]
 800245c:	685a      	ldr	r2, [r3, #4]
 800245e:	687b      	ldr	r3, [r7, #4]
 8002460:	681b      	ldr	r3, [r3, #0]
 8002462:	f422 4260 	bic.w	r2, r2, #57344	; 0xe000
 8002466:	605a      	str	r2, [r3, #4]
 8002468:	687b      	ldr	r3, [r7, #4]
 800246a:	681b      	ldr	r3, [r3, #0]
 800246c:	6859      	ldr	r1, [r3, #4]
 800246e:	687b      	ldr	r3, [r7, #4]
 8002470:	6a5b      	ldr	r3, [r3, #36]	; 0x24
 8002472:	3b01      	subs	r3, #1
 8002474:	035a      	lsls	r2, r3, #13
 8002476:	687b      	ldr	r3, [r7, #4]
 8002478:	681b      	ldr	r3, [r3, #0]
 800247a:	430a      	orrs	r2, r1
 800247c:	605a      	str	r2, [r3, #4]
 800247e:	e007      	b.n	8002490 <ADC_Init+0x174>
 8002480:	687b      	ldr	r3, [r7, #4]
 8002482:	681b      	ldr	r3, [r3, #0]
 8002484:	685a      	ldr	r2, [r3, #4]
 8002486:	687b      	ldr	r3, [r7, #4]
 8002488:	681b      	ldr	r3, [r3, #0]
 800248a:	f422 6200 	bic.w	r2, r2, #2048	; 0x800
 800248e:	605a      	str	r2, [r3, #4]
 8002490:	687b      	ldr	r3, [r7, #4]
 8002492:	681b      	ldr	r3, [r3, #0]
 8002494:	6ada      	ldr	r2, [r3, #44]	; 0x2c
 8002496:	687b      	ldr	r3, [r7, #4]
 8002498:	681b      	ldr	r3, [r3, #0]
 800249a:	f422 0270 	bic.w	r2, r2, #15728640	; 0xf00000
 800249e:	62da      	str	r2, [r3, #44]	; 0x2c
 80024a0:	687b      	ldr	r3, [r7, #4]
 80024a2:	681b      	ldr	r3, [r3, #0]
 80024a4:	6ad9      	ldr	r1, [r3, #44]	; 0x2c
 80024a6:	687b      	ldr	r3, [r7, #4]
 80024a8:	69db      	ldr	r3, [r3, #28]
 80024aa:	3b01      	subs	r3, #1
 80024ac:	051a      	lsls	r2, r3, #20
 80024ae:	687b      	ldr	r3, [r7, #4]
 80024b0:	681b      	ldr	r3, [r3, #0]
 80024b2:	430a      	orrs	r2, r1
 80024b4:	62da      	str	r2, [r3, #44]	; 0x2c
 80024b6:	687b      	ldr	r3, [r7, #4]
 80024b8:	681b      	ldr	r3, [r3, #0]
 80024ba:	689a      	ldr	r2, [r3, #8]
 80024bc:	687b      	ldr	r3, [r7, #4]
 80024be:	681b      	ldr	r3, [r3, #0]
 80024c0:	f422 7200 	bic.w	r2, r2, #512	; 0x200
 80024c4:	609a      	str	r2, [r3, #8]
 80024c6:	687b      	ldr	r3, [r7, #4]
 80024c8:	681b      	ldr	r3, [r3, #0]
 80024ca:	6899      	ldr	r1, [r3, #8]
 80024cc:	687b      	ldr	r3, [r7, #4]
 80024ce:	f893 3030 	ldrb.w	r3, [r3, #48]	; 0x30
 80024d2:	025a      	lsls	r2, r3, #9
 80024d4:	687b      	ldr	r3, [r7, #4]
 80024d6:	681b      	ldr	r3, [r3, #0]
 80024d8:	430a      	orrs	r2, r1
 80024da:	609a      	str	r2, [r3, #8]
 80024dc:	687b      	ldr	r3, [r7, #4]
 80024de:	681b      	ldr	r3, [r3, #0]
 80024e0:	689a      	ldr	r2, [r3, #8]
 80024e2:	687b      	ldr	r3, [r7, #4]
 80024e4:	681b      	ldr	r3, [r3, #0]
 80024e6:	f422 6280 	bic.w	r2, r2, #1024	; 0x400
 80024ea:	609a      	str	r2, [r3, #8]
 80024ec:	687b      	ldr	r3, [r7, #4]
 80024ee:	681b      	ldr	r3, [r3, #0]
 80024f0:	6899      	ldr	r1, [r3, #8]
 80024f2:	687b      	ldr	r3, [r7, #4]
 80024f4:	695b      	ldr	r3, [r3, #20]
 80024f6:	029a      	lsls	r2, r3, #10
 80024f8:	687b      	ldr	r3, [r7, #4]
 80024fa:	681b      	ldr	r3, [r3, #0]
 80024fc:	430a      	orrs	r2, r1
 80024fe:	609a      	str	r2, [r3, #8]
 8002500:	bf00      	nop
 8002502:	3714      	adds	r7, #20
 8002504:	46bd      	mov	sp, r7
 8002506:	f85d 7b04 	ldr.w	r7, [sp], #4
 800250a:	4770      	bx	lr
 800250c:	40012300 	.word	0x40012300
 8002510:	0f000001 	.word	0x0f000001

08002514 <__NVIC_SetPriorityGrouping>:
 8002514:	b480      	push	{r7}
 8002516:	b085      	sub	sp, #20
 8002518:	af00      	add	r7, sp, #0
 800251a:	6078      	str	r0, [r7, #4]
 800251c:	687b      	ldr	r3, [r7, #4]
 800251e:	f003 0307 	and.w	r3, r3, #7
 8002522:	60fb      	str	r3, [r7, #12]
 8002524:	4b0c      	ldr	r3, [pc, #48]	; (8002558 <__NVIC_SetPriorityGrouping+0x44>)
 8002526:	68db      	ldr	r3, [r3, #12]
 8002528:	60bb      	str	r3, [r7, #8]
 800252a:	68ba      	ldr	r2, [r7, #8]
 800252c:	f64f 03ff 	movw	r3, #63743	; 0xf8ff
 8002530:	4013      	ands	r3, r2
 8002532:	60bb      	str	r3, [r7, #8]
 8002534:	68fb      	ldr	r3, [r7, #12]
 8002536:	021a      	lsls	r2, r3, #8
 8002538:	68bb      	ldr	r3, [r7, #8]
 800253a:	4313      	orrs	r3, r2
 800253c:	f043 63bf 	orr.w	r3, r3, #100139008	; 0x5f80000
 8002540:	f443 3300 	orr.w	r3, r3, #131072	; 0x20000
 8002544:	60bb      	str	r3, [r7, #8]
 8002546:	4a04      	ldr	r2, [pc, #16]	; (8002558 <__NVIC_SetPriorityGrouping+0x44>)
 8002548:	68bb      	ldr	r3, [r7, #8]
 800254a:	60d3      	str	r3, [r2, #12]
 800254c:	bf00      	nop
 800254e:	3714      	adds	r7, #20
 8002550:	46bd      	mov	sp, r7
 8002552:	f85d 7b04 	ldr.w	r7, [sp], #4
 8002556:	4770      	bx	lr
 8002558:	e000ed00 	.word	0xe000ed00

0800255c <__NVIC_GetPriorityGrouping>:
 800255c:	b480      	push	{r7}
 800255e:	af00      	add	r7, sp, #0
 8002560:	4b04      	ldr	r3, [pc, #16]	; (8002574 <__NVIC_GetPriorityGrouping+0x18>)
 8002562:	68db      	ldr	r3, [r3, #12]
 8002564:	0a1b      	lsrs	r3, r3, #8
 8002566:	f003 0307 	and.w	r3, r3, #7
 800256a:	4618      	mov	r0, r3
 800256c:	46bd      	mov	sp, r7
 800256e:	f85d 7b04 	ldr.w	r7, [sp], #4
 8002572:	4770      	bx	lr
 8002574:	e000ed00 	.word	0xe000ed00

08002578 <__NVIC_EnableIRQ>:
 8002578:	b480      	push	{r7}
 800257a:	b083      	sub	sp, #12
 800257c:	af00      	add	r7, sp, #0
 800257e:	4603      	mov	r3, r0
 8002580:	71fb      	strb	r3, [r7, #7]
 8002582:	f997 3007 	ldrsb.w	r3, [r7, #7]
 8002586:	2b00      	cmp	r3, #0
 8002588:	db0b      	blt.n	80025a2 <__NVIC_EnableIRQ+0x2a>
 800258a:	79fb      	ldrb	r3, [r7, #7]
 800258c:	f003 021f 	and.w	r2, r3, #31
 8002590:	4907      	ldr	r1, [pc, #28]	; (80025b0 <__NVIC_EnableIRQ+0x38>)
 8002592:	f997 3007 	ldrsb.w	r3, [r7, #7]
 8002596:	095b      	lsrs	r3, r3, #5
 8002598:	2001      	movs	r0, #1
 800259a:	fa00 f202 	lsl.w	r2, r0, r2
 800259e:	f841 2023 	str.w	r2, [r1, r3, lsl #2]
 80025a2:	bf00      	nop
 80025a4:	370c      	adds	r7, #12
 80025a6:	46bd      	mov	sp, r7
 80025a8:	f85d 7b04 	ldr.w	r7, [sp], #4
 80025ac:	4770      	bx	lr
 80025ae:	bf00      	nop
 80025b0:	e000e100 	.word	0xe000e100

080025b4 <__NVIC_SetPriority>:
 80025b4:	b480      	push	{r7}
 80025b6:	b083      	sub	sp, #12
 80025b8:	af00      	add	r7, sp, #0
 80025ba:	4603      	mov	r3, r0
 80025bc:	6039      	str	r1, [r7, #0]
 80025be:	71fb      	strb	r3, [r7, #7]
 80025c0:	f997 3007 	ldrsb.w	r3, [r7, #7]
 80025c4:	2b00      	cmp	r3, #0
 80025c6:	db0a      	blt.n	80025de <__NVIC_SetPriority+0x2a>
 80025c8:	683b      	ldr	r3, [r7, #0]
 80025ca:	b2da      	uxtb	r2, r3
 80025cc:	490c      	ldr	r1, [pc, #48]	; (8002600 <__NVIC_SetPriority+0x4c>)
 80025ce:	f997 3007 	ldrsb.w	r3, [r7, #7]
 80025d2:	0112      	lsls	r2, r2, #4
 80025d4:	b2d2      	uxtb	r2, r2
 80025d6:	440b      	add	r3, r1
 80025d8:	f883 2300 	strb.w	r2, [r3, #768]	; 0x300
 80025dc:	e00a      	b.n	80025f4 <__NVIC_SetPriority+0x40>
 80025de:	683b      	ldr	r3, [r7, #0]
 80025e0:	b2da      	uxtb	r2, r3
 80025e2:	4908      	ldr	r1, [pc, #32]	; (8002604 <__NVIC_SetPriority+0x50>)
 80025e4:	79fb      	ldrb	r3, [r7, #7]
 80025e6:	f003 030f 	and.w	r3, r3, #15
 80025ea:	3b04      	subs	r3, #4
 80025ec:	0112      	lsls	r2, r2, #4
 80025ee:	b2d2      	uxtb	r2, r2
 80025f0:	440b      	add	r3, r1
 80025f2:	761a      	strb	r2, [r3, #24]
 80025f4:	bf00      	nop
 80025f6:	370c      	adds	r7, #12
 80025f8:	46bd      	mov	sp, r7
 80025fa:	f85d 7b04 	ldr.w	r7, [sp], #4
 80025fe:	4770      	bx	lr
 8002600:	e000e100 	.word	0xe000e100
 8002604:	e000ed00 	.word	0xe000ed00

08002608 <NVIC_EncodePriority>:
 8002608:	b480      	push	{r7}
 800260a:	b089      	sub	sp, #36	; 0x24
 800260c:	af00      	add	r7, sp, #0
 800260e:	60f8      	str	r0, [r7, #12]
 8002610:	60b9      	str	r1, [r7, #8]
 8002612:	607a      	str	r2, [r7, #4]
 8002614:	68fb      	ldr	r3, [r7, #12]
 8002616:	f003 0307 	and.w	r3, r3, #7
 800261a:	61fb      	str	r3, [r7, #28]
 800261c:	69fb      	ldr	r3, [r7, #28]
 800261e:	f1c3 0307 	rsb	r3, r3, #7
 8002622:	2b04      	cmp	r3, #4
 8002624:	bf28      	it	cs
 8002626:	2304      	movcs	r3, #4
 8002628:	61bb      	str	r3, [r7, #24]
 800262a:	69fb      	ldr	r3, [r7, #28]
 800262c:	3304      	adds	r3, #4
 800262e:	2b06      	cmp	r3, #6
 8002630:	d902      	bls.n	8002638 <NVIC_EncodePriority+0x30>
 8002632:	69fb      	ldr	r3, [r7, #28]
 8002634:	3b03      	subs	r3, #3
 8002636:	e000      	b.n	800263a <NVIC_EncodePriority+0x32>
 8002638:	2300      	movs	r3, #0
 800263a:	617b      	str	r3, [r7, #20]
 800263c:	f04f 32ff 	mov.w	r2, #4294967295
 8002640:	69bb      	ldr	r3, [r7, #24]
 8002642:	fa02 f303 	lsl.w	r3, r2, r3
 8002646:	43da      	mvns	r2, r3
 8002648:	68bb      	ldr	r3, [r7, #8]
 800264a:	401a      	ands	r2, r3
 800264c:	697b      	ldr	r3, [r7, #20]
 800264e:	409a      	lsls	r2, r3
 8002650:	f04f 31ff 	mov.w	r1, #4294967295
 8002654:	697b      	ldr	r3, [r7, #20]
 8002656:	fa01 f303 	lsl.w	r3, r1, r3
 800265a:	43d9      	mvns	r1, r3
 800265c:	687b      	ldr	r3, [r7, #4]
 800265e:	400b      	ands	r3, r1
 8002660:	4313      	orrs	r3, r2
 8002662:	4618      	mov	r0, r3
 8002664:	3724      	adds	r7, #36	; 0x24
 8002666:	46bd      	mov	sp, r7
 8002668:	f85d 7b04 	ldr.w	r7, [sp], #4
 800266c:	4770      	bx	lr

0800266e <HAL_NVIC_SetPriorityGrouping>:
 800266e:	b580      	push	{r7, lr}
 8002670:	b082      	sub	sp, #8
 8002672:	af00      	add	r7, sp, #0
 8002674:	6078      	str	r0, [r7, #4]
 8002676:	6878      	ldr	r0, [r7, #4]
 8002678:	f7ff ff4c 	bl	8002514 <__NVIC_SetPriorityGrouping>
 800267c:	bf00      	nop
 800267e:	3708      	adds	r7, #8
 8002680:	46bd      	mov	sp, r7
 8002682:	bd80      	pop	{r7, pc}

08002684 <HAL_NVIC_SetPriority>:
 8002684:	b580      	push	{r7, lr}
 8002686:	b086      	sub	sp, #24
 8002688:	af00      	add	r7, sp, #0
 800268a:	4603      	mov	r3, r0
 800268c:	60b9      	str	r1, [r7, #8]
 800268e:	607a      	str	r2, [r7, #4]
 8002690:	73fb      	strb	r3, [r7, #15]
 8002692:	2300      	movs	r3, #0
 8002694:	617b      	str	r3, [r7, #20]
 8002696:	f7ff ff61 	bl	800255c <__NVIC_GetPriorityGrouping>
 800269a:	6178      	str	r0, [r7, #20]
 800269c:	687a      	ldr	r2, [r7, #4]
 800269e:	68b9      	ldr	r1, [r7, #8]
 80026a0:	6978      	ldr	r0, [r7, #20]
 80026a2:	f7ff ffb1 	bl	8002608 <NVIC_EncodePriority>
 80026a6:	4602      	mov	r2, r0
 80026a8:	f997 300f 	ldrsb.w	r3, [r7, #15]
 80026ac:	4611      	mov	r1, r2
 80026ae:	4618      	mov	r0, r3
 80026b0:	f7ff ff80 	bl	80025b4 <__NVIC_SetPriority>
 80026b4:	bf00      	nop
 80026b6:	3718      	adds	r7, #24
 80026b8:	46bd      	mov	sp, r7
 80026ba:	bd80      	pop	{r7, pc}

080026bc <HAL_NVIC_EnableIRQ>:
 80026bc:	b580      	push	{r7, lr}
 80026be:	b082      	sub	sp, #8
 80026c0:	af00      	add	r7, sp, #0
 80026c2:	4603      	mov	r3, r0
 80026c4:	71fb      	strb	r3, [r7, #7]
 80026c6:	f997 3007 	ldrsb.w	r3, [r7, #7]
 80026ca:	4618      	mov	r0, r3
 80026cc:	f7ff ff54 	bl	8002578 <__NVIC_EnableIRQ>
 80026d0:	bf00      	nop
 80026d2:	3708      	adds	r7, #8
 80026d4:	46bd      	mov	sp, r7
 80026d6:	bd80      	pop	{r7, pc}

080026d8 <HAL_GPIO_Init>:
 80026d8:	b480      	push	{r7}
 80026da:	b089      	sub	sp, #36	; 0x24
 80026dc:	af00      	add	r7, sp, #0
 80026de:	6078      	str	r0, [r7, #4]
 80026e0:	6039      	str	r1, [r7, #0]
 80026e2:	2300      	movs	r3, #0
 80026e4:	617b      	str	r3, [r7, #20]
 80026e6:	2300      	movs	r3, #0
 80026e8:	613b      	str	r3, [r7, #16]
 80026ea:	2300      	movs	r3, #0
 80026ec:	61bb      	str	r3, [r7, #24]
 80026ee:	2300      	movs	r3, #0
 80026f0:	61fb      	str	r3, [r7, #28]
 80026f2:	e16b      	b.n	80029cc <HAL_GPIO_Init+0x2f4>
 80026f4:	2201      	movs	r2, #1
 80026f6:	69fb      	ldr	r3, [r7, #28]
 80026f8:	fa02 f303 	lsl.w	r3, r2, r3
 80026fc:	617b      	str	r3, [r7, #20]
 80026fe:	683b      	ldr	r3, [r7, #0]
 8002700:	681b      	ldr	r3, [r3, #0]
 8002702:	697a      	ldr	r2, [r7, #20]
 8002704:	4013      	ands	r3, r2
 8002706:	613b      	str	r3, [r7, #16]
 8002708:	693a      	ldr	r2, [r7, #16]
 800270a:	697b      	ldr	r3, [r7, #20]
 800270c:	429a      	cmp	r2, r3
 800270e:	f040 815a 	bne.w	80029c6 <HAL_GPIO_Init+0x2ee>
 8002712:	683b      	ldr	r3, [r7, #0]
 8002714:	685b      	ldr	r3, [r3, #4]
 8002716:	2b01      	cmp	r3, #1
 8002718:	d00b      	beq.n	8002732 <HAL_GPIO_Init+0x5a>
 800271a:	683b      	ldr	r3, [r7, #0]
 800271c:	685b      	ldr	r3, [r3, #4]
 800271e:	2b02      	cmp	r3, #2
 8002720:	d007      	beq.n	8002732 <HAL_GPIO_Init+0x5a>
 8002722:	683b      	ldr	r3, [r7, #0]
 8002724:	685b      	ldr	r3, [r3, #4]
 8002726:	2b11      	cmp	r3, #17
 8002728:	d003      	beq.n	8002732 <HAL_GPIO_Init+0x5a>
 800272a:	683b      	ldr	r3, [r7, #0]
 800272c:	685b      	ldr	r3, [r3, #4]
 800272e:	2b12      	cmp	r3, #18
 8002730:	d130      	bne.n	8002794 <HAL_GPIO_Init+0xbc>
 8002732:	687b      	ldr	r3, [r7, #4]
 8002734:	689b      	ldr	r3, [r3, #8]
 8002736:	61bb      	str	r3, [r7, #24]
 8002738:	69fb      	ldr	r3, [r7, #28]
 800273a:	005b      	lsls	r3, r3, #1
 800273c:	2203      	movs	r2, #3
 800273e:	fa02 f303 	lsl.w	r3, r2, r3
 8002742:	43db      	mvns	r3, r3
 8002744:	69ba      	ldr	r2, [r7, #24]
 8002746:	4013      	ands	r3, r2
 8002748:	61bb      	str	r3, [r7, #24]
 800274a:	683b      	ldr	r3, [r7, #0]
 800274c:	68da      	ldr	r2, [r3, #12]
 800274e:	69fb      	ldr	r3, [r7, #28]
 8002750:	005b      	lsls	r3, r3, #1
 8002752:	fa02 f303 	lsl.w	r3, r2, r3
 8002756:	69ba      	ldr	r2, [r7, #24]
 8002758:	4313      	orrs	r3, r2
 800275a:	61bb      	str	r3, [r7, #24]
 800275c:	687b      	ldr	r3, [r7, #4]
 800275e:	69ba      	ldr	r2, [r7, #24]
 8002760:	609a      	str	r2, [r3, #8]
 8002762:	687b      	ldr	r3, [r7, #4]
 8002764:	685b      	ldr	r3, [r3, #4]
 8002766:	61bb      	str	r3, [r7, #24]
 8002768:	2201      	movs	r2, #1
 800276a:	69fb      	ldr	r3, [r7, #28]
 800276c:	fa02 f303 	lsl.w	r3, r2, r3
 8002770:	43db      	mvns	r3, r3
 8002772:	69ba      	ldr	r2, [r7, #24]
 8002774:	4013      	ands	r3, r2
 8002776:	61bb      	str	r3, [r7, #24]
 8002778:	683b      	ldr	r3, [r7, #0]
 800277a:	685b      	ldr	r3, [r3, #4]
 800277c:	091b      	lsrs	r3, r3, #4
 800277e:	f003 0201 	and.w	r2, r3, #1
 8002782:	69fb      	ldr	r3, [r7, #28]
 8002784:	fa02 f303 	lsl.w	r3, r2, r3
 8002788:	69ba      	ldr	r2, [r7, #24]
 800278a:	4313      	orrs	r3, r2
 800278c:	61bb      	str	r3, [r7, #24]
 800278e:	687b      	ldr	r3, [r7, #4]
 8002790:	69ba      	ldr	r2, [r7, #24]
 8002792:	605a      	str	r2, [r3, #4]
 8002794:	687b      	ldr	r3, [r7, #4]
 8002796:	68db      	ldr	r3, [r3, #12]
 8002798:	61bb      	str	r3, [r7, #24]
 800279a:	69fb      	ldr	r3, [r7, #28]
 800279c:	005b      	lsls	r3, r3, #1
 800279e:	2203      	movs	r2, #3
 80027a0:	fa02 f303 	lsl.w	r3, r2, r3
 80027a4:	43db      	mvns	r3, r3
 80027a6:	69ba      	ldr	r2, [r7, #24]
 80027a8:	4013      	ands	r3, r2
 80027aa:	61bb      	str	r3, [r7, #24]
 80027ac:	683b      	ldr	r3, [r7, #0]
 80027ae:	689a      	ldr	r2, [r3, #8]
 80027b0:	69fb      	ldr	r3, [r7, #28]
 80027b2:	005b      	lsls	r3, r3, #1
 80027b4:	fa02 f303 	lsl.w	r3, r2, r3
 80027b8:	69ba      	ldr	r2, [r7, #24]
 80027ba:	4313      	orrs	r3, r2
 80027bc:	61bb      	str	r3, [r7, #24]
 80027be:	687b      	ldr	r3, [r7, #4]
 80027c0:	69ba      	ldr	r2, [r7, #24]
 80027c2:	60da      	str	r2, [r3, #12]
 80027c4:	683b      	ldr	r3, [r7, #0]
 80027c6:	685b      	ldr	r3, [r3, #4]
 80027c8:	2b02      	cmp	r3, #2
 80027ca:	d003      	beq.n	80027d4 <HAL_GPIO_Init+0xfc>
 80027cc:	683b      	ldr	r3, [r7, #0]
 80027ce:	685b      	ldr	r3, [r3, #4]
 80027d0:	2b12      	cmp	r3, #18
 80027d2:	d123      	bne.n	800281c <HAL_GPIO_Init+0x144>
 80027d4:	69fb      	ldr	r3, [r7, #28]
 80027d6:	08da      	lsrs	r2, r3, #3
 80027d8:	687b      	ldr	r3, [r7, #4]
 80027da:	3208      	adds	r2, #8
 80027dc:	f853 3022 	ldr.w	r3, [r3, r2, lsl #2]
 80027e0:	61bb      	str	r3, [r7, #24]
 80027e2:	69fb      	ldr	r3, [r7, #28]
 80027e4:	f003 0307 	and.w	r3, r3, #7
 80027e8:	009b      	lsls	r3, r3, #2
 80027ea:	220f      	movs	r2, #15
 80027ec:	fa02 f303 	lsl.w	r3, r2, r3
 80027f0:	43db      	mvns	r3, r3
 80027f2:	69ba      	ldr	r2, [r7, #24]
 80027f4:	4013      	ands	r3, r2
 80027f6:	61bb      	str	r3, [r7, #24]
 80027f8:	683b      	ldr	r3, [r7, #0]
 80027fa:	691a      	ldr	r2, [r3, #16]
 80027fc:	69fb      	ldr	r3, [r7, #28]
 80027fe:	f003 0307 	and.w	r3, r3, #7
 8002802:	009b      	lsls	r3, r3, #2
 8002804:	fa02 f303 	lsl.w	r3, r2, r3
 8002808:	69ba      	ldr	r2, [r7, #24]
 800280a:	4313      	orrs	r3, r2
 800280c:	61bb      	str	r3, [r7, #24]
 800280e:	69fb      	ldr	r3, [r7, #28]
 8002810:	08da      	lsrs	r2, r3, #3
 8002812:	687b      	ldr	r3, [r7, #4]
 8002814:	3208      	adds	r2, #8
 8002816:	69b9      	ldr	r1, [r7, #24]
 8002818:	f843 1022 	str.w	r1, [r3, r2, lsl #2]
 800281c:	687b      	ldr	r3, [r7, #4]
 800281e:	681b      	ldr	r3, [r3, #0]
 8002820:	61bb      	str	r3, [r7, #24]
 8002822:	69fb      	ldr	r3, [r7, #28]
 8002824:	005b      	lsls	r3, r3, #1
 8002826:	2203      	movs	r2, #3
 8002828:	fa02 f303 	lsl.w	r3, r2, r3
 800282c:	43db      	mvns	r3, r3
 800282e:	69ba      	ldr	r2, [r7, #24]
 8002830:	4013      	ands	r3, r2
 8002832:	61bb      	str	r3, [r7, #24]
 8002834:	683b      	ldr	r3, [r7, #0]
 8002836:	685b      	ldr	r3, [r3, #4]
 8002838:	f003 0203 	and.w	r2, r3, #3
 800283c:	69fb      	ldr	r3, [r7, #28]
 800283e:	005b      	lsls	r3, r3, #1
 8002840:	fa02 f303 	lsl.w	r3, r2, r3
 8002844:	69ba      	ldr	r2, [r7, #24]
 8002846:	4313      	orrs	r3, r2
 8002848:	61bb      	str	r3, [r7, #24]
 800284a:	687b      	ldr	r3, [r7, #4]
 800284c:	69ba      	ldr	r2, [r7, #24]
 800284e:	601a      	str	r2, [r3, #0]
 8002850:	683b      	ldr	r3, [r7, #0]
 8002852:	685b      	ldr	r3, [r3, #4]
 8002854:	f003 5380 	and.w	r3, r3, #268435456	; 0x10000000
 8002858:	2b00      	cmp	r3, #0
 800285a:	f000 80b4 	beq.w	80029c6 <HAL_GPIO_Init+0x2ee>
 800285e:	2300      	movs	r3, #0
 8002860:	60fb      	str	r3, [r7, #12]
 8002862:	4b5f      	ldr	r3, [pc, #380]	; (80029e0 <HAL_GPIO_Init+0x308>)
 8002864:	6c5b      	ldr	r3, [r3, #68]	; 0x44
 8002866:	4a5e      	ldr	r2, [pc, #376]	; (80029e0 <HAL_GPIO_Init+0x308>)
 8002868:	f443 4380 	orr.w	r3, r3, #16384	; 0x4000
 800286c:	6453      	str	r3, [r2, #68]	; 0x44
 800286e:	4b5c      	ldr	r3, [pc, #368]	; (80029e0 <HAL_GPIO_Init+0x308>)
 8002870:	6c5b      	ldr	r3, [r3, #68]	; 0x44
 8002872:	f403 4380 	and.w	r3, r3, #16384	; 0x4000
 8002876:	60fb      	str	r3, [r7, #12]
 8002878:	68fb      	ldr	r3, [r7, #12]
 800287a:	4a5a      	ldr	r2, [pc, #360]	; (80029e4 <HAL_GPIO_Init+0x30c>)
 800287c:	69fb      	ldr	r3, [r7, #28]
 800287e:	089b      	lsrs	r3, r3, #2
 8002880:	3302      	adds	r3, #2
 8002882:	f852 3023 	ldr.w	r3, [r2, r3, lsl #2]
 8002886:	61bb      	str	r3, [r7, #24]
 8002888:	69fb      	ldr	r3, [r7, #28]
 800288a:	f003 0303 	and.w	r3, r3, #3
 800288e:	009b      	lsls	r3, r3, #2
 8002890:	220f      	movs	r2, #15
 8002892:	fa02 f303 	lsl.w	r3, r2, r3
 8002896:	43db      	mvns	r3, r3
 8002898:	69ba      	ldr	r2, [r7, #24]
 800289a:	4013      	ands	r3, r2
 800289c:	61bb      	str	r3, [r7, #24]
 800289e:	687b      	ldr	r3, [r7, #4]
 80028a0:	4a51      	ldr	r2, [pc, #324]	; (80029e8 <HAL_GPIO_Init+0x310>)
 80028a2:	4293      	cmp	r3, r2
 80028a4:	d02b      	beq.n	80028fe <HAL_GPIO_Init+0x226>
 80028a6:	687b      	ldr	r3, [r7, #4]
 80028a8:	4a50      	ldr	r2, [pc, #320]	; (80029ec <HAL_GPIO_Init+0x314>)
 80028aa:	4293      	cmp	r3, r2
 80028ac:	d025      	beq.n	80028fa <HAL_GPIO_Init+0x222>
 80028ae:	687b      	ldr	r3, [r7, #4]
 80028b0:	4a4f      	ldr	r2, [pc, #316]	; (80029f0 <HAL_GPIO_Init+0x318>)
 80028b2:	4293      	cmp	r3, r2
 80028b4:	d01f      	beq.n	80028f6 <HAL_GPIO_Init+0x21e>
 80028b6:	687b      	ldr	r3, [r7, #4]
 80028b8:	4a4e      	ldr	r2, [pc, #312]	; (80029f4 <HAL_GPIO_Init+0x31c>)
 80028ba:	4293      	cmp	r3, r2
 80028bc:	d019      	beq.n	80028f2 <HAL_GPIO_Init+0x21a>
 80028be:	687b      	ldr	r3, [r7, #4]
 80028c0:	4a4d      	ldr	r2, [pc, #308]	; (80029f8 <HAL_GPIO_Init+0x320>)
 80028c2:	4293      	cmp	r3, r2
 80028c4:	d013      	beq.n	80028ee <HAL_GPIO_Init+0x216>
 80028c6:	687b      	ldr	r3, [r7, #4]
 80028c8:	4a4c      	ldr	r2, [pc, #304]	; (80029fc <HAL_GPIO_Init+0x324>)
 80028ca:	4293      	cmp	r3, r2
 80028cc:	d00d      	beq.n	80028ea <HAL_GPIO_Init+0x212>
 80028ce:	687b      	ldr	r3, [r7, #4]
 80028d0:	4a4b      	ldr	r2, [pc, #300]	; (8002a00 <HAL_GPIO_Init+0x328>)
 80028d2:	4293      	cmp	r3, r2
 80028d4:	d007      	beq.n	80028e6 <HAL_GPIO_Init+0x20e>
 80028d6:	687b      	ldr	r3, [r7, #4]
 80028d8:	4a4a      	ldr	r2, [pc, #296]	; (8002a04 <HAL_GPIO_Init+0x32c>)
 80028da:	4293      	cmp	r3, r2
 80028dc:	d101      	bne.n	80028e2 <HAL_GPIO_Init+0x20a>
 80028de:	2307      	movs	r3, #7
 80028e0:	e00e      	b.n	8002900 <HAL_GPIO_Init+0x228>
 80028e2:	2308      	movs	r3, #8
 80028e4:	e00c      	b.n	8002900 <HAL_GPIO_Init+0x228>
 80028e6:	2306      	movs	r3, #6
 80028e8:	e00a      	b.n	8002900 <HAL_GPIO_Init+0x228>
 80028ea:	2305      	movs	r3, #5
 80028ec:	e008      	b.n	8002900 <HAL_GPIO_Init+0x228>
 80028ee:	2304      	movs	r3, #4
 80028f0:	e006      	b.n	8002900 <HAL_GPIO_Init+0x228>
 80028f2:	2303      	movs	r3, #3
 80028f4:	e004      	b.n	8002900 <HAL_GPIO_Init+0x228>
 80028f6:	2302      	movs	r3, #2
 80028f8:	e002      	b.n	8002900 <HAL_GPIO_Init+0x228>
 80028fa:	2301      	movs	r3, #1
 80028fc:	e000      	b.n	8002900 <HAL_GPIO_Init+0x228>
 80028fe:	2300      	movs	r3, #0
 8002900:	69fa      	ldr	r2, [r7, #28]
 8002902:	f002 0203 	and.w	r2, r2, #3
 8002906:	0092      	lsls	r2, r2, #2
 8002908:	4093      	lsls	r3, r2
 800290a:	69ba      	ldr	r2, [r7, #24]
 800290c:	4313      	orrs	r3, r2
 800290e:	61bb      	str	r3, [r7, #24]
 8002910:	4934      	ldr	r1, [pc, #208]	; (80029e4 <HAL_GPIO_Init+0x30c>)
 8002912:	69fb      	ldr	r3, [r7, #28]
 8002914:	089b      	lsrs	r3, r3, #2
 8002916:	3302      	adds	r3, #2
 8002918:	69ba      	ldr	r2, [r7, #24]
 800291a:	f841 2023 	str.w	r2, [r1, r3, lsl #2]
 800291e:	4b3a      	ldr	r3, [pc, #232]	; (8002a08 <HAL_GPIO_Init+0x330>)
 8002920:	681b      	ldr	r3, [r3, #0]
 8002922:	61bb      	str	r3, [r7, #24]
 8002924:	693b      	ldr	r3, [r7, #16]
 8002926:	43db      	mvns	r3, r3
 8002928:	69ba      	ldr	r2, [r7, #24]
 800292a:	4013      	ands	r3, r2
 800292c:	61bb      	str	r3, [r7, #24]
 800292e:	683b      	ldr	r3, [r7, #0]
 8002930:	685b      	ldr	r3, [r3, #4]
 8002932:	f403 3380 	and.w	r3, r3, #65536	; 0x10000
 8002936:	2b00      	cmp	r3, #0
 8002938:	d003      	beq.n	8002942 <HAL_GPIO_Init+0x26a>
 800293a:	69ba      	ldr	r2, [r7, #24]
 800293c:	693b      	ldr	r3, [r7, #16]
 800293e:	4313      	orrs	r3, r2
 8002940:	61bb      	str	r3, [r7, #24]
 8002942:	4a31      	ldr	r2, [pc, #196]	; (8002a08 <HAL_GPIO_Init+0x330>)
 8002944:	69bb      	ldr	r3, [r7, #24]
 8002946:	6013      	str	r3, [r2, #0]
 8002948:	4b2f      	ldr	r3, [pc, #188]	; (8002a08 <HAL_GPIO_Init+0x330>)
 800294a:	685b      	ldr	r3, [r3, #4]
 800294c:	61bb      	str	r3, [r7, #24]
 800294e:	693b      	ldr	r3, [r7, #16]
 8002950:	43db      	mvns	r3, r3
 8002952:	69ba      	ldr	r2, [r7, #24]
 8002954:	4013      	ands	r3, r2
 8002956:	61bb      	str	r3, [r7, #24]
 8002958:	683b      	ldr	r3, [r7, #0]
 800295a:	685b      	ldr	r3, [r3, #4]
 800295c:	f403 3300 	and.w	r3, r3, #131072	; 0x20000
 8002960:	2b00      	cmp	r3, #0
 8002962:	d003      	beq.n	800296c <HAL_GPIO_Init+0x294>
 8002964:	69ba      	ldr	r2, [r7, #24]
 8002966:	693b      	ldr	r3, [r7, #16]
 8002968:	4313      	orrs	r3, r2
 800296a:	61bb      	str	r3, [r7, #24]
 800296c:	4a26      	ldr	r2, [pc, #152]	; (8002a08 <HAL_GPIO_Init+0x330>)
 800296e:	69bb      	ldr	r3, [r7, #24]
 8002970:	6053      	str	r3, [r2, #4]
 8002972:	4b25      	ldr	r3, [pc, #148]	; (8002a08 <HAL_GPIO_Init+0x330>)
 8002974:	689b      	ldr	r3, [r3, #8]
 8002976:	61bb      	str	r3, [r7, #24]
 8002978:	693b      	ldr	r3, [r7, #16]
 800297a:	43db      	mvns	r3, r3
 800297c:	69ba      	ldr	r2, [r7, #24]
 800297e:	4013      	ands	r3, r2
 8002980:	61bb      	str	r3, [r7, #24]
 8002982:	683b      	ldr	r3, [r7, #0]
 8002984:	685b      	ldr	r3, [r3, #4]
 8002986:	f403 1380 	and.w	r3, r3, #1048576	; 0x100000
 800298a:	2b00      	cmp	r3, #0
 800298c:	d003      	beq.n	8002996 <HAL_GPIO_Init+0x2be>
 800298e:	69ba      	ldr	r2, [r7, #24]
 8002990:	693b      	ldr	r3, [r7, #16]
 8002992:	4313      	orrs	r3, r2
 8002994:	61bb      	str	r3, [r7, #24]
 8002996:	4a1c      	ldr	r2, [pc, #112]	; (8002a08 <HAL_GPIO_Init+0x330>)
 8002998:	69bb      	ldr	r3, [r7, #24]
 800299a:	6093      	str	r3, [r2, #8]
 800299c:	4b1a      	ldr	r3, [pc, #104]	; (8002a08 <HAL_GPIO_Init+0x330>)
 800299e:	68db      	ldr	r3, [r3, #12]
 80029a0:	61bb      	str	r3, [r7, #24]
 80029a2:	693b      	ldr	r3, [r7, #16]
 80029a4:	43db      	mvns	r3, r3
 80029a6:	69ba      	ldr	r2, [r7, #24]
 80029a8:	4013      	ands	r3, r2
 80029aa:	61bb      	str	r3, [r7, #24]
 80029ac:	683b      	ldr	r3, [r7, #0]
 80029ae:	685b      	ldr	r3, [r3, #4]
 80029b0:	f403 1300 	and.w	r3, r3, #2097152	; 0x200000
 80029b4:	2b00      	cmp	r3, #0
 80029b6:	d003      	beq.n	80029c0 <HAL_GPIO_Init+0x2e8>
 80029b8:	69ba      	ldr	r2, [r7, #24]
 80029ba:	693b      	ldr	r3, [r7, #16]
 80029bc:	4313      	orrs	r3, r2
 80029be:	61bb      	str	r3, [r7, #24]
 80029c0:	4a11      	ldr	r2, [pc, #68]	; (8002a08 <HAL_GPIO_Init+0x330>)
 80029c2:	69bb      	ldr	r3, [r7, #24]
 80029c4:	60d3      	str	r3, [r2, #12]
 80029c6:	69fb      	ldr	r3, [r7, #28]
 80029c8:	3301      	adds	r3, #1
 80029ca:	61fb      	str	r3, [r7, #28]
 80029cc:	69fb      	ldr	r3, [r7, #28]
 80029ce:	2b0f      	cmp	r3, #15
 80029d0:	f67f ae90 	bls.w	80026f4 <HAL_GPIO_Init+0x1c>
 80029d4:	bf00      	nop
 80029d6:	3724      	adds	r7, #36	; 0x24
 80029d8:	46bd      	mov	sp, r7
 80029da:	f85d 7b04 	ldr.w	r7, [sp], #4
 80029de:	4770      	bx	lr
 80029e0:	40023800 	.word	0x40023800
 80029e4:	40013800 	.word	0x40013800
 80029e8:	40020000 	.word	0x40020000
 80029ec:	40020400 	.word	0x40020400
 80029f0:	40020800 	.word	0x40020800
 80029f4:	40020c00 	.word	0x40020c00
 80029f8:	40021000 	.word	0x40021000
 80029fc:	40021400 	.word	0x40021400
 8002a00:	40021800 	.word	0x40021800
 8002a04:	40021c00 	.word	0x40021c00
 8002a08:	40013c00 	.word	0x40013c00

08002a0c <HAL_GPIO_WritePin>:
 8002a0c:	b480      	push	{r7}
 8002a0e:	b083      	sub	sp, #12
 8002a10:	af00      	add	r7, sp, #0
 8002a12:	6078      	str	r0, [r7, #4]
 8002a14:	460b      	mov	r3, r1
 8002a16:	807b      	strh	r3, [r7, #2]
 8002a18:	4613      	mov	r3, r2
 8002a1a:	707b      	strb	r3, [r7, #1]
 8002a1c:	787b      	ldrb	r3, [r7, #1]
 8002a1e:	2b00      	cmp	r3, #0
 8002a20:	d003      	beq.n	8002a2a <HAL_GPIO_WritePin+0x1e>
 8002a22:	887a      	ldrh	r2, [r7, #2]
 8002a24:	687b      	ldr	r3, [r7, #4]
 8002a26:	619a      	str	r2, [r3, #24]
 8002a28:	e003      	b.n	8002a32 <HAL_GPIO_WritePin+0x26>
 8002a2a:	887b      	ldrh	r3, [r7, #2]
 8002a2c:	041a      	lsls	r2, r3, #16
 8002a2e:	687b      	ldr	r3, [r7, #4]
 8002a30:	619a      	str	r2, [r3, #24]
 8002a32:	bf00      	nop
 8002a34:	370c      	adds	r7, #12
 8002a36:	46bd      	mov	sp, r7
 8002a38:	f85d 7b04 	ldr.w	r7, [sp], #4
 8002a3c:	4770      	bx	lr
	...

08002a40 <HAL_I2C_Init>:
 8002a40:	b580      	push	{r7, lr}
 8002a42:	b084      	sub	sp, #16
 8002a44:	af00      	add	r7, sp, #0
 8002a46:	6078      	str	r0, [r7, #4]
 8002a48:	687b      	ldr	r3, [r7, #4]
 8002a4a:	2b00      	cmp	r3, #0
 8002a4c:	d101      	bne.n	8002a52 <HAL_I2C_Init+0x12>
 8002a4e:	2301      	movs	r3, #1
 8002a50:	e11f      	b.n	8002c92 <HAL_I2C_Init+0x252>
 8002a52:	687b      	ldr	r3, [r7, #4]
 8002a54:	f893 303d 	ldrb.w	r3, [r3, #61]	; 0x3d
 8002a58:	b2db      	uxtb	r3, r3
 8002a5a:	2b00      	cmp	r3, #0
 8002a5c:	d106      	bne.n	8002a6c <HAL_I2C_Init+0x2c>
 8002a5e:	687b      	ldr	r3, [r7, #4]
 8002a60:	2200      	movs	r2, #0
 8002a62:	f883 203c 	strb.w	r2, [r3, #60]	; 0x3c
 8002a66:	6878      	ldr	r0, [r7, #4]
 8002a68:	f7fe fea8 	bl	80017bc <HAL_I2C_MspInit>
 8002a6c:	687b      	ldr	r3, [r7, #4]
 8002a6e:	2224      	movs	r2, #36	; 0x24
 8002a70:	f883 203d 	strb.w	r2, [r3, #61]	; 0x3d
 8002a74:	687b      	ldr	r3, [r7, #4]
 8002a76:	681b      	ldr	r3, [r3, #0]
 8002a78:	681a      	ldr	r2, [r3, #0]
 8002a7a:	687b      	ldr	r3, [r7, #4]
 8002a7c:	681b      	ldr	r3, [r3, #0]
 8002a7e:	f022 0201 	bic.w	r2, r2, #1
 8002a82:	601a      	str	r2, [r3, #0]
 8002a84:	687b      	ldr	r3, [r7, #4]
 8002a86:	681b      	ldr	r3, [r3, #0]
 8002a88:	681a      	ldr	r2, [r3, #0]
 8002a8a:	687b      	ldr	r3, [r7, #4]
 8002a8c:	681b      	ldr	r3, [r3, #0]
 8002a8e:	f442 4200 	orr.w	r2, r2, #32768	; 0x8000
 8002a92:	601a      	str	r2, [r3, #0]
 8002a94:	687b      	ldr	r3, [r7, #4]
 8002a96:	681b      	ldr	r3, [r3, #0]
 8002a98:	681a      	ldr	r2, [r3, #0]
 8002a9a:	687b      	ldr	r3, [r7, #4]
 8002a9c:	681b      	ldr	r3, [r3, #0]
 8002a9e:	f422 4200 	bic.w	r2, r2, #32768	; 0x8000
 8002aa2:	601a      	str	r2, [r3, #0]
 8002aa4:	f001 fc6e 	bl	8004384 <HAL_RCC_GetPCLK1Freq>
 8002aa8:	60f8      	str	r0, [r7, #12]
 8002aaa:	687b      	ldr	r3, [r7, #4]
 8002aac:	685b      	ldr	r3, [r3, #4]
 8002aae:	4a7b      	ldr	r2, [pc, #492]	; (8002c9c <HAL_I2C_Init+0x25c>)
 8002ab0:	4293      	cmp	r3, r2
 8002ab2:	d807      	bhi.n	8002ac4 <HAL_I2C_Init+0x84>
 8002ab4:	68fb      	ldr	r3, [r7, #12]
 8002ab6:	4a7a      	ldr	r2, [pc, #488]	; (8002ca0 <HAL_I2C_Init+0x260>)
 8002ab8:	4293      	cmp	r3, r2
 8002aba:	bf94      	ite	ls
 8002abc:	2301      	movls	r3, #1
 8002abe:	2300      	movhi	r3, #0
 8002ac0:	b2db      	uxtb	r3, r3
 8002ac2:	e006      	b.n	8002ad2 <HAL_I2C_Init+0x92>
 8002ac4:	68fb      	ldr	r3, [r7, #12]
 8002ac6:	4a77      	ldr	r2, [pc, #476]	; (8002ca4 <HAL_I2C_Init+0x264>)
 8002ac8:	4293      	cmp	r3, r2
 8002aca:	bf94      	ite	ls
 8002acc:	2301      	movls	r3, #1
 8002ace:	2300      	movhi	r3, #0
 8002ad0:	b2db      	uxtb	r3, r3
 8002ad2:	2b00      	cmp	r3, #0
 8002ad4:	d001      	beq.n	8002ada <HAL_I2C_Init+0x9a>
 8002ad6:	2301      	movs	r3, #1
 8002ad8:	e0db      	b.n	8002c92 <HAL_I2C_Init+0x252>
 8002ada:	68fb      	ldr	r3, [r7, #12]
 8002adc:	4a72      	ldr	r2, [pc, #456]	; (8002ca8 <HAL_I2C_Init+0x268>)
 8002ade:	fba2 2303 	umull	r2, r3, r2, r3
 8002ae2:	0c9b      	lsrs	r3, r3, #18
 8002ae4:	60bb      	str	r3, [r7, #8]
 8002ae6:	687b      	ldr	r3, [r7, #4]
 8002ae8:	681b      	ldr	r3, [r3, #0]
 8002aea:	685b      	ldr	r3, [r3, #4]
 8002aec:	f023 013f 	bic.w	r1, r3, #63	; 0x3f
 8002af0:	687b      	ldr	r3, [r7, #4]
 8002af2:	681b      	ldr	r3, [r3, #0]
 8002af4:	68ba      	ldr	r2, [r7, #8]
 8002af6:	430a      	orrs	r2, r1
 8002af8:	605a      	str	r2, [r3, #4]
 8002afa:	687b      	ldr	r3, [r7, #4]
 8002afc:	681b      	ldr	r3, [r3, #0]
 8002afe:	6a1b      	ldr	r3, [r3, #32]
 8002b00:	f023 013f 	bic.w	r1, r3, #63	; 0x3f
 8002b04:	687b      	ldr	r3, [r7, #4]
 8002b06:	685b      	ldr	r3, [r3, #4]
 8002b08:	4a64      	ldr	r2, [pc, #400]	; (8002c9c <HAL_I2C_Init+0x25c>)
 8002b0a:	4293      	cmp	r3, r2
 8002b0c:	d802      	bhi.n	8002b14 <HAL_I2C_Init+0xd4>
 8002b0e:	68bb      	ldr	r3, [r7, #8]
 8002b10:	3301      	adds	r3, #1
 8002b12:	e009      	b.n	8002b28 <HAL_I2C_Init+0xe8>
 8002b14:	68bb      	ldr	r3, [r7, #8]
 8002b16:	f44f 7296 	mov.w	r2, #300	; 0x12c
 8002b1a:	fb02 f303 	mul.w	r3, r2, r3
 8002b1e:	4a63      	ldr	r2, [pc, #396]	; (8002cac <HAL_I2C_Init+0x26c>)
 8002b20:	fba2 2303 	umull	r2, r3, r2, r3
 8002b24:	099b      	lsrs	r3, r3, #6
 8002b26:	3301      	adds	r3, #1
 8002b28:	687a      	ldr	r2, [r7, #4]
 8002b2a:	6812      	ldr	r2, [r2, #0]
 8002b2c:	430b      	orrs	r3, r1
 8002b2e:	6213      	str	r3, [r2, #32]
 8002b30:	687b      	ldr	r3, [r7, #4]
 8002b32:	681b      	ldr	r3, [r3, #0]
 8002b34:	69db      	ldr	r3, [r3, #28]
 8002b36:	f423 424f 	bic.w	r2, r3, #52992	; 0xcf00
 8002b3a:	f022 02ff 	bic.w	r2, r2, #255	; 0xff
 8002b3e:	687b      	ldr	r3, [r7, #4]
 8002b40:	685b      	ldr	r3, [r3, #4]
 8002b42:	4956      	ldr	r1, [pc, #344]	; (8002c9c <HAL_I2C_Init+0x25c>)
 8002b44:	428b      	cmp	r3, r1
 8002b46:	d80d      	bhi.n	8002b64 <HAL_I2C_Init+0x124>
 8002b48:	68fb      	ldr	r3, [r7, #12]
 8002b4a:	1e59      	subs	r1, r3, #1
 8002b4c:	687b      	ldr	r3, [r7, #4]
 8002b4e:	685b      	ldr	r3, [r3, #4]
 8002b50:	005b      	lsls	r3, r3, #1
 8002b52:	fbb1 f3f3 	udiv	r3, r1, r3
 8002b56:	3301      	adds	r3, #1
 8002b58:	f3c3 030b 	ubfx	r3, r3, #0, #12
 8002b5c:	2b04      	cmp	r3, #4
 8002b5e:	bf38      	it	cc
 8002b60:	2304      	movcc	r3, #4
 8002b62:	e04f      	b.n	8002c04 <HAL_I2C_Init+0x1c4>
 8002b64:	687b      	ldr	r3, [r7, #4]
 8002b66:	689b      	ldr	r3, [r3, #8]
 8002b68:	2b00      	cmp	r3, #0
 8002b6a:	d111      	bne.n	8002b90 <HAL_I2C_Init+0x150>
 8002b6c:	68fb      	ldr	r3, [r7, #12]
 8002b6e:	1e58      	subs	r0, r3, #1
 8002b70:	687b      	ldr	r3, [r7, #4]
 8002b72:	6859      	ldr	r1, [r3, #4]
 8002b74:	460b      	mov	r3, r1
 8002b76:	005b      	lsls	r3, r3, #1
 8002b78:	440b      	add	r3, r1
 8002b7a:	fbb0 f3f3 	udiv	r3, r0, r3
 8002b7e:	3301      	adds	r3, #1
 8002b80:	f3c3 030b 	ubfx	r3, r3, #0, #12
 8002b84:	2b00      	cmp	r3, #0
 8002b86:	bf0c      	ite	eq
 8002b88:	2301      	moveq	r3, #1
 8002b8a:	2300      	movne	r3, #0
 8002b8c:	b2db      	uxtb	r3, r3
 8002b8e:	e012      	b.n	8002bb6 <HAL_I2C_Init+0x176>
 8002b90:	68fb      	ldr	r3, [r7, #12]
 8002b92:	1e58      	subs	r0, r3, #1
 8002b94:	687b      	ldr	r3, [r7, #4]
 8002b96:	6859      	ldr	r1, [r3, #4]
 8002b98:	460b      	mov	r3, r1
 8002b9a:	009b      	lsls	r3, r3, #2
 8002b9c:	440b      	add	r3, r1
 8002b9e:	0099      	lsls	r1, r3, #2
 8002ba0:	440b      	add	r3, r1
 8002ba2:	fbb0 f3f3 	udiv	r3, r0, r3
 8002ba6:	3301      	adds	r3, #1
 8002ba8:	f3c3 030b 	ubfx	r3, r3, #0, #12
 8002bac:	2b00      	cmp	r3, #0
 8002bae:	bf0c      	ite	eq
 8002bb0:	2301      	moveq	r3, #1
 8002bb2:	2300      	movne	r3, #0
 8002bb4:	b2db      	uxtb	r3, r3
 8002bb6:	2b00      	cmp	r3, #0
 8002bb8:	d001      	beq.n	8002bbe <HAL_I2C_Init+0x17e>
 8002bba:	2301      	movs	r3, #1
 8002bbc:	e022      	b.n	8002c04 <HAL_I2C_Init+0x1c4>
 8002bbe:	687b      	ldr	r3, [r7, #4]
 8002bc0:	689b      	ldr	r3, [r3, #8]
 8002bc2:	2b00      	cmp	r3, #0
 8002bc4:	d10e      	bne.n	8002be4 <HAL_I2C_Init+0x1a4>
 8002bc6:	68fb      	ldr	r3, [r7, #12]
 8002bc8:	1e58      	subs	r0, r3, #1
 8002bca:	687b      	ldr	r3, [r7, #4]
 8002bcc:	6859      	ldr	r1, [r3, #4]
 8002bce:	460b      	mov	r3, r1
 8002bd0:	005b      	lsls	r3, r3, #1
 8002bd2:	440b      	add	r3, r1
 8002bd4:	fbb0 f3f3 	udiv	r3, r0, r3
 8002bd8:	3301      	adds	r3, #1
 8002bda:	f3c3 030b 	ubfx	r3, r3, #0, #12
 8002bde:	f443 4300 	orr.w	r3, r3, #32768	; 0x8000
 8002be2:	e00f      	b.n	8002c04 <HAL_I2C_Init+0x1c4>
 8002be4:	68fb      	ldr	r3, [r7, #12]
 8002be6:	1e58      	subs	r0, r3, #1
 8002be8:	687b      	ldr	r3, [r7, #4]
 8002bea:	6859      	ldr	r1, [r3, #4]
 8002bec:	460b      	mov	r3, r1
 8002bee:	009b      	lsls	r3, r3, #2
 8002bf0:	440b      	add	r3, r1
 8002bf2:	0099      	lsls	r1, r3, #2
 8002bf4:	440b      	add	r3, r1
 8002bf6:	fbb0 f3f3 	udiv	r3, r0, r3
 8002bfa:	3301      	adds	r3, #1
 8002bfc:	f3c3 030b 	ubfx	r3, r3, #0, #12
 8002c00:	f443 4340 	orr.w	r3, r3, #49152	; 0xc000
 8002c04:	6879      	ldr	r1, [r7, #4]
 8002c06:	6809      	ldr	r1, [r1, #0]
 8002c08:	4313      	orrs	r3, r2
 8002c0a:	61cb      	str	r3, [r1, #28]
 8002c0c:	687b      	ldr	r3, [r7, #4]
 8002c0e:	681b      	ldr	r3, [r3, #0]
 8002c10:	681b      	ldr	r3, [r3, #0]
 8002c12:	f023 01c0 	bic.w	r1, r3, #192	; 0xc0
 8002c16:	687b      	ldr	r3, [r7, #4]
 8002c18:	69da      	ldr	r2, [r3, #28]
 8002c1a:	687b      	ldr	r3, [r7, #4]
 8002c1c:	6a1b      	ldr	r3, [r3, #32]
 8002c1e:	431a      	orrs	r2, r3
 8002c20:	687b      	ldr	r3, [r7, #4]
 8002c22:	681b      	ldr	r3, [r3, #0]
 8002c24:	430a      	orrs	r2, r1
 8002c26:	601a      	str	r2, [r3, #0]
 8002c28:	687b      	ldr	r3, [r7, #4]
 8002c2a:	681b      	ldr	r3, [r3, #0]
 8002c2c:	689b      	ldr	r3, [r3, #8]
 8002c2e:	f423 4303 	bic.w	r3, r3, #33536	; 0x8300
 8002c32:	f023 03ff 	bic.w	r3, r3, #255	; 0xff
 8002c36:	687a      	ldr	r2, [r7, #4]
 8002c38:	6911      	ldr	r1, [r2, #16]
 8002c3a:	687a      	ldr	r2, [r7, #4]
 8002c3c:	68d2      	ldr	r2, [r2, #12]
 8002c3e:	4311      	orrs	r1, r2
 8002c40:	687a      	ldr	r2, [r7, #4]
 8002c42:	6812      	ldr	r2, [r2, #0]
 8002c44:	430b      	orrs	r3, r1
 8002c46:	6093      	str	r3, [r2, #8]
 8002c48:	687b      	ldr	r3, [r7, #4]
 8002c4a:	681b      	ldr	r3, [r3, #0]
 8002c4c:	68db      	ldr	r3, [r3, #12]
 8002c4e:	f023 01ff 	bic.w	r1, r3, #255	; 0xff
 8002c52:	687b      	ldr	r3, [r7, #4]
 8002c54:	695a      	ldr	r2, [r3, #20]
 8002c56:	687b      	ldr	r3, [r7, #4]
 8002c58:	699b      	ldr	r3, [r3, #24]
 8002c5a:	431a      	orrs	r2, r3
 8002c5c:	687b      	ldr	r3, [r7, #4]
 8002c5e:	681b      	ldr	r3, [r3, #0]
 8002c60:	430a      	orrs	r2, r1
 8002c62:	60da      	str	r2, [r3, #12]
 8002c64:	687b      	ldr	r3, [r7, #4]
 8002c66:	681b      	ldr	r3, [r3, #0]
 8002c68:	681a      	ldr	r2, [r3, #0]
 8002c6a:	687b      	ldr	r3, [r7, #4]
 8002c6c:	681b      	ldr	r3, [r3, #0]
 8002c6e:	f042 0201 	orr.w	r2, r2, #1
 8002c72:	601a      	str	r2, [r3, #0]
 8002c74:	687b      	ldr	r3, [r7, #4]
 8002c76:	2200      	movs	r2, #0
 8002c78:	641a      	str	r2, [r3, #64]	; 0x40
 8002c7a:	687b      	ldr	r3, [r7, #4]
 8002c7c:	2220      	movs	r2, #32
 8002c7e:	f883 203d 	strb.w	r2, [r3, #61]	; 0x3d
 8002c82:	687b      	ldr	r3, [r7, #4]
 8002c84:	2200      	movs	r2, #0
 8002c86:	631a      	str	r2, [r3, #48]	; 0x30
 8002c88:	687b      	ldr	r3, [r7, #4]
 8002c8a:	2200      	movs	r2, #0
 8002c8c:	f883 203e 	strb.w	r2, [r3, #62]	; 0x3e
 8002c90:	2300      	movs	r3, #0
 8002c92:	4618      	mov	r0, r3
 8002c94:	3710      	adds	r7, #16
 8002c96:	46bd      	mov	sp, r7
 8002c98:	bd80      	pop	{r7, pc}
 8002c9a:	bf00      	nop
 8002c9c:	000186a0 	.word	0x000186a0
 8002ca0:	001e847f 	.word	0x001e847f
 8002ca4:	003d08ff 	.word	0x003d08ff
 8002ca8:	431bde83 	.word	0x431bde83
 8002cac:	10624dd3 	.word	0x10624dd3

08002cb0 <HAL_PCD_Init>:
 8002cb0:	b5f0      	push	{r4, r5, r6, r7, lr}
 8002cb2:	b08f      	sub	sp, #60	; 0x3c
 8002cb4:	af0a      	add	r7, sp, #40	; 0x28
 8002cb6:	6078      	str	r0, [r7, #4]
 8002cb8:	687b      	ldr	r3, [r7, #4]
 8002cba:	2b00      	cmp	r3, #0
 8002cbc:	d101      	bne.n	8002cc2 <HAL_PCD_Init+0x12>
 8002cbe:	2301      	movs	r3, #1
 8002cc0:	e10f      	b.n	8002ee2 <HAL_PCD_Init+0x232>
 8002cc2:	687b      	ldr	r3, [r7, #4]
 8002cc4:	681b      	ldr	r3, [r3, #0]
 8002cc6:	60bb      	str	r3, [r7, #8]
 8002cc8:	687b      	ldr	r3, [r7, #4]
 8002cca:	f893 33bd 	ldrb.w	r3, [r3, #957]	; 0x3bd
 8002cce:	b2db      	uxtb	r3, r3
 8002cd0:	2b00      	cmp	r3, #0
 8002cd2:	d106      	bne.n	8002ce2 <HAL_PCD_Init+0x32>
 8002cd4:	687b      	ldr	r3, [r7, #4]
 8002cd6:	2200      	movs	r2, #0
 8002cd8:	f883 23bc 	strb.w	r2, [r3, #956]	; 0x3bc
 8002cdc:	6878      	ldr	r0, [r7, #4]
 8002cde:	f7ff f82b 	bl	8001d38 <HAL_PCD_MspInit>
 8002ce2:	687b      	ldr	r3, [r7, #4]
 8002ce4:	2203      	movs	r2, #3
 8002ce6:	f883 23bd 	strb.w	r2, [r3, #957]	; 0x3bd
 8002cea:	68bb      	ldr	r3, [r7, #8]
 8002cec:	6bdb      	ldr	r3, [r3, #60]	; 0x3c
 8002cee:	f403 7380 	and.w	r3, r3, #256	; 0x100
 8002cf2:	2b00      	cmp	r3, #0
 8002cf4:	d102      	bne.n	8002cfc <HAL_PCD_Init+0x4c>
 8002cf6:	687b      	ldr	r3, [r7, #4]
 8002cf8:	2200      	movs	r2, #0
 8002cfa:	611a      	str	r2, [r3, #16]
 8002cfc:	687b      	ldr	r3, [r7, #4]
 8002cfe:	681b      	ldr	r3, [r3, #0]
 8002d00:	4618      	mov	r0, r3
 8002d02:	f003 f829 	bl	8005d58 <USB_DisableGlobalInt>
 8002d06:	687b      	ldr	r3, [r7, #4]
 8002d08:	681b      	ldr	r3, [r3, #0]
 8002d0a:	603b      	str	r3, [r7, #0]
 8002d0c:	687e      	ldr	r6, [r7, #4]
 8002d0e:	466d      	mov	r5, sp
 8002d10:	f106 0410 	add.w	r4, r6, #16
 8002d14:	cc0f      	ldmia	r4!, {r0, r1, r2, r3}
 8002d16:	c50f      	stmia	r5!, {r0, r1, r2, r3}
 8002d18:	cc0f      	ldmia	r4!, {r0, r1, r2, r3}
 8002d1a:	c50f      	stmia	r5!, {r0, r1, r2, r3}
 8002d1c:	e894 0003 	ldmia.w	r4, {r0, r1}
 8002d20:	e885 0003 	stmia.w	r5, {r0, r1}
 8002d24:	1d33      	adds	r3, r6, #4
 8002d26:	cb0e      	ldmia	r3, {r1, r2, r3}
 8002d28:	6838      	ldr	r0, [r7, #0]
 8002d2a:	f002 ff11 	bl	8005b50 <USB_CoreInit>
 8002d2e:	4603      	mov	r3, r0
 8002d30:	2b00      	cmp	r3, #0
 8002d32:	d005      	beq.n	8002d40 <HAL_PCD_Init+0x90>
 8002d34:	687b      	ldr	r3, [r7, #4]
 8002d36:	2202      	movs	r2, #2
 8002d38:	f883 23bd 	strb.w	r2, [r3, #957]	; 0x3bd
 8002d3c:	2301      	movs	r3, #1
 8002d3e:	e0d0      	b.n	8002ee2 <HAL_PCD_Init+0x232>
 8002d40:	687b      	ldr	r3, [r7, #4]
 8002d42:	681b      	ldr	r3, [r3, #0]
 8002d44:	2100      	movs	r1, #0
 8002d46:	4618      	mov	r0, r3
 8002d48:	f003 f817 	bl	8005d7a <USB_SetCurrentMode>
 8002d4c:	2300      	movs	r3, #0
 8002d4e:	73fb      	strb	r3, [r7, #15]
 8002d50:	e04a      	b.n	8002de8 <HAL_PCD_Init+0x138>
 8002d52:	7bfa      	ldrb	r2, [r7, #15]
 8002d54:	6879      	ldr	r1, [r7, #4]
 8002d56:	4613      	mov	r3, r2
 8002d58:	00db      	lsls	r3, r3, #3
 8002d5a:	1a9b      	subs	r3, r3, r2
 8002d5c:	009b      	lsls	r3, r3, #2
 8002d5e:	440b      	add	r3, r1
 8002d60:	333d      	adds	r3, #61	; 0x3d
 8002d62:	2201      	movs	r2, #1
 8002d64:	701a      	strb	r2, [r3, #0]
 8002d66:	7bfa      	ldrb	r2, [r7, #15]
 8002d68:	6879      	ldr	r1, [r7, #4]
 8002d6a:	4613      	mov	r3, r2
 8002d6c:	00db      	lsls	r3, r3, #3
 8002d6e:	1a9b      	subs	r3, r3, r2
 8002d70:	009b      	lsls	r3, r3, #2
 8002d72:	440b      	add	r3, r1
 8002d74:	333c      	adds	r3, #60	; 0x3c
 8002d76:	7bfa      	ldrb	r2, [r7, #15]
 8002d78:	701a      	strb	r2, [r3, #0]
 8002d7a:	7bfa      	ldrb	r2, [r7, #15]
 8002d7c:	7bfb      	ldrb	r3, [r7, #15]
 8002d7e:	b298      	uxth	r0, r3
 8002d80:	6879      	ldr	r1, [r7, #4]
 8002d82:	4613      	mov	r3, r2
 8002d84:	00db      	lsls	r3, r3, #3
 8002d86:	1a9b      	subs	r3, r3, r2
 8002d88:	009b      	lsls	r3, r3, #2
 8002d8a:	440b      	add	r3, r1
 8002d8c:	3342      	adds	r3, #66	; 0x42
 8002d8e:	4602      	mov	r2, r0
 8002d90:	801a      	strh	r2, [r3, #0]
 8002d92:	7bfa      	ldrb	r2, [r7, #15]
 8002d94:	6879      	ldr	r1, [r7, #4]
 8002d96:	4613      	mov	r3, r2
 8002d98:	00db      	lsls	r3, r3, #3
 8002d9a:	1a9b      	subs	r3, r3, r2
 8002d9c:	009b      	lsls	r3, r3, #2
 8002d9e:	440b      	add	r3, r1
 8002da0:	333f      	adds	r3, #63	; 0x3f
 8002da2:	2200      	movs	r2, #0
 8002da4:	701a      	strb	r2, [r3, #0]
 8002da6:	7bfa      	ldrb	r2, [r7, #15]
 8002da8:	6879      	ldr	r1, [r7, #4]
 8002daa:	4613      	mov	r3, r2
 8002dac:	00db      	lsls	r3, r3, #3
 8002dae:	1a9b      	subs	r3, r3, r2
 8002db0:	009b      	lsls	r3, r3, #2
 8002db2:	440b      	add	r3, r1
 8002db4:	3344      	adds	r3, #68	; 0x44
 8002db6:	2200      	movs	r2, #0
 8002db8:	601a      	str	r2, [r3, #0]
 8002dba:	7bfa      	ldrb	r2, [r7, #15]
 8002dbc:	6879      	ldr	r1, [r7, #4]
 8002dbe:	4613      	mov	r3, r2
 8002dc0:	00db      	lsls	r3, r3, #3
 8002dc2:	1a9b      	subs	r3, r3, r2
 8002dc4:	009b      	lsls	r3, r3, #2
 8002dc6:	440b      	add	r3, r1
 8002dc8:	3348      	adds	r3, #72	; 0x48
 8002dca:	2200      	movs	r2, #0
 8002dcc:	601a      	str	r2, [r3, #0]
 8002dce:	7bfa      	ldrb	r2, [r7, #15]
 8002dd0:	6879      	ldr	r1, [r7, #4]
 8002dd2:	4613      	mov	r3, r2
 8002dd4:	00db      	lsls	r3, r3, #3
 8002dd6:	1a9b      	subs	r3, r3, r2
 8002dd8:	009b      	lsls	r3, r3, #2
 8002dda:	440b      	add	r3, r1
 8002ddc:	3350      	adds	r3, #80	; 0x50
 8002dde:	2200      	movs	r2, #0
 8002de0:	601a      	str	r2, [r3, #0]
 8002de2:	7bfb      	ldrb	r3, [r7, #15]
 8002de4:	3301      	adds	r3, #1
 8002de6:	73fb      	strb	r3, [r7, #15]
 8002de8:	7bfa      	ldrb	r2, [r7, #15]
 8002dea:	687b      	ldr	r3, [r7, #4]
 8002dec:	685b      	ldr	r3, [r3, #4]
 8002dee:	429a      	cmp	r2, r3
 8002df0:	d3af      	bcc.n	8002d52 <HAL_PCD_Init+0xa2>
 8002df2:	2300      	movs	r3, #0
 8002df4:	73fb      	strb	r3, [r7, #15]
 8002df6:	e044      	b.n	8002e82 <HAL_PCD_Init+0x1d2>
 8002df8:	7bfa      	ldrb	r2, [r7, #15]
 8002dfa:	6879      	ldr	r1, [r7, #4]
 8002dfc:	4613      	mov	r3, r2
 8002dfe:	00db      	lsls	r3, r3, #3
 8002e00:	1a9b      	subs	r3, r3, r2
 8002e02:	009b      	lsls	r3, r3, #2
 8002e04:	440b      	add	r3, r1
 8002e06:	f203 13fd 	addw	r3, r3, #509	; 0x1fd
 8002e0a:	2200      	movs	r2, #0
 8002e0c:	701a      	strb	r2, [r3, #0]
 8002e0e:	7bfa      	ldrb	r2, [r7, #15]
 8002e10:	6879      	ldr	r1, [r7, #4]
 8002e12:	4613      	mov	r3, r2
 8002e14:	00db      	lsls	r3, r3, #3
 8002e16:	1a9b      	subs	r3, r3, r2
 8002e18:	009b      	lsls	r3, r3, #2
 8002e1a:	440b      	add	r3, r1
 8002e1c:	f503 73fe 	add.w	r3, r3, #508	; 0x1fc
 8002e20:	7bfa      	ldrb	r2, [r7, #15]
 8002e22:	701a      	strb	r2, [r3, #0]
 8002e24:	7bfa      	ldrb	r2, [r7, #15]
 8002e26:	6879      	ldr	r1, [r7, #4]
 8002e28:	4613      	mov	r3, r2
 8002e2a:	00db      	lsls	r3, r3, #3
 8002e2c:	1a9b      	subs	r3, r3, r2
 8002e2e:	009b      	lsls	r3, r3, #2
 8002e30:	440b      	add	r3, r1
 8002e32:	f203 13ff 	addw	r3, r3, #511	; 0x1ff
 8002e36:	2200      	movs	r2, #0
 8002e38:	701a      	strb	r2, [r3, #0]
 8002e3a:	7bfa      	ldrb	r2, [r7, #15]
 8002e3c:	6879      	ldr	r1, [r7, #4]
 8002e3e:	4613      	mov	r3, r2
 8002e40:	00db      	lsls	r3, r3, #3
 8002e42:	1a9b      	subs	r3, r3, r2
 8002e44:	009b      	lsls	r3, r3, #2
 8002e46:	440b      	add	r3, r1
 8002e48:	f503 7301 	add.w	r3, r3, #516	; 0x204
 8002e4c:	2200      	movs	r2, #0
 8002e4e:	601a      	str	r2, [r3, #0]
 8002e50:	7bfa      	ldrb	r2, [r7, #15]
 8002e52:	6879      	ldr	r1, [r7, #4]
 8002e54:	4613      	mov	r3, r2
 8002e56:	00db      	lsls	r3, r3, #3
 8002e58:	1a9b      	subs	r3, r3, r2
 8002e5a:	009b      	lsls	r3, r3, #2
 8002e5c:	440b      	add	r3, r1
 8002e5e:	f503 7302 	add.w	r3, r3, #520	; 0x208
 8002e62:	2200      	movs	r2, #0
 8002e64:	601a      	str	r2, [r3, #0]
 8002e66:	7bfa      	ldrb	r2, [r7, #15]
 8002e68:	6879      	ldr	r1, [r7, #4]
 8002e6a:	4613      	mov	r3, r2
 8002e6c:	00db      	lsls	r3, r3, #3
 8002e6e:	1a9b      	subs	r3, r3, r2
 8002e70:	009b      	lsls	r3, r3, #2
 8002e72:	440b      	add	r3, r1
 8002e74:	f503 7304 	add.w	r3, r3, #528	; 0x210
 8002e78:	2200      	movs	r2, #0
 8002e7a:	601a      	str	r2, [r3, #0]
 8002e7c:	7bfb      	ldrb	r3, [r7, #15]
 8002e7e:	3301      	adds	r3, #1
 8002e80:	73fb      	strb	r3, [r7, #15]
 8002e82:	7bfa      	ldrb	r2, [r7, #15]
 8002e84:	687b      	ldr	r3, [r7, #4]
 8002e86:	685b      	ldr	r3, [r3, #4]
 8002e88:	429a      	cmp	r2, r3
 8002e8a:	d3b5      	bcc.n	8002df8 <HAL_PCD_Init+0x148>
 8002e8c:	687b      	ldr	r3, [r7, #4]
 8002e8e:	681b      	ldr	r3, [r3, #0]
 8002e90:	603b      	str	r3, [r7, #0]
 8002e92:	687e      	ldr	r6, [r7, #4]
 8002e94:	466d      	mov	r5, sp
 8002e96:	f106 0410 	add.w	r4, r6, #16
 8002e9a:	cc0f      	ldmia	r4!, {r0, r1, r2, r3}
 8002e9c:	c50f      	stmia	r5!, {r0, r1, r2, r3}
 8002e9e:	cc0f      	ldmia	r4!, {r0, r1, r2, r3}
 8002ea0:	c50f      	stmia	r5!, {r0, r1, r2, r3}
 8002ea2:	e894 0003 	ldmia.w	r4, {r0, r1}
 8002ea6:	e885 0003 	stmia.w	r5, {r0, r1}
 8002eaa:	1d33      	adds	r3, r6, #4
 8002eac:	cb0e      	ldmia	r3, {r1, r2, r3}
 8002eae:	6838      	ldr	r0, [r7, #0]
 8002eb0:	f002 ff8e 	bl	8005dd0 <USB_DevInit>
 8002eb4:	4603      	mov	r3, r0
 8002eb6:	2b00      	cmp	r3, #0
 8002eb8:	d005      	beq.n	8002ec6 <HAL_PCD_Init+0x216>
 8002eba:	687b      	ldr	r3, [r7, #4]
 8002ebc:	2202      	movs	r2, #2
 8002ebe:	f883 23bd 	strb.w	r2, [r3, #957]	; 0x3bd
 8002ec2:	2301      	movs	r3, #1
 8002ec4:	e00d      	b.n	8002ee2 <HAL_PCD_Init+0x232>
 8002ec6:	687b      	ldr	r3, [r7, #4]
 8002ec8:	2200      	movs	r2, #0
 8002eca:	f883 2038 	strb.w	r2, [r3, #56]	; 0x38
 8002ece:	687b      	ldr	r3, [r7, #4]
 8002ed0:	2201      	movs	r2, #1
 8002ed2:	f883 23bd 	strb.w	r2, [r3, #957]	; 0x3bd
 8002ed6:	687b      	ldr	r3, [r7, #4]
 8002ed8:	681b      	ldr	r3, [r3, #0]
 8002eda:	4618      	mov	r0, r3
 8002edc:	f003 f9c0 	bl	8006260 <USB_DevDisconnect>
 8002ee0:	2300      	movs	r3, #0
 8002ee2:	4618      	mov	r0, r3
 8002ee4:	3714      	adds	r7, #20
 8002ee6:	46bd      	mov	sp, r7
 8002ee8:	bdf0      	pop	{r4, r5, r6, r7, pc}

08002eea <HAL_PCD_IRQHandler>:
 8002eea:	b590      	push	{r4, r7, lr}
 8002eec:	b08d      	sub	sp, #52	; 0x34
 8002eee:	af00      	add	r7, sp, #0
 8002ef0:	6078      	str	r0, [r7, #4]
 8002ef2:	687b      	ldr	r3, [r7, #4]
 8002ef4:	681b      	ldr	r3, [r3, #0]
 8002ef6:	623b      	str	r3, [r7, #32]
 8002ef8:	6a3b      	ldr	r3, [r7, #32]
 8002efa:	61fb      	str	r3, [r7, #28]
 8002efc:	687b      	ldr	r3, [r7, #4]
 8002efe:	681b      	ldr	r3, [r3, #0]
 8002f00:	4618      	mov	r0, r3
 8002f02:	f003 fa61 	bl	80063c8 <USB_GetMode>
 8002f06:	4603      	mov	r3, r0
 8002f08:	2b00      	cmp	r3, #0
 8002f0a:	f040 839d 	bne.w	8003648 <HAL_PCD_IRQHandler+0x75e>
 8002f0e:	687b      	ldr	r3, [r7, #4]
 8002f10:	681b      	ldr	r3, [r3, #0]
 8002f12:	4618      	mov	r0, r3
 8002f14:	f003 f9c5 	bl	80062a2 <USB_ReadInterrupts>
 8002f18:	4603      	mov	r3, r0
 8002f1a:	2b00      	cmp	r3, #0
 8002f1c:	f000 8393 	beq.w	8003646 <HAL_PCD_IRQHandler+0x75c>
 8002f20:	687b      	ldr	r3, [r7, #4]
 8002f22:	681b      	ldr	r3, [r3, #0]
 8002f24:	4618      	mov	r0, r3
 8002f26:	f003 f9bc 	bl	80062a2 <USB_ReadInterrupts>
 8002f2a:	4603      	mov	r3, r0
 8002f2c:	f003 0302 	and.w	r3, r3, #2
 8002f30:	2b02      	cmp	r3, #2
 8002f32:	d107      	bne.n	8002f44 <HAL_PCD_IRQHandler+0x5a>
 8002f34:	687b      	ldr	r3, [r7, #4]
 8002f36:	681b      	ldr	r3, [r3, #0]
 8002f38:	695a      	ldr	r2, [r3, #20]
 8002f3a:	687b      	ldr	r3, [r7, #4]
 8002f3c:	681b      	ldr	r3, [r3, #0]
 8002f3e:	f002 0202 	and.w	r2, r2, #2
 8002f42:	615a      	str	r2, [r3, #20]
 8002f44:	687b      	ldr	r3, [r7, #4]
 8002f46:	681b      	ldr	r3, [r3, #0]
 8002f48:	4618      	mov	r0, r3
 8002f4a:	f003 f9aa 	bl	80062a2 <USB_ReadInterrupts>
 8002f4e:	4603      	mov	r3, r0
 8002f50:	f003 0310 	and.w	r3, r3, #16
 8002f54:	2b10      	cmp	r3, #16
 8002f56:	d161      	bne.n	800301c <HAL_PCD_IRQHandler+0x132>
 8002f58:	687b      	ldr	r3, [r7, #4]
 8002f5a:	681b      	ldr	r3, [r3, #0]
 8002f5c:	699a      	ldr	r2, [r3, #24]
 8002f5e:	687b      	ldr	r3, [r7, #4]
 8002f60:	681b      	ldr	r3, [r3, #0]
 8002f62:	f022 0210 	bic.w	r2, r2, #16
 8002f66:	619a      	str	r2, [r3, #24]
 8002f68:	6a3b      	ldr	r3, [r7, #32]
 8002f6a:	6a1b      	ldr	r3, [r3, #32]
 8002f6c:	61bb      	str	r3, [r7, #24]
 8002f6e:	69bb      	ldr	r3, [r7, #24]
 8002f70:	f003 020f 	and.w	r2, r3, #15
 8002f74:	4613      	mov	r3, r2
 8002f76:	00db      	lsls	r3, r3, #3
 8002f78:	1a9b      	subs	r3, r3, r2
 8002f7a:	009b      	lsls	r3, r3, #2
 8002f7c:	f503 73fc 	add.w	r3, r3, #504	; 0x1f8
 8002f80:	687a      	ldr	r2, [r7, #4]
 8002f82:	4413      	add	r3, r2
 8002f84:	3304      	adds	r3, #4
 8002f86:	617b      	str	r3, [r7, #20]
 8002f88:	69bb      	ldr	r3, [r7, #24]
 8002f8a:	0c5b      	lsrs	r3, r3, #17
 8002f8c:	f003 030f 	and.w	r3, r3, #15
 8002f90:	2b02      	cmp	r3, #2
 8002f92:	d124      	bne.n	8002fde <HAL_PCD_IRQHandler+0xf4>
 8002f94:	69ba      	ldr	r2, [r7, #24]
 8002f96:	f647 73f0 	movw	r3, #32752	; 0x7ff0
 8002f9a:	4013      	ands	r3, r2
 8002f9c:	2b00      	cmp	r3, #0
 8002f9e:	d035      	beq.n	800300c <HAL_PCD_IRQHandler+0x122>
 8002fa0:	697b      	ldr	r3, [r7, #20]
 8002fa2:	68d9      	ldr	r1, [r3, #12]
 8002fa4:	69bb      	ldr	r3, [r7, #24]
 8002fa6:	091b      	lsrs	r3, r3, #4
 8002fa8:	b29b      	uxth	r3, r3
 8002faa:	f3c3 030a 	ubfx	r3, r3, #0, #11
 8002fae:	b29b      	uxth	r3, r3
 8002fb0:	461a      	mov	r2, r3
 8002fb2:	6a38      	ldr	r0, [r7, #32]
 8002fb4:	f003 f92b 	bl	800620e <USB_ReadPacket>
 8002fb8:	697b      	ldr	r3, [r7, #20]
 8002fba:	68da      	ldr	r2, [r3, #12]
 8002fbc:	69bb      	ldr	r3, [r7, #24]
 8002fbe:	091b      	lsrs	r3, r3, #4
 8002fc0:	f3c3 030a 	ubfx	r3, r3, #0, #11
 8002fc4:	441a      	add	r2, r3
 8002fc6:	697b      	ldr	r3, [r7, #20]
 8002fc8:	60da      	str	r2, [r3, #12]
 8002fca:	697b      	ldr	r3, [r7, #20]
 8002fcc:	699a      	ldr	r2, [r3, #24]
 8002fce:	69bb      	ldr	r3, [r7, #24]
 8002fd0:	091b      	lsrs	r3, r3, #4
 8002fd2:	f3c3 030a 	ubfx	r3, r3, #0, #11
 8002fd6:	441a      	add	r2, r3
 8002fd8:	697b      	ldr	r3, [r7, #20]
 8002fda:	619a      	str	r2, [r3, #24]
 8002fdc:	e016      	b.n	800300c <HAL_PCD_IRQHandler+0x122>
 8002fde:	69bb      	ldr	r3, [r7, #24]
 8002fe0:	0c5b      	lsrs	r3, r3, #17
 8002fe2:	f003 030f 	and.w	r3, r3, #15
 8002fe6:	2b06      	cmp	r3, #6
 8002fe8:	d110      	bne.n	800300c <HAL_PCD_IRQHandler+0x122>
 8002fea:	687b      	ldr	r3, [r7, #4]
 8002fec:	f503 7371 	add.w	r3, r3, #964	; 0x3c4
 8002ff0:	2208      	movs	r2, #8
 8002ff2:	4619      	mov	r1, r3
 8002ff4:	6a38      	ldr	r0, [r7, #32]
 8002ff6:	f003 f90a 	bl	800620e <USB_ReadPacket>
 8002ffa:	697b      	ldr	r3, [r7, #20]
 8002ffc:	699a      	ldr	r2, [r3, #24]
 8002ffe:	69bb      	ldr	r3, [r7, #24]
 8003000:	091b      	lsrs	r3, r3, #4
 8003002:	f3c3 030a 	ubfx	r3, r3, #0, #11
 8003006:	441a      	add	r2, r3
 8003008:	697b      	ldr	r3, [r7, #20]
 800300a:	619a      	str	r2, [r3, #24]
 800300c:	687b      	ldr	r3, [r7, #4]
 800300e:	681b      	ldr	r3, [r3, #0]
 8003010:	699a      	ldr	r2, [r3, #24]
 8003012:	687b      	ldr	r3, [r7, #4]
 8003014:	681b      	ldr	r3, [r3, #0]
 8003016:	f042 0210 	orr.w	r2, r2, #16
 800301a:	619a      	str	r2, [r3, #24]
 800301c:	687b      	ldr	r3, [r7, #4]
 800301e:	681b      	ldr	r3, [r3, #0]
 8003020:	4618      	mov	r0, r3
 8003022:	f003 f93e 	bl	80062a2 <USB_ReadInterrupts>
 8003026:	4603      	mov	r3, r0
 8003028:	f403 2300 	and.w	r3, r3, #524288	; 0x80000
 800302c:	f5b3 2f00 	cmp.w	r3, #524288	; 0x80000
 8003030:	d16e      	bne.n	8003110 <HAL_PCD_IRQHandler+0x226>
 8003032:	2300      	movs	r3, #0
 8003034:	627b      	str	r3, [r7, #36]	; 0x24
 8003036:	687b      	ldr	r3, [r7, #4]
 8003038:	681b      	ldr	r3, [r3, #0]
 800303a:	4618      	mov	r0, r3
 800303c:	f003 f944 	bl	80062c8 <USB_ReadDevAllOutEpInterrupt>
 8003040:	62b8      	str	r0, [r7, #40]	; 0x28
 8003042:	e062      	b.n	800310a <HAL_PCD_IRQHandler+0x220>
 8003044:	6abb      	ldr	r3, [r7, #40]	; 0x28
 8003046:	f003 0301 	and.w	r3, r3, #1
 800304a:	2b00      	cmp	r3, #0
 800304c:	d057      	beq.n	80030fe <HAL_PCD_IRQHandler+0x214>
 800304e:	687b      	ldr	r3, [r7, #4]
 8003050:	681b      	ldr	r3, [r3, #0]
 8003052:	6a7a      	ldr	r2, [r7, #36]	; 0x24
 8003054:	b2d2      	uxtb	r2, r2
 8003056:	4611      	mov	r1, r2
 8003058:	4618      	mov	r0, r3
 800305a:	f003 f969 	bl	8006330 <USB_ReadDevOutEPInterrupt>
 800305e:	6138      	str	r0, [r7, #16]
 8003060:	693b      	ldr	r3, [r7, #16]
 8003062:	f003 0301 	and.w	r3, r3, #1
 8003066:	2b00      	cmp	r3, #0
 8003068:	d00c      	beq.n	8003084 <HAL_PCD_IRQHandler+0x19a>
 800306a:	6a7b      	ldr	r3, [r7, #36]	; 0x24
 800306c:	015a      	lsls	r2, r3, #5
 800306e:	69fb      	ldr	r3, [r7, #28]
 8003070:	4413      	add	r3, r2
 8003072:	f503 6330 	add.w	r3, r3, #2816	; 0xb00
 8003076:	461a      	mov	r2, r3
 8003078:	2301      	movs	r3, #1
 800307a:	6093      	str	r3, [r2, #8]
 800307c:	6a79      	ldr	r1, [r7, #36]	; 0x24
 800307e:	6878      	ldr	r0, [r7, #4]
 8003080:	f000 fbe8 	bl	8003854 <PCD_EP_OutXfrComplete_int>
 8003084:	693b      	ldr	r3, [r7, #16]
 8003086:	f003 0308 	and.w	r3, r3, #8
 800308a:	2b00      	cmp	r3, #0
 800308c:	d00c      	beq.n	80030a8 <HAL_PCD_IRQHandler+0x1be>
 800308e:	6a7b      	ldr	r3, [r7, #36]	; 0x24
 8003090:	015a      	lsls	r2, r3, #5
 8003092:	69fb      	ldr	r3, [r7, #28]
 8003094:	4413      	add	r3, r2
 8003096:	f503 6330 	add.w	r3, r3, #2816	; 0xb00
 800309a:	461a      	mov	r2, r3
 800309c:	2308      	movs	r3, #8
 800309e:	6093      	str	r3, [r2, #8]
 80030a0:	6a79      	ldr	r1, [r7, #36]	; 0x24
 80030a2:	6878      	ldr	r0, [r7, #4]
 80030a4:	f000 fce2 	bl	8003a6c <PCD_EP_OutSetupPacket_int>
 80030a8:	693b      	ldr	r3, [r7, #16]
 80030aa:	f003 0310 	and.w	r3, r3, #16
 80030ae:	2b00      	cmp	r3, #0
 80030b0:	d008      	beq.n	80030c4 <HAL_PCD_IRQHandler+0x1da>
 80030b2:	6a7b      	ldr	r3, [r7, #36]	; 0x24
 80030b4:	015a      	lsls	r2, r3, #5
 80030b6:	69fb      	ldr	r3, [r7, #28]
 80030b8:	4413      	add	r3, r2
 80030ba:	f503 6330 	add.w	r3, r3, #2816	; 0xb00
 80030be:	461a      	mov	r2, r3
 80030c0:	2310      	movs	r3, #16
 80030c2:	6093      	str	r3, [r2, #8]
 80030c4:	693b      	ldr	r3, [r7, #16]
 80030c6:	f003 0320 	and.w	r3, r3, #32
 80030ca:	2b00      	cmp	r3, #0
 80030cc:	d008      	beq.n	80030e0 <HAL_PCD_IRQHandler+0x1f6>
 80030ce:	6a7b      	ldr	r3, [r7, #36]	; 0x24
 80030d0:	015a      	lsls	r2, r3, #5
 80030d2:	69fb      	ldr	r3, [r7, #28]
 80030d4:	4413      	add	r3, r2
 80030d6:	f503 6330 	add.w	r3, r3, #2816	; 0xb00
 80030da:	461a      	mov	r2, r3
 80030dc:	2320      	movs	r3, #32
 80030de:	6093      	str	r3, [r2, #8]
 80030e0:	693b      	ldr	r3, [r7, #16]
 80030e2:	f403 5300 	and.w	r3, r3, #8192	; 0x2000
 80030e6:	2b00      	cmp	r3, #0
 80030e8:	d009      	beq.n	80030fe <HAL_PCD_IRQHandler+0x214>
 80030ea:	6a7b      	ldr	r3, [r7, #36]	; 0x24
 80030ec:	015a      	lsls	r2, r3, #5
 80030ee:	69fb      	ldr	r3, [r7, #28]
 80030f0:	4413      	add	r3, r2
 80030f2:	f503 6330 	add.w	r3, r3, #2816	; 0xb00
 80030f6:	461a      	mov	r2, r3
 80030f8:	f44f 5300 	mov.w	r3, #8192	; 0x2000
 80030fc:	6093      	str	r3, [r2, #8]
 80030fe:	6a7b      	ldr	r3, [r7, #36]	; 0x24
 8003100:	3301      	adds	r3, #1
 8003102:	627b      	str	r3, [r7, #36]	; 0x24
 8003104:	6abb      	ldr	r3, [r7, #40]	; 0x28
 8003106:	085b      	lsrs	r3, r3, #1
 8003108:	62bb      	str	r3, [r7, #40]	; 0x28
 800310a:	6abb      	ldr	r3, [r7, #40]	; 0x28
 800310c:	2b00      	cmp	r3, #0
 800310e:	d199      	bne.n	8003044 <HAL_PCD_IRQHandler+0x15a>
 8003110:	687b      	ldr	r3, [r7, #4]
 8003112:	681b      	ldr	r3, [r3, #0]
 8003114:	4618      	mov	r0, r3
 8003116:	f003 f8c4 	bl	80062a2 <USB_ReadInterrupts>
 800311a:	4603      	mov	r3, r0
 800311c:	f403 2380 	and.w	r3, r3, #262144	; 0x40000
 8003120:	f5b3 2f80 	cmp.w	r3, #262144	; 0x40000
 8003124:	f040 80c0 	bne.w	80032a8 <HAL_PCD_IRQHandler+0x3be>
 8003128:	687b      	ldr	r3, [r7, #4]
 800312a:	681b      	ldr	r3, [r3, #0]
 800312c:	4618      	mov	r0, r3
 800312e:	f003 f8e5 	bl	80062fc <USB_ReadDevAllInEpInterrupt>
 8003132:	62b8      	str	r0, [r7, #40]	; 0x28
 8003134:	2300      	movs	r3, #0
 8003136:	627b      	str	r3, [r7, #36]	; 0x24
 8003138:	e0b2      	b.n	80032a0 <HAL_PCD_IRQHandler+0x3b6>
 800313a:	6abb      	ldr	r3, [r7, #40]	; 0x28
 800313c:	f003 0301 	and.w	r3, r3, #1
 8003140:	2b00      	cmp	r3, #0
 8003142:	f000 80a7 	beq.w	8003294 <HAL_PCD_IRQHandler+0x3aa>
 8003146:	687b      	ldr	r3, [r7, #4]
 8003148:	681b      	ldr	r3, [r3, #0]
 800314a:	6a7a      	ldr	r2, [r7, #36]	; 0x24
 800314c:	b2d2      	uxtb	r2, r2
 800314e:	4611      	mov	r1, r2
 8003150:	4618      	mov	r0, r3
 8003152:	f003 f90b 	bl	800636c <USB_ReadDevInEPInterrupt>
 8003156:	6138      	str	r0, [r7, #16]
 8003158:	693b      	ldr	r3, [r7, #16]
 800315a:	f003 0301 	and.w	r3, r3, #1
 800315e:	2b00      	cmp	r3, #0
 8003160:	d057      	beq.n	8003212 <HAL_PCD_IRQHandler+0x328>
 8003162:	6a7b      	ldr	r3, [r7, #36]	; 0x24
 8003164:	f003 030f 	and.w	r3, r3, #15
 8003168:	2201      	movs	r2, #1
 800316a:	fa02 f303 	lsl.w	r3, r2, r3
 800316e:	60fb      	str	r3, [r7, #12]
 8003170:	69fb      	ldr	r3, [r7, #28]
 8003172:	f503 6300 	add.w	r3, r3, #2048	; 0x800
 8003176:	6b5a      	ldr	r2, [r3, #52]	; 0x34
 8003178:	68fb      	ldr	r3, [r7, #12]
 800317a:	43db      	mvns	r3, r3
 800317c:	69f9      	ldr	r1, [r7, #28]
 800317e:	f501 6100 	add.w	r1, r1, #2048	; 0x800
 8003182:	4013      	ands	r3, r2
 8003184:	634b      	str	r3, [r1, #52]	; 0x34
 8003186:	6a7b      	ldr	r3, [r7, #36]	; 0x24
 8003188:	015a      	lsls	r2, r3, #5
 800318a:	69fb      	ldr	r3, [r7, #28]
 800318c:	4413      	add	r3, r2
 800318e:	f503 6310 	add.w	r3, r3, #2304	; 0x900
 8003192:	461a      	mov	r2, r3
 8003194:	2301      	movs	r3, #1
 8003196:	6093      	str	r3, [r2, #8]
 8003198:	687b      	ldr	r3, [r7, #4]
 800319a:	691b      	ldr	r3, [r3, #16]
 800319c:	2b01      	cmp	r3, #1
 800319e:	d132      	bne.n	8003206 <HAL_PCD_IRQHandler+0x31c>
 80031a0:	6879      	ldr	r1, [r7, #4]
 80031a2:	6a7a      	ldr	r2, [r7, #36]	; 0x24
 80031a4:	4613      	mov	r3, r2
 80031a6:	00db      	lsls	r3, r3, #3
 80031a8:	1a9b      	subs	r3, r3, r2
 80031aa:	009b      	lsls	r3, r3, #2
 80031ac:	440b      	add	r3, r1
 80031ae:	3348      	adds	r3, #72	; 0x48
 80031b0:	6819      	ldr	r1, [r3, #0]
 80031b2:	6878      	ldr	r0, [r7, #4]
 80031b4:	6a7a      	ldr	r2, [r7, #36]	; 0x24
 80031b6:	4613      	mov	r3, r2
 80031b8:	00db      	lsls	r3, r3, #3
 80031ba:	1a9b      	subs	r3, r3, r2
 80031bc:	009b      	lsls	r3, r3, #2
 80031be:	4403      	add	r3, r0
 80031c0:	3344      	adds	r3, #68	; 0x44
 80031c2:	681b      	ldr	r3, [r3, #0]
 80031c4:	4419      	add	r1, r3
 80031c6:	6878      	ldr	r0, [r7, #4]
 80031c8:	6a7a      	ldr	r2, [r7, #36]	; 0x24
 80031ca:	4613      	mov	r3, r2
 80031cc:	00db      	lsls	r3, r3, #3
 80031ce:	1a9b      	subs	r3, r3, r2
 80031d0:	009b      	lsls	r3, r3, #2
 80031d2:	4403      	add	r3, r0
 80031d4:	3348      	adds	r3, #72	; 0x48
 80031d6:	6019      	str	r1, [r3, #0]
 80031d8:	6a7b      	ldr	r3, [r7, #36]	; 0x24
 80031da:	2b00      	cmp	r3, #0
 80031dc:	d113      	bne.n	8003206 <HAL_PCD_IRQHandler+0x31c>
 80031de:	6879      	ldr	r1, [r7, #4]
 80031e0:	6a7a      	ldr	r2, [r7, #36]	; 0x24
 80031e2:	4613      	mov	r3, r2
 80031e4:	00db      	lsls	r3, r3, #3
 80031e6:	1a9b      	subs	r3, r3, r2
 80031e8:	009b      	lsls	r3, r3, #2
 80031ea:	440b      	add	r3, r1
 80031ec:	3350      	adds	r3, #80	; 0x50
 80031ee:	681b      	ldr	r3, [r3, #0]
 80031f0:	2b00      	cmp	r3, #0
 80031f2:	d108      	bne.n	8003206 <HAL_PCD_IRQHandler+0x31c>
 80031f4:	687b      	ldr	r3, [r7, #4]
 80031f6:	6818      	ldr	r0, [r3, #0]
 80031f8:	687b      	ldr	r3, [r7, #4]
 80031fa:	f503 7371 	add.w	r3, r3, #964	; 0x3c4
 80031fe:	461a      	mov	r2, r3
 8003200:	2101      	movs	r1, #1
 8003202:	f003 f913 	bl	800642c <USB_EP0_OutStart>
 8003206:	6a7b      	ldr	r3, [r7, #36]	; 0x24
 8003208:	b2db      	uxtb	r3, r3
 800320a:	4619      	mov	r1, r3
 800320c:	6878      	ldr	r0, [r7, #4]
 800320e:	f000 fa2a 	bl	8003666 <HAL_PCD_DataInStageCallback>
 8003212:	693b      	ldr	r3, [r7, #16]
 8003214:	f003 0308 	and.w	r3, r3, #8
 8003218:	2b00      	cmp	r3, #0
 800321a:	d008      	beq.n	800322e <HAL_PCD_IRQHandler+0x344>
 800321c:	6a7b      	ldr	r3, [r7, #36]	; 0x24
 800321e:	015a      	lsls	r2, r3, #5
 8003220:	69fb      	ldr	r3, [r7, #28]
 8003222:	4413      	add	r3, r2
 8003224:	f503 6310 	add.w	r3, r3, #2304	; 0x900
 8003228:	461a      	mov	r2, r3
 800322a:	2308      	movs	r3, #8
 800322c:	6093      	str	r3, [r2, #8]
 800322e:	693b      	ldr	r3, [r7, #16]
 8003230:	f003 0310 	and.w	r3, r3, #16
 8003234:	2b00      	cmp	r3, #0
 8003236:	d008      	beq.n	800324a <HAL_PCD_IRQHandler+0x360>
 8003238:	6a7b      	ldr	r3, [r7, #36]	; 0x24
 800323a:	015a      	lsls	r2, r3, #5
 800323c:	69fb      	ldr	r3, [r7, #28]
 800323e:	4413      	add	r3, r2
 8003240:	f503 6310 	add.w	r3, r3, #2304	; 0x900
 8003244:	461a      	mov	r2, r3
 8003246:	2310      	movs	r3, #16
 8003248:	6093      	str	r3, [r2, #8]
 800324a:	693b      	ldr	r3, [r7, #16]
 800324c:	f003 0340 	and.w	r3, r3, #64	; 0x40
 8003250:	2b00      	cmp	r3, #0
 8003252:	d008      	beq.n	8003266 <HAL_PCD_IRQHandler+0x37c>
 8003254:	6a7b      	ldr	r3, [r7, #36]	; 0x24
 8003256:	015a      	lsls	r2, r3, #5
 8003258:	69fb      	ldr	r3, [r7, #28]
 800325a:	4413      	add	r3, r2
 800325c:	f503 6310 	add.w	r3, r3, #2304	; 0x900
 8003260:	461a      	mov	r2, r3
 8003262:	2340      	movs	r3, #64	; 0x40
 8003264:	6093      	str	r3, [r2, #8]
 8003266:	693b      	ldr	r3, [r7, #16]
 8003268:	f003 0302 	and.w	r3, r3, #2
 800326c:	2b00      	cmp	r3, #0
 800326e:	d008      	beq.n	8003282 <HAL_PCD_IRQHandler+0x398>
 8003270:	6a7b      	ldr	r3, [r7, #36]	; 0x24
 8003272:	015a      	lsls	r2, r3, #5
 8003274:	69fb      	ldr	r3, [r7, #28]
 8003276:	4413      	add	r3, r2
 8003278:	f503 6310 	add.w	r3, r3, #2304	; 0x900
 800327c:	461a      	mov	r2, r3
 800327e:	2302      	movs	r3, #2
 8003280:	6093      	str	r3, [r2, #8]
 8003282:	693b      	ldr	r3, [r7, #16]
 8003284:	f003 0380 	and.w	r3, r3, #128	; 0x80
 8003288:	2b00      	cmp	r3, #0
 800328a:	d003      	beq.n	8003294 <HAL_PCD_IRQHandler+0x3aa>
 800328c:	6a79      	ldr	r1, [r7, #36]	; 0x24
 800328e:	6878      	ldr	r0, [r7, #4]
 8003290:	f000 fa53 	bl	800373a <PCD_WriteEmptyTxFifo>
 8003294:	6a7b      	ldr	r3, [r7, #36]	; 0x24
 8003296:	3301      	adds	r3, #1
 8003298:	627b      	str	r3, [r7, #36]	; 0x24
 800329a:	6abb      	ldr	r3, [r7, #40]	; 0x28
 800329c:	085b      	lsrs	r3, r3, #1
 800329e:	62bb      	str	r3, [r7, #40]	; 0x28
 80032a0:	6abb      	ldr	r3, [r7, #40]	; 0x28
 80032a2:	2b00      	cmp	r3, #0
 80032a4:	f47f af49 	bne.w	800313a <HAL_PCD_IRQHandler+0x250>
 80032a8:	687b      	ldr	r3, [r7, #4]
 80032aa:	681b      	ldr	r3, [r3, #0]
 80032ac:	4618      	mov	r0, r3
 80032ae:	f002 fff8 	bl	80062a2 <USB_ReadInterrupts>
 80032b2:	4603      	mov	r3, r0
 80032b4:	f003 4300 	and.w	r3, r3, #2147483648	; 0x80000000
 80032b8:	f1b3 4f00 	cmp.w	r3, #2147483648	; 0x80000000
 80032bc:	d122      	bne.n	8003304 <HAL_PCD_IRQHandler+0x41a>
 80032be:	69fb      	ldr	r3, [r7, #28]
 80032c0:	f503 6300 	add.w	r3, r3, #2048	; 0x800
 80032c4:	685b      	ldr	r3, [r3, #4]
 80032c6:	69fa      	ldr	r2, [r7, #28]
 80032c8:	f502 6200 	add.w	r2, r2, #2048	; 0x800
 80032cc:	f023 0301 	bic.w	r3, r3, #1
 80032d0:	6053      	str	r3, [r2, #4]
 80032d2:	687b      	ldr	r3, [r7, #4]
 80032d4:	f893 33f4 	ldrb.w	r3, [r3, #1012]	; 0x3f4
 80032d8:	2b01      	cmp	r3, #1
 80032da:	d108      	bne.n	80032ee <HAL_PCD_IRQHandler+0x404>
 80032dc:	687b      	ldr	r3, [r7, #4]
 80032de:	2200      	movs	r2, #0
 80032e0:	f883 23f4 	strb.w	r2, [r3, #1012]	; 0x3f4
 80032e4:	2100      	movs	r1, #0
 80032e6:	6878      	ldr	r0, [r7, #4]
 80032e8:	f000 fc06 	bl	8003af8 <HAL_PCDEx_LPM_Callback>
 80032ec:	e002      	b.n	80032f4 <HAL_PCD_IRQHandler+0x40a>
 80032ee:	6878      	ldr	r0, [r7, #4]
 80032f0:	f000 f9ed 	bl	80036ce <HAL_PCD_ResumeCallback>
 80032f4:	687b      	ldr	r3, [r7, #4]
 80032f6:	681b      	ldr	r3, [r3, #0]
 80032f8:	695a      	ldr	r2, [r3, #20]
 80032fa:	687b      	ldr	r3, [r7, #4]
 80032fc:	681b      	ldr	r3, [r3, #0]
 80032fe:	f002 4200 	and.w	r2, r2, #2147483648	; 0x80000000
 8003302:	615a      	str	r2, [r3, #20]
 8003304:	687b      	ldr	r3, [r7, #4]
 8003306:	681b      	ldr	r3, [r3, #0]
 8003308:	4618      	mov	r0, r3
 800330a:	f002 ffca 	bl	80062a2 <USB_ReadInterrupts>
 800330e:	4603      	mov	r3, r0
 8003310:	f403 6300 	and.w	r3, r3, #2048	; 0x800
 8003314:	f5b3 6f00 	cmp.w	r3, #2048	; 0x800
 8003318:	d112      	bne.n	8003340 <HAL_PCD_IRQHandler+0x456>
 800331a:	69fb      	ldr	r3, [r7, #28]
 800331c:	f503 6300 	add.w	r3, r3, #2048	; 0x800
 8003320:	689b      	ldr	r3, [r3, #8]
 8003322:	f003 0301 	and.w	r3, r3, #1
 8003326:	2b01      	cmp	r3, #1
 8003328:	d102      	bne.n	8003330 <HAL_PCD_IRQHandler+0x446>
 800332a:	6878      	ldr	r0, [r7, #4]
 800332c:	f000 f9c5 	bl	80036ba <HAL_PCD_SuspendCallback>
 8003330:	687b      	ldr	r3, [r7, #4]
 8003332:	681b      	ldr	r3, [r3, #0]
 8003334:	695a      	ldr	r2, [r3, #20]
 8003336:	687b      	ldr	r3, [r7, #4]
 8003338:	681b      	ldr	r3, [r3, #0]
 800333a:	f402 6200 	and.w	r2, r2, #2048	; 0x800
 800333e:	615a      	str	r2, [r3, #20]
 8003340:	687b      	ldr	r3, [r7, #4]
 8003342:	681b      	ldr	r3, [r3, #0]
 8003344:	4618      	mov	r0, r3
 8003346:	f002 ffac 	bl	80062a2 <USB_ReadInterrupts>
 800334a:	4603      	mov	r3, r0
 800334c:	f403 5380 	and.w	r3, r3, #4096	; 0x1000
 8003350:	f5b3 5f80 	cmp.w	r3, #4096	; 0x1000
 8003354:	f040 80c7 	bne.w	80034e6 <HAL_PCD_IRQHandler+0x5fc>
 8003358:	69fb      	ldr	r3, [r7, #28]
 800335a:	f503 6300 	add.w	r3, r3, #2048	; 0x800
 800335e:	685b      	ldr	r3, [r3, #4]
 8003360:	69fa      	ldr	r2, [r7, #28]
 8003362:	f502 6200 	add.w	r2, r2, #2048	; 0x800
 8003366:	f023 0301 	bic.w	r3, r3, #1
 800336a:	6053      	str	r3, [r2, #4]
 800336c:	687b      	ldr	r3, [r7, #4]
 800336e:	681b      	ldr	r3, [r3, #0]
 8003370:	2110      	movs	r1, #16
 8003372:	4618      	mov	r0, r3
 8003374:	f002 fe90 	bl	8006098 <USB_FlushTxFifo>
 8003378:	2300      	movs	r3, #0
 800337a:	62fb      	str	r3, [r7, #44]	; 0x2c
 800337c:	e056      	b.n	800342c <HAL_PCD_IRQHandler+0x542>
 800337e:	6afb      	ldr	r3, [r7, #44]	; 0x2c
 8003380:	015a      	lsls	r2, r3, #5
 8003382:	69fb      	ldr	r3, [r7, #28]
 8003384:	4413      	add	r3, r2
 8003386:	f503 6310 	add.w	r3, r3, #2304	; 0x900
 800338a:	461a      	mov	r2, r3
 800338c:	f64f 337f 	movw	r3, #64383	; 0xfb7f
 8003390:	6093      	str	r3, [r2, #8]
 8003392:	6afb      	ldr	r3, [r7, #44]	; 0x2c
 8003394:	015a      	lsls	r2, r3, #5
 8003396:	69fb      	ldr	r3, [r7, #28]
 8003398:	4413      	add	r3, r2
 800339a:	f503 6310 	add.w	r3, r3, #2304	; 0x900
 800339e:	681b      	ldr	r3, [r3, #0]
 80033a0:	6afa      	ldr	r2, [r7, #44]	; 0x2c
 80033a2:	0151      	lsls	r1, r2, #5
 80033a4:	69fa      	ldr	r2, [r7, #28]
 80033a6:	440a      	add	r2, r1
 80033a8:	f502 6210 	add.w	r2, r2, #2304	; 0x900
 80033ac:	f423 1300 	bic.w	r3, r3, #2097152	; 0x200000
 80033b0:	6013      	str	r3, [r2, #0]
 80033b2:	6afb      	ldr	r3, [r7, #44]	; 0x2c
 80033b4:	015a      	lsls	r2, r3, #5
 80033b6:	69fb      	ldr	r3, [r7, #28]
 80033b8:	4413      	add	r3, r2
 80033ba:	f503 6310 	add.w	r3, r3, #2304	; 0x900
 80033be:	681b      	ldr	r3, [r3, #0]
 80033c0:	6afa      	ldr	r2, [r7, #44]	; 0x2c
 80033c2:	0151      	lsls	r1, r2, #5
 80033c4:	69fa      	ldr	r2, [r7, #28]
 80033c6:	440a      	add	r2, r1
 80033c8:	f502 6210 	add.w	r2, r2, #2304	; 0x900
 80033cc:	f043 6300 	orr.w	r3, r3, #134217728	; 0x8000000
 80033d0:	6013      	str	r3, [r2, #0]
 80033d2:	6afb      	ldr	r3, [r7, #44]	; 0x2c
 80033d4:	015a      	lsls	r2, r3, #5
 80033d6:	69fb      	ldr	r3, [r7, #28]
 80033d8:	4413      	add	r3, r2
 80033da:	f503 6330 	add.w	r3, r3, #2816	; 0xb00
 80033de:	461a      	mov	r2, r3
 80033e0:	f64f 337f 	movw	r3, #64383	; 0xfb7f
 80033e4:	6093      	str	r3, [r2, #8]
 80033e6:	6afb      	ldr	r3, [r7, #44]	; 0x2c
 80033e8:	015a      	lsls	r2, r3, #5
 80033ea:	69fb      	ldr	r3, [r7, #28]
 80033ec:	4413      	add	r3, r2
 80033ee:	f503 6330 	add.w	r3, r3, #2816	; 0xb00
 80033f2:	681b      	ldr	r3, [r3, #0]
 80033f4:	6afa      	ldr	r2, [r7, #44]	; 0x2c
 80033f6:	0151      	lsls	r1, r2, #5
 80033f8:	69fa      	ldr	r2, [r7, #28]
 80033fa:	440a      	add	r2, r1
 80033fc:	f502 6230 	add.w	r2, r2, #2816	; 0xb00
 8003400:	f423 1300 	bic.w	r3, r3, #2097152	; 0x200000
 8003404:	6013      	str	r3, [r2, #0]
 8003406:	6afb      	ldr	r3, [r7, #44]	; 0x2c
 8003408:	015a      	lsls	r2, r3, #5
 800340a:	69fb      	ldr	r3, [r7, #28]
 800340c:	4413      	add	r3, r2
 800340e:	f503 6330 	add.w	r3, r3, #2816	; 0xb00
 8003412:	681b      	ldr	r3, [r3, #0]
 8003414:	6afa      	ldr	r2, [r7, #44]	; 0x2c
 8003416:	0151      	lsls	r1, r2, #5
 8003418:	69fa      	ldr	r2, [r7, #28]
 800341a:	440a      	add	r2, r1
 800341c:	f502 6230 	add.w	r2, r2, #2816	; 0xb00
 8003420:	f043 6300 	orr.w	r3, r3, #134217728	; 0x8000000
 8003424:	6013      	str	r3, [r2, #0]
 8003426:	6afb      	ldr	r3, [r7, #44]	; 0x2c
 8003428:	3301      	adds	r3, #1
 800342a:	62fb      	str	r3, [r7, #44]	; 0x2c
 800342c:	687b      	ldr	r3, [r7, #4]
 800342e:	685b      	ldr	r3, [r3, #4]
 8003430:	6afa      	ldr	r2, [r7, #44]	; 0x2c
 8003432:	429a      	cmp	r2, r3
 8003434:	d3a3      	bcc.n	800337e <HAL_PCD_IRQHandler+0x494>
 8003436:	69fb      	ldr	r3, [r7, #28]
 8003438:	f503 6300 	add.w	r3, r3, #2048	; 0x800
 800343c:	69db      	ldr	r3, [r3, #28]
 800343e:	69fa      	ldr	r2, [r7, #28]
 8003440:	f502 6200 	add.w	r2, r2, #2048	; 0x800
 8003444:	f043 1301 	orr.w	r3, r3, #65537	; 0x10001
 8003448:	61d3      	str	r3, [r2, #28]
 800344a:	687b      	ldr	r3, [r7, #4]
 800344c:	6b1b      	ldr	r3, [r3, #48]	; 0x30
 800344e:	2b00      	cmp	r3, #0
 8003450:	d016      	beq.n	8003480 <HAL_PCD_IRQHandler+0x596>
 8003452:	69fb      	ldr	r3, [r7, #28]
 8003454:	f503 6300 	add.w	r3, r3, #2048	; 0x800
 8003458:	f8d3 3084 	ldr.w	r3, [r3, #132]	; 0x84
 800345c:	69fa      	ldr	r2, [r7, #28]
 800345e:	f502 6200 	add.w	r2, r2, #2048	; 0x800
 8003462:	f043 030b 	orr.w	r3, r3, #11
 8003466:	f8c2 3084 	str.w	r3, [r2, #132]	; 0x84
 800346a:	69fb      	ldr	r3, [r7, #28]
 800346c:	f503 6300 	add.w	r3, r3, #2048	; 0x800
 8003470:	6c5b      	ldr	r3, [r3, #68]	; 0x44
 8003472:	69fa      	ldr	r2, [r7, #28]
 8003474:	f502 6200 	add.w	r2, r2, #2048	; 0x800
 8003478:	f043 030b 	orr.w	r3, r3, #11
 800347c:	6453      	str	r3, [r2, #68]	; 0x44
 800347e:	e015      	b.n	80034ac <HAL_PCD_IRQHandler+0x5c2>
 8003480:	69fb      	ldr	r3, [r7, #28]
 8003482:	f503 6300 	add.w	r3, r3, #2048	; 0x800
 8003486:	695b      	ldr	r3, [r3, #20]
 8003488:	69fa      	ldr	r2, [r7, #28]
 800348a:	f502 6200 	add.w	r2, r2, #2048	; 0x800
 800348e:	f443 5300 	orr.w	r3, r3, #8192	; 0x2000
 8003492:	f043 032b 	orr.w	r3, r3, #43	; 0x2b
 8003496:	6153      	str	r3, [r2, #20]
 8003498:	69fb      	ldr	r3, [r7, #28]
 800349a:	f503 6300 	add.w	r3, r3, #2048	; 0x800
 800349e:	691b      	ldr	r3, [r3, #16]
 80034a0:	69fa      	ldr	r2, [r7, #28]
 80034a2:	f502 6200 	add.w	r2, r2, #2048	; 0x800
 80034a6:	f043 030b 	orr.w	r3, r3, #11
 80034aa:	6113      	str	r3, [r2, #16]
 80034ac:	69fb      	ldr	r3, [r7, #28]
 80034ae:	f503 6300 	add.w	r3, r3, #2048	; 0x800
 80034b2:	681b      	ldr	r3, [r3, #0]
 80034b4:	69fa      	ldr	r2, [r7, #28]
 80034b6:	f502 6200 	add.w	r2, r2, #2048	; 0x800
 80034ba:	f423 63fe 	bic.w	r3, r3, #2032	; 0x7f0
 80034be:	6013      	str	r3, [r2, #0]
 80034c0:	687b      	ldr	r3, [r7, #4]
 80034c2:	6818      	ldr	r0, [r3, #0]
 80034c4:	687b      	ldr	r3, [r7, #4]
 80034c6:	691b      	ldr	r3, [r3, #16]
 80034c8:	b2d9      	uxtb	r1, r3
 80034ca:	687b      	ldr	r3, [r7, #4]
 80034cc:	f503 7371 	add.w	r3, r3, #964	; 0x3c4
 80034d0:	461a      	mov	r2, r3
 80034d2:	f002 ffab 	bl	800642c <USB_EP0_OutStart>
 80034d6:	687b      	ldr	r3, [r7, #4]
 80034d8:	681b      	ldr	r3, [r3, #0]
 80034da:	695a      	ldr	r2, [r3, #20]
 80034dc:	687b      	ldr	r3, [r7, #4]
 80034de:	681b      	ldr	r3, [r3, #0]
 80034e0:	f402 5280 	and.w	r2, r2, #4096	; 0x1000
 80034e4:	615a      	str	r2, [r3, #20]
 80034e6:	687b      	ldr	r3, [r7, #4]
 80034e8:	681b      	ldr	r3, [r3, #0]
 80034ea:	4618      	mov	r0, r3
 80034ec:	f002 fed9 	bl	80062a2 <USB_ReadInterrupts>
 80034f0:	4603      	mov	r3, r0
 80034f2:	f403 5300 	and.w	r3, r3, #8192	; 0x2000
 80034f6:	f5b3 5f00 	cmp.w	r3, #8192	; 0x2000
 80034fa:	d124      	bne.n	8003546 <HAL_PCD_IRQHandler+0x65c>
 80034fc:	687b      	ldr	r3, [r7, #4]
 80034fe:	681b      	ldr	r3, [r3, #0]
 8003500:	4618      	mov	r0, r3
 8003502:	f002 ff6f 	bl	80063e4 <USB_ActivateSetup>
 8003506:	687b      	ldr	r3, [r7, #4]
 8003508:	681b      	ldr	r3, [r3, #0]
 800350a:	4618      	mov	r0, r3
 800350c:	f002 fe25 	bl	800615a <USB_GetDevSpeed>
 8003510:	4603      	mov	r3, r0
 8003512:	461a      	mov	r2, r3
 8003514:	687b      	ldr	r3, [r7, #4]
 8003516:	60da      	str	r2, [r3, #12]
 8003518:	687b      	ldr	r3, [r7, #4]
 800351a:	681c      	ldr	r4, [r3, #0]
 800351c:	f000 ff26 	bl	800436c <HAL_RCC_GetHCLKFreq>
 8003520:	4601      	mov	r1, r0
 8003522:	687b      	ldr	r3, [r7, #4]
 8003524:	68db      	ldr	r3, [r3, #12]
 8003526:	b2db      	uxtb	r3, r3
 8003528:	461a      	mov	r2, r3
 800352a:	4620      	mov	r0, r4
 800352c:	f002 fb72 	bl	8005c14 <USB_SetTurnaroundTime>
 8003530:	6878      	ldr	r0, [r7, #4]
 8003532:	f000 f8b8 	bl	80036a6 <HAL_PCD_ResetCallback>
 8003536:	687b      	ldr	r3, [r7, #4]
 8003538:	681b      	ldr	r3, [r3, #0]
 800353a:	695a      	ldr	r2, [r3, #20]
 800353c:	687b      	ldr	r3, [r7, #4]
 800353e:	681b      	ldr	r3, [r3, #0]
 8003540:	f402 5200 	and.w	r2, r2, #8192	; 0x2000
 8003544:	615a      	str	r2, [r3, #20]
 8003546:	687b      	ldr	r3, [r7, #4]
 8003548:	681b      	ldr	r3, [r3, #0]
 800354a:	4618      	mov	r0, r3
 800354c:	f002 fea9 	bl	80062a2 <USB_ReadInterrupts>
 8003550:	4603      	mov	r3, r0
 8003552:	f003 0308 	and.w	r3, r3, #8
 8003556:	2b08      	cmp	r3, #8
 8003558:	d10a      	bne.n	8003570 <HAL_PCD_IRQHandler+0x686>
 800355a:	6878      	ldr	r0, [r7, #4]
 800355c:	f000 f899 	bl	8003692 <HAL_PCD_SOFCallback>
 8003560:	687b      	ldr	r3, [r7, #4]
 8003562:	681b      	ldr	r3, [r3, #0]
 8003564:	695a      	ldr	r2, [r3, #20]
 8003566:	687b      	ldr	r3, [r7, #4]
 8003568:	681b      	ldr	r3, [r3, #0]
 800356a:	f002 0208 	and.w	r2, r2, #8
 800356e:	615a      	str	r2, [r3, #20]
 8003570:	687b      	ldr	r3, [r7, #4]
 8003572:	681b      	ldr	r3, [r3, #0]
 8003574:	4618      	mov	r0, r3
 8003576:	f002 fe94 	bl	80062a2 <USB_ReadInterrupts>
 800357a:	4603      	mov	r3, r0
 800357c:	f403 1380 	and.w	r3, r3, #1048576	; 0x100000
 8003580:	f5b3 1f80 	cmp.w	r3, #1048576	; 0x100000
 8003584:	d10f      	bne.n	80035a6 <HAL_PCD_IRQHandler+0x6bc>
 8003586:	2300      	movs	r3, #0
 8003588:	627b      	str	r3, [r7, #36]	; 0x24
 800358a:	6a7b      	ldr	r3, [r7, #36]	; 0x24
 800358c:	b2db      	uxtb	r3, r3
 800358e:	4619      	mov	r1, r3
 8003590:	6878      	ldr	r0, [r7, #4]
 8003592:	f000 f8b2 	bl	80036fa <HAL_PCD_ISOINIncompleteCallback>
 8003596:	687b      	ldr	r3, [r7, #4]
 8003598:	681b      	ldr	r3, [r3, #0]
 800359a:	695a      	ldr	r2, [r3, #20]
 800359c:	687b      	ldr	r3, [r7, #4]
 800359e:	681b      	ldr	r3, [r3, #0]
 80035a0:	f402 1280 	and.w	r2, r2, #1048576	; 0x100000
 80035a4:	615a      	str	r2, [r3, #20]
 80035a6:	687b      	ldr	r3, [r7, #4]
 80035a8:	681b      	ldr	r3, [r3, #0]
 80035aa:	4618      	mov	r0, r3
 80035ac:	f002 fe79 	bl	80062a2 <USB_ReadInterrupts>
 80035b0:	4603      	mov	r3, r0
 80035b2:	f403 1300 	and.w	r3, r3, #2097152	; 0x200000
 80035b6:	f5b3 1f00 	cmp.w	r3, #2097152	; 0x200000
 80035ba:	d10f      	bne.n	80035dc <HAL_PCD_IRQHandler+0x6f2>
 80035bc:	2300      	movs	r3, #0
 80035be:	627b      	str	r3, [r7, #36]	; 0x24
 80035c0:	6a7b      	ldr	r3, [r7, #36]	; 0x24
 80035c2:	b2db      	uxtb	r3, r3
 80035c4:	4619      	mov	r1, r3
 80035c6:	6878      	ldr	r0, [r7, #4]
 80035c8:	f000 f88b 	bl	80036e2 <HAL_PCD_ISOOUTIncompleteCallback>
 80035cc:	687b      	ldr	r3, [r7, #4]
 80035ce:	681b      	ldr	r3, [r3, #0]
 80035d0:	695a      	ldr	r2, [r3, #20]
 80035d2:	687b      	ldr	r3, [r7, #4]
 80035d4:	681b      	ldr	r3, [r3, #0]
 80035d6:	f402 1200 	and.w	r2, r2, #2097152	; 0x200000
 80035da:	615a      	str	r2, [r3, #20]
 80035dc:	687b      	ldr	r3, [r7, #4]
 80035de:	681b      	ldr	r3, [r3, #0]
 80035e0:	4618      	mov	r0, r3
 80035e2:	f002 fe5e 	bl	80062a2 <USB_ReadInterrupts>
 80035e6:	4603      	mov	r3, r0
 80035e8:	f003 4380 	and.w	r3, r3, #1073741824	; 0x40000000
 80035ec:	f1b3 4f80 	cmp.w	r3, #1073741824	; 0x40000000
 80035f0:	d10a      	bne.n	8003608 <HAL_PCD_IRQHandler+0x71e>
 80035f2:	6878      	ldr	r0, [r7, #4]
 80035f4:	f000 f88d 	bl	8003712 <HAL_PCD_ConnectCallback>
 80035f8:	687b      	ldr	r3, [r7, #4]
 80035fa:	681b      	ldr	r3, [r3, #0]
 80035fc:	695a      	ldr	r2, [r3, #20]
 80035fe:	687b      	ldr	r3, [r7, #4]
 8003600:	681b      	ldr	r3, [r3, #0]
 8003602:	f002 4280 	and.w	r2, r2, #1073741824	; 0x40000000
 8003606:	615a      	str	r2, [r3, #20]
 8003608:	687b      	ldr	r3, [r7, #4]
 800360a:	681b      	ldr	r3, [r3, #0]
 800360c:	4618      	mov	r0, r3
 800360e:	f002 fe48 	bl	80062a2 <USB_ReadInterrupts>
 8003612:	4603      	mov	r3, r0
 8003614:	f003 0304 	and.w	r3, r3, #4
 8003618:	2b04      	cmp	r3, #4
 800361a:	d115      	bne.n	8003648 <HAL_PCD_IRQHandler+0x75e>
 800361c:	687b      	ldr	r3, [r7, #4]
 800361e:	681b      	ldr	r3, [r3, #0]
 8003620:	685b      	ldr	r3, [r3, #4]
 8003622:	61bb      	str	r3, [r7, #24]
 8003624:	69bb      	ldr	r3, [r7, #24]
 8003626:	f003 0304 	and.w	r3, r3, #4
 800362a:	2b00      	cmp	r3, #0
 800362c:	d002      	beq.n	8003634 <HAL_PCD_IRQHandler+0x74a>
 800362e:	6878      	ldr	r0, [r7, #4]
 8003630:	f000 f879 	bl	8003726 <HAL_PCD_DisconnectCallback>
 8003634:	687b      	ldr	r3, [r7, #4]
 8003636:	681b      	ldr	r3, [r3, #0]
 8003638:	6859      	ldr	r1, [r3, #4]
 800363a:	687b      	ldr	r3, [r7, #4]
 800363c:	681b      	ldr	r3, [r3, #0]
 800363e:	69ba      	ldr	r2, [r7, #24]
 8003640:	430a      	orrs	r2, r1
 8003642:	605a      	str	r2, [r3, #4]
 8003644:	e000      	b.n	8003648 <HAL_PCD_IRQHandler+0x75e>
 8003646:	bf00      	nop
 8003648:	3734      	adds	r7, #52	; 0x34
 800364a:	46bd      	mov	sp, r7
 800364c:	bd90      	pop	{r4, r7, pc}

0800364e <HAL_PCD_DataOutStageCallback>:
 800364e:	b480      	push	{r7}
 8003650:	b083      	sub	sp, #12
 8003652:	af00      	add	r7, sp, #0
 8003654:	6078      	str	r0, [r7, #4]
 8003656:	460b      	mov	r3, r1
 8003658:	70fb      	strb	r3, [r7, #3]
 800365a:	bf00      	nop
 800365c:	370c      	adds	r7, #12
 800365e:	46bd      	mov	sp, r7
 8003660:	f85d 7b04 	ldr.w	r7, [sp], #4
 8003664:	4770      	bx	lr

08003666 <HAL_PCD_DataInStageCallback>:
 8003666:	b480      	push	{r7}
 8003668:	b083      	sub	sp, #12
 800366a:	af00      	add	r7, sp, #0
 800366c:	6078      	str	r0, [r7, #4]
 800366e:	460b      	mov	r3, r1
 8003670:	70fb      	strb	r3, [r7, #3]
 8003672:	bf00      	nop
 8003674:	370c      	adds	r7, #12
 8003676:	46bd      	mov	sp, r7
 8003678:	f85d 7b04 	ldr.w	r7, [sp], #4
 800367c:	4770      	bx	lr

0800367e <HAL_PCD_SetupStageCallback>:
 800367e:	b480      	push	{r7}
 8003680:	b083      	sub	sp, #12
 8003682:	af00      	add	r7, sp, #0
 8003684:	6078      	str	r0, [r7, #4]
 8003686:	bf00      	nop
 8003688:	370c      	adds	r7, #12
 800368a:	46bd      	mov	sp, r7
 800368c:	f85d 7b04 	ldr.w	r7, [sp], #4
 8003690:	4770      	bx	lr

08003692 <HAL_PCD_SOFCallback>:
 8003692:	b480      	push	{r7}
 8003694:	b083      	sub	sp, #12
 8003696:	af00      	add	r7, sp, #0
 8003698:	6078      	str	r0, [r7, #4]
 800369a:	bf00      	nop
 800369c:	370c      	adds	r7, #12
 800369e:	46bd      	mov	sp, r7
 80036a0:	f85d 7b04 	ldr.w	r7, [sp], #4
 80036a4:	4770      	bx	lr

080036a6 <HAL_PCD_ResetCallback>:
 80036a6:	b480      	push	{r7}
 80036a8:	b083      	sub	sp, #12
 80036aa:	af00      	add	r7, sp, #0
 80036ac:	6078      	str	r0, [r7, #4]
 80036ae:	bf00      	nop
 80036b0:	370c      	adds	r7, #12
 80036b2:	46bd      	mov	sp, r7
 80036b4:	f85d 7b04 	ldr.w	r7, [sp], #4
 80036b8:	4770      	bx	lr

080036ba <HAL_PCD_SuspendCallback>:
 80036ba:	b480      	push	{r7}
 80036bc:	b083      	sub	sp, #12
 80036be:	af00      	add	r7, sp, #0
 80036c0:	6078      	str	r0, [r7, #4]
 80036c2:	bf00      	nop
 80036c4:	370c      	adds	r7, #12
 80036c6:	46bd      	mov	sp, r7
 80036c8:	f85d 7b04 	ldr.w	r7, [sp], #4
 80036cc:	4770      	bx	lr

080036ce <HAL_PCD_ResumeCallback>:
 80036ce:	b480      	push	{r7}
 80036d0:	b083      	sub	sp, #12
 80036d2:	af00      	add	r7, sp, #0
 80036d4:	6078      	str	r0, [r7, #4]
 80036d6:	bf00      	nop
 80036d8:	370c      	adds	r7, #12
 80036da:	46bd      	mov	sp, r7
 80036dc:	f85d 7b04 	ldr.w	r7, [sp], #4
 80036e0:	4770      	bx	lr

080036e2 <HAL_PCD_ISOOUTIncompleteCallback>:
 80036e2:	b480      	push	{r7}
 80036e4:	b083      	sub	sp, #12
 80036e6:	af00      	add	r7, sp, #0
 80036e8:	6078      	str	r0, [r7, #4]
 80036ea:	460b      	mov	r3, r1
 80036ec:	70fb      	strb	r3, [r7, #3]
 80036ee:	bf00      	nop
 80036f0:	370c      	adds	r7, #12
 80036f2:	46bd      	mov	sp, r7
 80036f4:	f85d 7b04 	ldr.w	r7, [sp], #4
 80036f8:	4770      	bx	lr

080036fa <HAL_PCD_ISOINIncompleteCallback>:
 80036fa:	b480      	push	{r7}
 80036fc:	b083      	sub	sp, #12
 80036fe:	af00      	add	r7, sp, #0
 8003700:	6078      	str	r0, [r7, #4]
 8003702:	460b      	mov	r3, r1
 8003704:	70fb      	strb	r3, [r7, #3]
 8003706:	bf00      	nop
 8003708:	370c      	adds	r7, #12
 800370a:	46bd      	mov	sp, r7
 800370c:	f85d 7b04 	ldr.w	r7, [sp], #4
 8003710:	4770      	bx	lr

08003712 <HAL_PCD_ConnectCallback>:
 8003712:	b480      	push	{r7}
 8003714:	b083      	sub	sp, #12
 8003716:	af00      	add	r7, sp, #0
 8003718:	6078      	str	r0, [r7, #4]
 800371a:	bf00      	nop
 800371c:	370c      	adds	r7, #12
 800371e:	46bd      	mov	sp, r7
 8003720:	f85d 7b04 	ldr.w	r7, [sp], #4
 8003724:	4770      	bx	lr

08003726 <HAL_PCD_DisconnectCallback>:
 8003726:	b480      	push	{r7}
 8003728:	b083      	sub	sp, #12
 800372a:	af00      	add	r7, sp, #0
 800372c:	6078      	str	r0, [r7, #4]
 800372e:	bf00      	nop
 8003730:	370c      	adds	r7, #12
 8003732:	46bd      	mov	sp, r7
 8003734:	f85d 7b04 	ldr.w	r7, [sp], #4
 8003738:	4770      	bx	lr

0800373a <PCD_WriteEmptyTxFifo>:
 800373a:	b580      	push	{r7, lr}
 800373c:	b08a      	sub	sp, #40	; 0x28
 800373e:	af02      	add	r7, sp, #8
 8003740:	6078      	str	r0, [r7, #4]
 8003742:	6039      	str	r1, [r7, #0]
 8003744:	687b      	ldr	r3, [r7, #4]
 8003746:	681b      	ldr	r3, [r3, #0]
 8003748:	617b      	str	r3, [r7, #20]
 800374a:	697b      	ldr	r3, [r7, #20]
 800374c:	613b      	str	r3, [r7, #16]
 800374e:	683a      	ldr	r2, [r7, #0]
 8003750:	4613      	mov	r3, r2
 8003752:	00db      	lsls	r3, r3, #3
 8003754:	1a9b      	subs	r3, r3, r2
 8003756:	009b      	lsls	r3, r3, #2
 8003758:	3338      	adds	r3, #56	; 0x38
 800375a:	687a      	ldr	r2, [r7, #4]
 800375c:	4413      	add	r3, r2
 800375e:	3304      	adds	r3, #4
 8003760:	60fb      	str	r3, [r7, #12]
 8003762:	68fb      	ldr	r3, [r7, #12]
 8003764:	699a      	ldr	r2, [r3, #24]
 8003766:	68fb      	ldr	r3, [r7, #12]
 8003768:	695b      	ldr	r3, [r3, #20]
 800376a:	429a      	cmp	r2, r3
 800376c:	d901      	bls.n	8003772 <PCD_WriteEmptyTxFifo+0x38>
 800376e:	2301      	movs	r3, #1
 8003770:	e06c      	b.n	800384c <PCD_WriteEmptyTxFifo+0x112>
 8003772:	68fb      	ldr	r3, [r7, #12]
 8003774:	695a      	ldr	r2, [r3, #20]
 8003776:	68fb      	ldr	r3, [r7, #12]
 8003778:	699b      	ldr	r3, [r3, #24]
 800377a:	1ad3      	subs	r3, r2, r3
 800377c:	61fb      	str	r3, [r7, #28]
 800377e:	68fb      	ldr	r3, [r7, #12]
 8003780:	689b      	ldr	r3, [r3, #8]
 8003782:	69fa      	ldr	r2, [r7, #28]
 8003784:	429a      	cmp	r2, r3
 8003786:	d902      	bls.n	800378e <PCD_WriteEmptyTxFifo+0x54>
 8003788:	68fb      	ldr	r3, [r7, #12]
 800378a:	689b      	ldr	r3, [r3, #8]
 800378c:	61fb      	str	r3, [r7, #28]
 800378e:	69fb      	ldr	r3, [r7, #28]
 8003790:	3303      	adds	r3, #3
 8003792:	089b      	lsrs	r3, r3, #2
 8003794:	61bb      	str	r3, [r7, #24]
 8003796:	e02b      	b.n	80037f0 <PCD_WriteEmptyTxFifo+0xb6>
 8003798:	68fb      	ldr	r3, [r7, #12]
 800379a:	695a      	ldr	r2, [r3, #20]
 800379c:	68fb      	ldr	r3, [r7, #12]
 800379e:	699b      	ldr	r3, [r3, #24]
 80037a0:	1ad3      	subs	r3, r2, r3
 80037a2:	61fb      	str	r3, [r7, #28]
 80037a4:	68fb      	ldr	r3, [r7, #12]
 80037a6:	689b      	ldr	r3, [r3, #8]
 80037a8:	69fa      	ldr	r2, [r7, #28]
 80037aa:	429a      	cmp	r2, r3
 80037ac:	d902      	bls.n	80037b4 <PCD_WriteEmptyTxFifo+0x7a>
 80037ae:	68fb      	ldr	r3, [r7, #12]
 80037b0:	689b      	ldr	r3, [r3, #8]
 80037b2:	61fb      	str	r3, [r7, #28]
 80037b4:	69fb      	ldr	r3, [r7, #28]
 80037b6:	3303      	adds	r3, #3
 80037b8:	089b      	lsrs	r3, r3, #2
 80037ba:	61bb      	str	r3, [r7, #24]
 80037bc:	68fb      	ldr	r3, [r7, #12]
 80037be:	68d9      	ldr	r1, [r3, #12]
 80037c0:	683b      	ldr	r3, [r7, #0]
 80037c2:	b2da      	uxtb	r2, r3
 80037c4:	69fb      	ldr	r3, [r7, #28]
 80037c6:	b298      	uxth	r0, r3
 80037c8:	687b      	ldr	r3, [r7, #4]
 80037ca:	691b      	ldr	r3, [r3, #16]
 80037cc:	b2db      	uxtb	r3, r3
 80037ce:	9300      	str	r3, [sp, #0]
 80037d0:	4603      	mov	r3, r0
 80037d2:	6978      	ldr	r0, [r7, #20]
 80037d4:	f002 fce6 	bl	80061a4 <USB_WritePacket>
 80037d8:	68fb      	ldr	r3, [r7, #12]
 80037da:	68da      	ldr	r2, [r3, #12]
 80037dc:	69fb      	ldr	r3, [r7, #28]
 80037de:	441a      	add	r2, r3
 80037e0:	68fb      	ldr	r3, [r7, #12]
 80037e2:	60da      	str	r2, [r3, #12]
 80037e4:	68fb      	ldr	r3, [r7, #12]
 80037e6:	699a      	ldr	r2, [r3, #24]
 80037e8:	69fb      	ldr	r3, [r7, #28]
 80037ea:	441a      	add	r2, r3
 80037ec:	68fb      	ldr	r3, [r7, #12]
 80037ee:	619a      	str	r2, [r3, #24]
 80037f0:	683b      	ldr	r3, [r7, #0]
 80037f2:	015a      	lsls	r2, r3, #5
 80037f4:	693b      	ldr	r3, [r7, #16]
 80037f6:	4413      	add	r3, r2
 80037f8:	f503 6310 	add.w	r3, r3, #2304	; 0x900
 80037fc:	699b      	ldr	r3, [r3, #24]
 80037fe:	b29b      	uxth	r3, r3
 8003800:	69ba      	ldr	r2, [r7, #24]
 8003802:	429a      	cmp	r2, r3
 8003804:	d809      	bhi.n	800381a <PCD_WriteEmptyTxFifo+0xe0>
 8003806:	68fb      	ldr	r3, [r7, #12]
 8003808:	699a      	ldr	r2, [r3, #24]
 800380a:	68fb      	ldr	r3, [r7, #12]
 800380c:	695b      	ldr	r3, [r3, #20]
 800380e:	429a      	cmp	r2, r3
 8003810:	d203      	bcs.n	800381a <PCD_WriteEmptyTxFifo+0xe0>
 8003812:	68fb      	ldr	r3, [r7, #12]
 8003814:	695b      	ldr	r3, [r3, #20]
 8003816:	2b00      	cmp	r3, #0
 8003818:	d1be      	bne.n	8003798 <PCD_WriteEmptyTxFifo+0x5e>
 800381a:	68fb      	ldr	r3, [r7, #12]
 800381c:	695a      	ldr	r2, [r3, #20]
 800381e:	68fb      	ldr	r3, [r7, #12]
 8003820:	699b      	ldr	r3, [r3, #24]
 8003822:	429a      	cmp	r2, r3
 8003824:	d811      	bhi.n	800384a <PCD_WriteEmptyTxFifo+0x110>
 8003826:	683b      	ldr	r3, [r7, #0]
 8003828:	f003 030f 	and.w	r3, r3, #15
 800382c:	2201      	movs	r2, #1
 800382e:	fa02 f303 	lsl.w	r3, r2, r3
 8003832:	60bb      	str	r3, [r7, #8]
 8003834:	693b      	ldr	r3, [r7, #16]
 8003836:	f503 6300 	add.w	r3, r3, #2048	; 0x800
 800383a:	6b5a      	ldr	r2, [r3, #52]	; 0x34
 800383c:	68bb      	ldr	r3, [r7, #8]
 800383e:	43db      	mvns	r3, r3
 8003840:	6939      	ldr	r1, [r7, #16]
 8003842:	f501 6100 	add.w	r1, r1, #2048	; 0x800
 8003846:	4013      	ands	r3, r2
 8003848:	634b      	str	r3, [r1, #52]	; 0x34
 800384a:	2300      	movs	r3, #0
 800384c:	4618      	mov	r0, r3
 800384e:	3720      	adds	r7, #32
 8003850:	46bd      	mov	sp, r7
 8003852:	bd80      	pop	{r7, pc}

08003854 <PCD_EP_OutXfrComplete_int>:
 8003854:	b580      	push	{r7, lr}
 8003856:	b086      	sub	sp, #24
 8003858:	af00      	add	r7, sp, #0
 800385a:	6078      	str	r0, [r7, #4]
 800385c:	6039      	str	r1, [r7, #0]
 800385e:	687b      	ldr	r3, [r7, #4]
 8003860:	681b      	ldr	r3, [r3, #0]
 8003862:	617b      	str	r3, [r7, #20]
 8003864:	697b      	ldr	r3, [r7, #20]
 8003866:	613b      	str	r3, [r7, #16]
 8003868:	697b      	ldr	r3, [r7, #20]
 800386a:	333c      	adds	r3, #60	; 0x3c
 800386c:	3304      	adds	r3, #4
 800386e:	681b      	ldr	r3, [r3, #0]
 8003870:	60fb      	str	r3, [r7, #12]
 8003872:	683b      	ldr	r3, [r7, #0]
 8003874:	015a      	lsls	r2, r3, #5
 8003876:	693b      	ldr	r3, [r7, #16]
 8003878:	4413      	add	r3, r2
 800387a:	f503 6330 	add.w	r3, r3, #2816	; 0xb00
 800387e:	689b      	ldr	r3, [r3, #8]
 8003880:	60bb      	str	r3, [r7, #8]
 8003882:	687b      	ldr	r3, [r7, #4]
 8003884:	691b      	ldr	r3, [r3, #16]
 8003886:	2b01      	cmp	r3, #1
 8003888:	f040 80a0 	bne.w	80039cc <PCD_EP_OutXfrComplete_int+0x178>
 800388c:	68bb      	ldr	r3, [r7, #8]
 800388e:	f003 0308 	and.w	r3, r3, #8
 8003892:	2b00      	cmp	r3, #0
 8003894:	d015      	beq.n	80038c2 <PCD_EP_OutXfrComplete_int+0x6e>
 8003896:	68fb      	ldr	r3, [r7, #12]
 8003898:	4a72      	ldr	r2, [pc, #456]	; (8003a64 <PCD_EP_OutXfrComplete_int+0x210>)
 800389a:	4293      	cmp	r3, r2
 800389c:	f240 80dd 	bls.w	8003a5a <PCD_EP_OutXfrComplete_int+0x206>
 80038a0:	68bb      	ldr	r3, [r7, #8]
 80038a2:	f403 4300 	and.w	r3, r3, #32768	; 0x8000
 80038a6:	2b00      	cmp	r3, #0
 80038a8:	f000 80d7 	beq.w	8003a5a <PCD_EP_OutXfrComplete_int+0x206>
 80038ac:	683b      	ldr	r3, [r7, #0]
 80038ae:	015a      	lsls	r2, r3, #5
 80038b0:	693b      	ldr	r3, [r7, #16]
 80038b2:	4413      	add	r3, r2
 80038b4:	f503 6330 	add.w	r3, r3, #2816	; 0xb00
 80038b8:	461a      	mov	r2, r3
 80038ba:	f44f 4300 	mov.w	r3, #32768	; 0x8000
 80038be:	6093      	str	r3, [r2, #8]
 80038c0:	e0cb      	b.n	8003a5a <PCD_EP_OutXfrComplete_int+0x206>
 80038c2:	68bb      	ldr	r3, [r7, #8]
 80038c4:	f003 0320 	and.w	r3, r3, #32
 80038c8:	2b00      	cmp	r3, #0
 80038ca:	d009      	beq.n	80038e0 <PCD_EP_OutXfrComplete_int+0x8c>
 80038cc:	683b      	ldr	r3, [r7, #0]
 80038ce:	015a      	lsls	r2, r3, #5
 80038d0:	693b      	ldr	r3, [r7, #16]
 80038d2:	4413      	add	r3, r2
 80038d4:	f503 6330 	add.w	r3, r3, #2816	; 0xb00
 80038d8:	461a      	mov	r2, r3
 80038da:	2320      	movs	r3, #32
 80038dc:	6093      	str	r3, [r2, #8]
 80038de:	e0bc      	b.n	8003a5a <PCD_EP_OutXfrComplete_int+0x206>
 80038e0:	68bb      	ldr	r3, [r7, #8]
 80038e2:	f003 0328 	and.w	r3, r3, #40	; 0x28
 80038e6:	2b00      	cmp	r3, #0
 80038e8:	f040 80b7 	bne.w	8003a5a <PCD_EP_OutXfrComplete_int+0x206>
 80038ec:	68fb      	ldr	r3, [r7, #12]
 80038ee:	4a5d      	ldr	r2, [pc, #372]	; (8003a64 <PCD_EP_OutXfrComplete_int+0x210>)
 80038f0:	4293      	cmp	r3, r2
 80038f2:	d90f      	bls.n	8003914 <PCD_EP_OutXfrComplete_int+0xc0>
 80038f4:	68bb      	ldr	r3, [r7, #8]
 80038f6:	f403 4300 	and.w	r3, r3, #32768	; 0x8000
 80038fa:	2b00      	cmp	r3, #0
 80038fc:	d00a      	beq.n	8003914 <PCD_EP_OutXfrComplete_int+0xc0>
 80038fe:	683b      	ldr	r3, [r7, #0]
 8003900:	015a      	lsls	r2, r3, #5
 8003902:	693b      	ldr	r3, [r7, #16]
 8003904:	4413      	add	r3, r2
 8003906:	f503 6330 	add.w	r3, r3, #2816	; 0xb00
 800390a:	461a      	mov	r2, r3
 800390c:	f44f 4300 	mov.w	r3, #32768	; 0x8000
 8003910:	6093      	str	r3, [r2, #8]
 8003912:	e0a2      	b.n	8003a5a <PCD_EP_OutXfrComplete_int+0x206>
 8003914:	6879      	ldr	r1, [r7, #4]
 8003916:	683a      	ldr	r2, [r7, #0]
 8003918:	4613      	mov	r3, r2
 800391a:	00db      	lsls	r3, r3, #3
 800391c:	1a9b      	subs	r3, r3, r2
 800391e:	009b      	lsls	r3, r3, #2
 8003920:	440b      	add	r3, r1
 8003922:	f503 7301 	add.w	r3, r3, #516	; 0x204
 8003926:	681a      	ldr	r2, [r3, #0]
 8003928:	683b      	ldr	r3, [r7, #0]
 800392a:	0159      	lsls	r1, r3, #5
 800392c:	693b      	ldr	r3, [r7, #16]
 800392e:	440b      	add	r3, r1
 8003930:	f503 6330 	add.w	r3, r3, #2816	; 0xb00
 8003934:	691b      	ldr	r3, [r3, #16]
 8003936:	f3c3 0312 	ubfx	r3, r3, #0, #19
 800393a:	1ad1      	subs	r1, r2, r3
 800393c:	6878      	ldr	r0, [r7, #4]
 800393e:	683a      	ldr	r2, [r7, #0]
 8003940:	4613      	mov	r3, r2
 8003942:	00db      	lsls	r3, r3, #3
 8003944:	1a9b      	subs	r3, r3, r2
 8003946:	009b      	lsls	r3, r3, #2
 8003948:	4403      	add	r3, r0
 800394a:	f503 7305 	add.w	r3, r3, #532	; 0x214
 800394e:	6019      	str	r1, [r3, #0]
 8003950:	6879      	ldr	r1, [r7, #4]
 8003952:	683a      	ldr	r2, [r7, #0]
 8003954:	4613      	mov	r3, r2
 8003956:	00db      	lsls	r3, r3, #3
 8003958:	1a9b      	subs	r3, r3, r2
 800395a:	009b      	lsls	r3, r3, #2
 800395c:	440b      	add	r3, r1
 800395e:	f503 7302 	add.w	r3, r3, #520	; 0x208
 8003962:	6819      	ldr	r1, [r3, #0]
 8003964:	6878      	ldr	r0, [r7, #4]
 8003966:	683a      	ldr	r2, [r7, #0]
 8003968:	4613      	mov	r3, r2
 800396a:	00db      	lsls	r3, r3, #3
 800396c:	1a9b      	subs	r3, r3, r2
 800396e:	009b      	lsls	r3, r3, #2
 8003970:	4403      	add	r3, r0
 8003972:	f503 7301 	add.w	r3, r3, #516	; 0x204
 8003976:	681b      	ldr	r3, [r3, #0]
 8003978:	4419      	add	r1, r3
 800397a:	6878      	ldr	r0, [r7, #4]
 800397c:	683a      	ldr	r2, [r7, #0]
 800397e:	4613      	mov	r3, r2
 8003980:	00db      	lsls	r3, r3, #3
 8003982:	1a9b      	subs	r3, r3, r2
 8003984:	009b      	lsls	r3, r3, #2
 8003986:	4403      	add	r3, r0
 8003988:	f503 7302 	add.w	r3, r3, #520	; 0x208
 800398c:	6019      	str	r1, [r3, #0]
 800398e:	683b      	ldr	r3, [r7, #0]
 8003990:	2b00      	cmp	r3, #0
 8003992:	d114      	bne.n	80039be <PCD_EP_OutXfrComplete_int+0x16a>
 8003994:	6879      	ldr	r1, [r7, #4]
 8003996:	683a      	ldr	r2, [r7, #0]
 8003998:	4613      	mov	r3, r2
 800399a:	00db      	lsls	r3, r3, #3
 800399c:	1a9b      	subs	r3, r3, r2
 800399e:	009b      	lsls	r3, r3, #2
 80039a0:	440b      	add	r3, r1
 80039a2:	f503 7304 	add.w	r3, r3, #528	; 0x210
 80039a6:	681b      	ldr	r3, [r3, #0]
 80039a8:	2b00      	cmp	r3, #0
 80039aa:	d108      	bne.n	80039be <PCD_EP_OutXfrComplete_int+0x16a>
 80039ac:	687b      	ldr	r3, [r7, #4]
 80039ae:	6818      	ldr	r0, [r3, #0]
 80039b0:	687b      	ldr	r3, [r7, #4]
 80039b2:	f503 7371 	add.w	r3, r3, #964	; 0x3c4
 80039b6:	461a      	mov	r2, r3
 80039b8:	2101      	movs	r1, #1
 80039ba:	f002 fd37 	bl	800642c <USB_EP0_OutStart>
 80039be:	683b      	ldr	r3, [r7, #0]
 80039c0:	b2db      	uxtb	r3, r3
 80039c2:	4619      	mov	r1, r3
 80039c4:	6878      	ldr	r0, [r7, #4]
 80039c6:	f7ff fe42 	bl	800364e <HAL_PCD_DataOutStageCallback>
 80039ca:	e046      	b.n	8003a5a <PCD_EP_OutXfrComplete_int+0x206>
 80039cc:	68fb      	ldr	r3, [r7, #12]
 80039ce:	4a26      	ldr	r2, [pc, #152]	; (8003a68 <PCD_EP_OutXfrComplete_int+0x214>)
 80039d0:	4293      	cmp	r3, r2
 80039d2:	d124      	bne.n	8003a1e <PCD_EP_OutXfrComplete_int+0x1ca>
 80039d4:	68bb      	ldr	r3, [r7, #8]
 80039d6:	f403 4300 	and.w	r3, r3, #32768	; 0x8000
 80039da:	2b00      	cmp	r3, #0
 80039dc:	d00a      	beq.n	80039f4 <PCD_EP_OutXfrComplete_int+0x1a0>
 80039de:	683b      	ldr	r3, [r7, #0]
 80039e0:	015a      	lsls	r2, r3, #5
 80039e2:	693b      	ldr	r3, [r7, #16]
 80039e4:	4413      	add	r3, r2
 80039e6:	f503 6330 	add.w	r3, r3, #2816	; 0xb00
 80039ea:	461a      	mov	r2, r3
 80039ec:	f44f 4300 	mov.w	r3, #32768	; 0x8000
 80039f0:	6093      	str	r3, [r2, #8]
 80039f2:	e032      	b.n	8003a5a <PCD_EP_OutXfrComplete_int+0x206>
 80039f4:	68bb      	ldr	r3, [r7, #8]
 80039f6:	f003 0320 	and.w	r3, r3, #32
 80039fa:	2b00      	cmp	r3, #0
 80039fc:	d008      	beq.n	8003a10 <PCD_EP_OutXfrComplete_int+0x1bc>
 80039fe:	683b      	ldr	r3, [r7, #0]
 8003a00:	015a      	lsls	r2, r3, #5
 8003a02:	693b      	ldr	r3, [r7, #16]
 8003a04:	4413      	add	r3, r2
 8003a06:	f503 6330 	add.w	r3, r3, #2816	; 0xb00
 8003a0a:	461a      	mov	r2, r3
 8003a0c:	2320      	movs	r3, #32
 8003a0e:	6093      	str	r3, [r2, #8]
 8003a10:	683b      	ldr	r3, [r7, #0]
 8003a12:	b2db      	uxtb	r3, r3
 8003a14:	4619      	mov	r1, r3
 8003a16:	6878      	ldr	r0, [r7, #4]
 8003a18:	f7ff fe19 	bl	800364e <HAL_PCD_DataOutStageCallback>
 8003a1c:	e01d      	b.n	8003a5a <PCD_EP_OutXfrComplete_int+0x206>
 8003a1e:	683b      	ldr	r3, [r7, #0]
 8003a20:	2b00      	cmp	r3, #0
 8003a22:	d114      	bne.n	8003a4e <PCD_EP_OutXfrComplete_int+0x1fa>
 8003a24:	6879      	ldr	r1, [r7, #4]
 8003a26:	683a      	ldr	r2, [r7, #0]
 8003a28:	4613      	mov	r3, r2
 8003a2a:	00db      	lsls	r3, r3, #3
 8003a2c:	1a9b      	subs	r3, r3, r2
 8003a2e:	009b      	lsls	r3, r3, #2
 8003a30:	440b      	add	r3, r1
 8003a32:	f503 7304 	add.w	r3, r3, #528	; 0x210
 8003a36:	681b      	ldr	r3, [r3, #0]
 8003a38:	2b00      	cmp	r3, #0
 8003a3a:	d108      	bne.n	8003a4e <PCD_EP_OutXfrComplete_int+0x1fa>
 8003a3c:	687b      	ldr	r3, [r7, #4]
 8003a3e:	6818      	ldr	r0, [r3, #0]
 8003a40:	687b      	ldr	r3, [r7, #4]
 8003a42:	f503 7371 	add.w	r3, r3, #964	; 0x3c4
 8003a46:	461a      	mov	r2, r3
 8003a48:	2100      	movs	r1, #0
 8003a4a:	f002 fcef 	bl	800642c <USB_EP0_OutStart>
 8003a4e:	683b      	ldr	r3, [r7, #0]
 8003a50:	b2db      	uxtb	r3, r3
 8003a52:	4619      	mov	r1, r3
 8003a54:	6878      	ldr	r0, [r7, #4]
 8003a56:	f7ff fdfa 	bl	800364e <HAL_PCD_DataOutStageCallback>
 8003a5a:	2300      	movs	r3, #0
 8003a5c:	4618      	mov	r0, r3
 8003a5e:	3718      	adds	r7, #24
 8003a60:	46bd      	mov	sp, r7
 8003a62:	bd80      	pop	{r7, pc}
 8003a64:	4f54300a 	.word	0x4f54300a
 8003a68:	4f54310a 	.word	0x4f54310a

08003a6c <PCD_EP_OutSetupPacket_int>:
 8003a6c:	b580      	push	{r7, lr}
 8003a6e:	b086      	sub	sp, #24
 8003a70:	af00      	add	r7, sp, #0
 8003a72:	6078      	str	r0, [r7, #4]
 8003a74:	6039      	str	r1, [r7, #0]
 8003a76:	687b      	ldr	r3, [r7, #4]
 8003a78:	681b      	ldr	r3, [r3, #0]
 8003a7a:	617b      	str	r3, [r7, #20]
 8003a7c:	697b      	ldr	r3, [r7, #20]
 8003a7e:	613b      	str	r3, [r7, #16]
 8003a80:	697b      	ldr	r3, [r7, #20]
 8003a82:	333c      	adds	r3, #60	; 0x3c
 8003a84:	3304      	adds	r3, #4
 8003a86:	681b      	ldr	r3, [r3, #0]
 8003a88:	60fb      	str	r3, [r7, #12]
 8003a8a:	683b      	ldr	r3, [r7, #0]
 8003a8c:	015a      	lsls	r2, r3, #5
 8003a8e:	693b      	ldr	r3, [r7, #16]
 8003a90:	4413      	add	r3, r2
 8003a92:	f503 6330 	add.w	r3, r3, #2816	; 0xb00
 8003a96:	689b      	ldr	r3, [r3, #8]
 8003a98:	60bb      	str	r3, [r7, #8]
 8003a9a:	68fb      	ldr	r3, [r7, #12]
 8003a9c:	4a15      	ldr	r2, [pc, #84]	; (8003af4 <PCD_EP_OutSetupPacket_int+0x88>)
 8003a9e:	4293      	cmp	r3, r2
 8003aa0:	d90e      	bls.n	8003ac0 <PCD_EP_OutSetupPacket_int+0x54>
 8003aa2:	68bb      	ldr	r3, [r7, #8]
 8003aa4:	f403 4300 	and.w	r3, r3, #32768	; 0x8000
 8003aa8:	2b00      	cmp	r3, #0
 8003aaa:	d009      	beq.n	8003ac0 <PCD_EP_OutSetupPacket_int+0x54>
 8003aac:	683b      	ldr	r3, [r7, #0]
 8003aae:	015a      	lsls	r2, r3, #5
 8003ab0:	693b      	ldr	r3, [r7, #16]
 8003ab2:	4413      	add	r3, r2
 8003ab4:	f503 6330 	add.w	r3, r3, #2816	; 0xb00
 8003ab8:	461a      	mov	r2, r3
 8003aba:	f44f 4300 	mov.w	r3, #32768	; 0x8000
 8003abe:	6093      	str	r3, [r2, #8]
 8003ac0:	6878      	ldr	r0, [r7, #4]
 8003ac2:	f7ff fddc 	bl	800367e <HAL_PCD_SetupStageCallback>
 8003ac6:	68fb      	ldr	r3, [r7, #12]
 8003ac8:	4a0a      	ldr	r2, [pc, #40]	; (8003af4 <PCD_EP_OutSetupPacket_int+0x88>)
 8003aca:	4293      	cmp	r3, r2
 8003acc:	d90c      	bls.n	8003ae8 <PCD_EP_OutSetupPacket_int+0x7c>
 8003ace:	687b      	ldr	r3, [r7, #4]
 8003ad0:	691b      	ldr	r3, [r3, #16]
 8003ad2:	2b01      	cmp	r3, #1
 8003ad4:	d108      	bne.n	8003ae8 <PCD_EP_OutSetupPacket_int+0x7c>
 8003ad6:	687b      	ldr	r3, [r7, #4]
 8003ad8:	6818      	ldr	r0, [r3, #0]
 8003ada:	687b      	ldr	r3, [r7, #4]
 8003adc:	f503 7371 	add.w	r3, r3, #964	; 0x3c4
 8003ae0:	461a      	mov	r2, r3
 8003ae2:	2101      	movs	r1, #1
 8003ae4:	f002 fca2 	bl	800642c <USB_EP0_OutStart>
 8003ae8:	2300      	movs	r3, #0
 8003aea:	4618      	mov	r0, r3
 8003aec:	3718      	adds	r7, #24
 8003aee:	46bd      	mov	sp, r7
 8003af0:	bd80      	pop	{r7, pc}
 8003af2:	bf00      	nop
 8003af4:	4f54300a 	.word	0x4f54300a

08003af8 <HAL_PCDEx_LPM_Callback>:
 8003af8:	b480      	push	{r7}
 8003afa:	b083      	sub	sp, #12
 8003afc:	af00      	add	r7, sp, #0
 8003afe:	6078      	str	r0, [r7, #4]
 8003b00:	460b      	mov	r3, r1
 8003b02:	70fb      	strb	r3, [r7, #3]
 8003b04:	bf00      	nop
 8003b06:	370c      	adds	r7, #12
 8003b08:	46bd      	mov	sp, r7
 8003b0a:	f85d 7b04 	ldr.w	r7, [sp], #4
 8003b0e:	4770      	bx	lr

08003b10 <HAL_RCC_OscConfig>:
 8003b10:	b580      	push	{r7, lr}
 8003b12:	b086      	sub	sp, #24
 8003b14:	af00      	add	r7, sp, #0
 8003b16:	6078      	str	r0, [r7, #4]
 8003b18:	687b      	ldr	r3, [r7, #4]
 8003b1a:	2b00      	cmp	r3, #0
 8003b1c:	d101      	bne.n	8003b22 <HAL_RCC_OscConfig+0x12>
 8003b1e:	2301      	movs	r3, #1
 8003b20:	e25b      	b.n	8003fda <HAL_RCC_OscConfig+0x4ca>
 8003b22:	687b      	ldr	r3, [r7, #4]
 8003b24:	681b      	ldr	r3, [r3, #0]
 8003b26:	f003 0301 	and.w	r3, r3, #1
 8003b2a:	2b00      	cmp	r3, #0
 8003b2c:	d075      	beq.n	8003c1a <HAL_RCC_OscConfig+0x10a>
 8003b2e:	4ba3      	ldr	r3, [pc, #652]	; (8003dbc <HAL_RCC_OscConfig+0x2ac>)
 8003b30:	689b      	ldr	r3, [r3, #8]
 8003b32:	f003 030c 	and.w	r3, r3, #12
 8003b36:	2b04      	cmp	r3, #4
 8003b38:	d00c      	beq.n	8003b54 <HAL_RCC_OscConfig+0x44>
 8003b3a:	4ba0      	ldr	r3, [pc, #640]	; (8003dbc <HAL_RCC_OscConfig+0x2ac>)
 8003b3c:	689b      	ldr	r3, [r3, #8]
 8003b3e:	f003 030c 	and.w	r3, r3, #12
 8003b42:	2b08      	cmp	r3, #8
 8003b44:	d112      	bne.n	8003b6c <HAL_RCC_OscConfig+0x5c>
 8003b46:	4b9d      	ldr	r3, [pc, #628]	; (8003dbc <HAL_RCC_OscConfig+0x2ac>)
 8003b48:	685b      	ldr	r3, [r3, #4]
 8003b4a:	f403 0380 	and.w	r3, r3, #4194304	; 0x400000
 8003b4e:	f5b3 0f80 	cmp.w	r3, #4194304	; 0x400000
 8003b52:	d10b      	bne.n	8003b6c <HAL_RCC_OscConfig+0x5c>
 8003b54:	4b99      	ldr	r3, [pc, #612]	; (8003dbc <HAL_RCC_OscConfig+0x2ac>)
 8003b56:	681b      	ldr	r3, [r3, #0]
 8003b58:	f403 3300 	and.w	r3, r3, #131072	; 0x20000
 8003b5c:	2b00      	cmp	r3, #0
 8003b5e:	d05b      	beq.n	8003c18 <HAL_RCC_OscConfig+0x108>
 8003b60:	687b      	ldr	r3, [r7, #4]
 8003b62:	685b      	ldr	r3, [r3, #4]
 8003b64:	2b00      	cmp	r3, #0
 8003b66:	d157      	bne.n	8003c18 <HAL_RCC_OscConfig+0x108>
 8003b68:	2301      	movs	r3, #1
 8003b6a:	e236      	b.n	8003fda <HAL_RCC_OscConfig+0x4ca>
 8003b6c:	687b      	ldr	r3, [r7, #4]
 8003b6e:	685b      	ldr	r3, [r3, #4]
 8003b70:	f5b3 3f80 	cmp.w	r3, #65536	; 0x10000
 8003b74:	d106      	bne.n	8003b84 <HAL_RCC_OscConfig+0x74>
 8003b76:	4b91      	ldr	r3, [pc, #580]	; (8003dbc <HAL_RCC_OscConfig+0x2ac>)
 8003b78:	681b      	ldr	r3, [r3, #0]
 8003b7a:	4a90      	ldr	r2, [pc, #576]	; (8003dbc <HAL_RCC_OscConfig+0x2ac>)
 8003b7c:	f443 3380 	orr.w	r3, r3, #65536	; 0x10000
 8003b80:	6013      	str	r3, [r2, #0]
 8003b82:	e01d      	b.n	8003bc0 <HAL_RCC_OscConfig+0xb0>
 8003b84:	687b      	ldr	r3, [r7, #4]
 8003b86:	685b      	ldr	r3, [r3, #4]
 8003b88:	f5b3 2fa0 	cmp.w	r3, #327680	; 0x50000
 8003b8c:	d10c      	bne.n	8003ba8 <HAL_RCC_OscConfig+0x98>
 8003b8e:	4b8b      	ldr	r3, [pc, #556]	; (8003dbc <HAL_RCC_OscConfig+0x2ac>)
 8003b90:	681b      	ldr	r3, [r3, #0]
 8003b92:	4a8a      	ldr	r2, [pc, #552]	; (8003dbc <HAL_RCC_OscConfig+0x2ac>)
 8003b94:	f443 2380 	orr.w	r3, r3, #262144	; 0x40000
 8003b98:	6013      	str	r3, [r2, #0]
 8003b9a:	4b88      	ldr	r3, [pc, #544]	; (8003dbc <HAL_RCC_OscConfig+0x2ac>)
 8003b9c:	681b      	ldr	r3, [r3, #0]
 8003b9e:	4a87      	ldr	r2, [pc, #540]	; (8003dbc <HAL_RCC_OscConfig+0x2ac>)
 8003ba0:	f443 3380 	orr.w	r3, r3, #65536	; 0x10000
 8003ba4:	6013      	str	r3, [r2, #0]
 8003ba6:	e00b      	b.n	8003bc0 <HAL_RCC_OscConfig+0xb0>
 8003ba8:	4b84      	ldr	r3, [pc, #528]	; (8003dbc <HAL_RCC_OscConfig+0x2ac>)
 8003baa:	681b      	ldr	r3, [r3, #0]
 8003bac:	4a83      	ldr	r2, [pc, #524]	; (8003dbc <HAL_RCC_OscConfig+0x2ac>)
 8003bae:	f423 3380 	bic.w	r3, r3, #65536	; 0x10000
 8003bb2:	6013      	str	r3, [r2, #0]
 8003bb4:	4b81      	ldr	r3, [pc, #516]	; (8003dbc <HAL_RCC_OscConfig+0x2ac>)
 8003bb6:	681b      	ldr	r3, [r3, #0]
 8003bb8:	4a80      	ldr	r2, [pc, #512]	; (8003dbc <HAL_RCC_OscConfig+0x2ac>)
 8003bba:	f423 2380 	bic.w	r3, r3, #262144	; 0x40000
 8003bbe:	6013      	str	r3, [r2, #0]
 8003bc0:	687b      	ldr	r3, [r7, #4]
 8003bc2:	685b      	ldr	r3, [r3, #4]
 8003bc4:	2b00      	cmp	r3, #0
 8003bc6:	d013      	beq.n	8003bf0 <HAL_RCC_OscConfig+0xe0>
 8003bc8:	f7fe fa14 	bl	8001ff4 <HAL_GetTick>
 8003bcc:	6138      	str	r0, [r7, #16]
 8003bce:	e008      	b.n	8003be2 <HAL_RCC_OscConfig+0xd2>
 8003bd0:	f7fe fa10 	bl	8001ff4 <HAL_GetTick>
 8003bd4:	4602      	mov	r2, r0
 8003bd6:	693b      	ldr	r3, [r7, #16]
 8003bd8:	1ad3      	subs	r3, r2, r3
 8003bda:	2b64      	cmp	r3, #100	; 0x64
 8003bdc:	d901      	bls.n	8003be2 <HAL_RCC_OscConfig+0xd2>
 8003bde:	2303      	movs	r3, #3
 8003be0:	e1fb      	b.n	8003fda <HAL_RCC_OscConfig+0x4ca>
 8003be2:	4b76      	ldr	r3, [pc, #472]	; (8003dbc <HAL_RCC_OscConfig+0x2ac>)
 8003be4:	681b      	ldr	r3, [r3, #0]
 8003be6:	f403 3300 	and.w	r3, r3, #131072	; 0x20000
 8003bea:	2b00      	cmp	r3, #0
 8003bec:	d0f0      	beq.n	8003bd0 <HAL_RCC_OscConfig+0xc0>
 8003bee:	e014      	b.n	8003c1a <HAL_RCC_OscConfig+0x10a>
 8003bf0:	f7fe fa00 	bl	8001ff4 <HAL_GetTick>
 8003bf4:	6138      	str	r0, [r7, #16]
 8003bf6:	e008      	b.n	8003c0a <HAL_RCC_OscConfig+0xfa>
 8003bf8:	f7fe f9fc 	bl	8001ff4 <HAL_GetTick>
 8003bfc:	4602      	mov	r2, r0
 8003bfe:	693b      	ldr	r3, [r7, #16]
 8003c00:	1ad3      	subs	r3, r2, r3
 8003c02:	2b64      	cmp	r3, #100	; 0x64
 8003c04:	d901      	bls.n	8003c0a <HAL_RCC_OscConfig+0xfa>
 8003c06:	2303      	movs	r3, #3
 8003c08:	e1e7      	b.n	8003fda <HAL_RCC_OscConfig+0x4ca>
 8003c0a:	4b6c      	ldr	r3, [pc, #432]	; (8003dbc <HAL_RCC_OscConfig+0x2ac>)
 8003c0c:	681b      	ldr	r3, [r3, #0]
 8003c0e:	f403 3300 	and.w	r3, r3, #131072	; 0x20000
 8003c12:	2b00      	cmp	r3, #0
 8003c14:	d1f0      	bne.n	8003bf8 <HAL_RCC_OscConfig+0xe8>
 8003c16:	e000      	b.n	8003c1a <HAL_RCC_OscConfig+0x10a>
 8003c18:	bf00      	nop
 8003c1a:	687b      	ldr	r3, [r7, #4]
 8003c1c:	681b      	ldr	r3, [r3, #0]
 8003c1e:	f003 0302 	and.w	r3, r3, #2
 8003c22:	2b00      	cmp	r3, #0
 8003c24:	d063      	beq.n	8003cee <HAL_RCC_OscConfig+0x1de>
 8003c26:	4b65      	ldr	r3, [pc, #404]	; (8003dbc <HAL_RCC_OscConfig+0x2ac>)
 8003c28:	689b      	ldr	r3, [r3, #8]
 8003c2a:	f003 030c 	and.w	r3, r3, #12
 8003c2e:	2b00      	cmp	r3, #0
 8003c30:	d00b      	beq.n	8003c4a <HAL_RCC_OscConfig+0x13a>
 8003c32:	4b62      	ldr	r3, [pc, #392]	; (8003dbc <HAL_RCC_OscConfig+0x2ac>)
 8003c34:	689b      	ldr	r3, [r3, #8]
 8003c36:	f003 030c 	and.w	r3, r3, #12
 8003c3a:	2b08      	cmp	r3, #8
 8003c3c:	d11c      	bne.n	8003c78 <HAL_RCC_OscConfig+0x168>
 8003c3e:	4b5f      	ldr	r3, [pc, #380]	; (8003dbc <HAL_RCC_OscConfig+0x2ac>)
 8003c40:	685b      	ldr	r3, [r3, #4]
 8003c42:	f403 0380 	and.w	r3, r3, #4194304	; 0x400000
 8003c46:	2b00      	cmp	r3, #0
 8003c48:	d116      	bne.n	8003c78 <HAL_RCC_OscConfig+0x168>
 8003c4a:	4b5c      	ldr	r3, [pc, #368]	; (8003dbc <HAL_RCC_OscConfig+0x2ac>)
 8003c4c:	681b      	ldr	r3, [r3, #0]
 8003c4e:	f003 0302 	and.w	r3, r3, #2
 8003c52:	2b00      	cmp	r3, #0
 8003c54:	d005      	beq.n	8003c62 <HAL_RCC_OscConfig+0x152>
 8003c56:	687b      	ldr	r3, [r7, #4]
 8003c58:	68db      	ldr	r3, [r3, #12]
 8003c5a:	2b01      	cmp	r3, #1
 8003c5c:	d001      	beq.n	8003c62 <HAL_RCC_OscConfig+0x152>
 8003c5e:	2301      	movs	r3, #1
 8003c60:	e1bb      	b.n	8003fda <HAL_RCC_OscConfig+0x4ca>
 8003c62:	4b56      	ldr	r3, [pc, #344]	; (8003dbc <HAL_RCC_OscConfig+0x2ac>)
 8003c64:	681b      	ldr	r3, [r3, #0]
 8003c66:	f023 02f8 	bic.w	r2, r3, #248	; 0xf8
 8003c6a:	687b      	ldr	r3, [r7, #4]
 8003c6c:	691b      	ldr	r3, [r3, #16]
 8003c6e:	00db      	lsls	r3, r3, #3
 8003c70:	4952      	ldr	r1, [pc, #328]	; (8003dbc <HAL_RCC_OscConfig+0x2ac>)
 8003c72:	4313      	orrs	r3, r2
 8003c74:	600b      	str	r3, [r1, #0]
 8003c76:	e03a      	b.n	8003cee <HAL_RCC_OscConfig+0x1de>
 8003c78:	687b      	ldr	r3, [r7, #4]
 8003c7a:	68db      	ldr	r3, [r3, #12]
 8003c7c:	2b00      	cmp	r3, #0
 8003c7e:	d020      	beq.n	8003cc2 <HAL_RCC_OscConfig+0x1b2>
 8003c80:	4b4f      	ldr	r3, [pc, #316]	; (8003dc0 <HAL_RCC_OscConfig+0x2b0>)
 8003c82:	2201      	movs	r2, #1
 8003c84:	601a      	str	r2, [r3, #0]
 8003c86:	f7fe f9b5 	bl	8001ff4 <HAL_GetTick>
 8003c8a:	6138      	str	r0, [r7, #16]
 8003c8c:	e008      	b.n	8003ca0 <HAL_RCC_OscConfig+0x190>
 8003c8e:	f7fe f9b1 	bl	8001ff4 <HAL_GetTick>
 8003c92:	4602      	mov	r2, r0
 8003c94:	693b      	ldr	r3, [r7, #16]
 8003c96:	1ad3      	subs	r3, r2, r3
 8003c98:	2b02      	cmp	r3, #2
 8003c9a:	d901      	bls.n	8003ca0 <HAL_RCC_OscConfig+0x190>
 8003c9c:	2303      	movs	r3, #3
 8003c9e:	e19c      	b.n	8003fda <HAL_RCC_OscConfig+0x4ca>
 8003ca0:	4b46      	ldr	r3, [pc, #280]	; (8003dbc <HAL_RCC_OscConfig+0x2ac>)
 8003ca2:	681b      	ldr	r3, [r3, #0]
 8003ca4:	f003 0302 	and.w	r3, r3, #2
 8003ca8:	2b00      	cmp	r3, #0
 8003caa:	d0f0      	beq.n	8003c8e <HAL_RCC_OscConfig+0x17e>
 8003cac:	4b43      	ldr	r3, [pc, #268]	; (8003dbc <HAL_RCC_OscConfig+0x2ac>)
 8003cae:	681b      	ldr	r3, [r3, #0]
 8003cb0:	f023 02f8 	bic.w	r2, r3, #248	; 0xf8
 8003cb4:	687b      	ldr	r3, [r7, #4]
 8003cb6:	691b      	ldr	r3, [r3, #16]
 8003cb8:	00db      	lsls	r3, r3, #3
 8003cba:	4940      	ldr	r1, [pc, #256]	; (8003dbc <HAL_RCC_OscConfig+0x2ac>)
 8003cbc:	4313      	orrs	r3, r2
 8003cbe:	600b      	str	r3, [r1, #0]
 8003cc0:	e015      	b.n	8003cee <HAL_RCC_OscConfig+0x1de>
 8003cc2:	4b3f      	ldr	r3, [pc, #252]	; (8003dc0 <HAL_RCC_OscConfig+0x2b0>)
 8003cc4:	2200      	movs	r2, #0
 8003cc6:	601a      	str	r2, [r3, #0]
 8003cc8:	f7fe f994 	bl	8001ff4 <HAL_GetTick>
 8003ccc:	6138      	str	r0, [r7, #16]
 8003cce:	e008      	b.n	8003ce2 <HAL_RCC_OscConfig+0x1d2>
 8003cd0:	f7fe f990 	bl	8001ff4 <HAL_GetTick>
 8003cd4:	4602      	mov	r2, r0
 8003cd6:	693b      	ldr	r3, [r7, #16]
 8003cd8:	1ad3      	subs	r3, r2, r3
 8003cda:	2b02      	cmp	r3, #2
 8003cdc:	d901      	bls.n	8003ce2 <HAL_RCC_OscConfig+0x1d2>
 8003cde:	2303      	movs	r3, #3
 8003ce0:	e17b      	b.n	8003fda <HAL_RCC_OscConfig+0x4ca>
 8003ce2:	4b36      	ldr	r3, [pc, #216]	; (8003dbc <HAL_RCC_OscConfig+0x2ac>)
 8003ce4:	681b      	ldr	r3, [r3, #0]
 8003ce6:	f003 0302 	and.w	r3, r3, #2
 8003cea:	2b00      	cmp	r3, #0
 8003cec:	d1f0      	bne.n	8003cd0 <HAL_RCC_OscConfig+0x1c0>
 8003cee:	687b      	ldr	r3, [r7, #4]
 8003cf0:	681b      	ldr	r3, [r3, #0]
 8003cf2:	f003 0308 	and.w	r3, r3, #8
 8003cf6:	2b00      	cmp	r3, #0
 8003cf8:	d030      	beq.n	8003d5c <HAL_RCC_OscConfig+0x24c>
 8003cfa:	687b      	ldr	r3, [r7, #4]
 8003cfc:	695b      	ldr	r3, [r3, #20]
 8003cfe:	2b00      	cmp	r3, #0
 8003d00:	d016      	beq.n	8003d30 <HAL_RCC_OscConfig+0x220>
 8003d02:	4b30      	ldr	r3, [pc, #192]	; (8003dc4 <HAL_RCC_OscConfig+0x2b4>)
 8003d04:	2201      	movs	r2, #1
 8003d06:	601a      	str	r2, [r3, #0]
 8003d08:	f7fe f974 	bl	8001ff4 <HAL_GetTick>
 8003d0c:	6138      	str	r0, [r7, #16]
 8003d0e:	e008      	b.n	8003d22 <HAL_RCC_OscConfig+0x212>
 8003d10:	f7fe f970 	bl	8001ff4 <HAL_GetTick>
 8003d14:	4602      	mov	r2, r0
 8003d16:	693b      	ldr	r3, [r7, #16]
 8003d18:	1ad3      	subs	r3, r2, r3
 8003d1a:	2b02      	cmp	r3, #2
 8003d1c:	d901      	bls.n	8003d22 <HAL_RCC_OscConfig+0x212>
 8003d1e:	2303      	movs	r3, #3
 8003d20:	e15b      	b.n	8003fda <HAL_RCC_OscConfig+0x4ca>
 8003d22:	4b26      	ldr	r3, [pc, #152]	; (8003dbc <HAL_RCC_OscConfig+0x2ac>)
 8003d24:	6f5b      	ldr	r3, [r3, #116]	; 0x74
 8003d26:	f003 0302 	and.w	r3, r3, #2
 8003d2a:	2b00      	cmp	r3, #0
 8003d2c:	d0f0      	beq.n	8003d10 <HAL_RCC_OscConfig+0x200>
 8003d2e:	e015      	b.n	8003d5c <HAL_RCC_OscConfig+0x24c>
 8003d30:	4b24      	ldr	r3, [pc, #144]	; (8003dc4 <HAL_RCC_OscConfig+0x2b4>)
 8003d32:	2200      	movs	r2, #0
 8003d34:	601a      	str	r2, [r3, #0]
 8003d36:	f7fe f95d 	bl	8001ff4 <HAL_GetTick>
 8003d3a:	6138      	str	r0, [r7, #16]
 8003d3c:	e008      	b.n	8003d50 <HAL_RCC_OscConfig+0x240>
 8003d3e:	f7fe f959 	bl	8001ff4 <HAL_GetTick>
 8003d42:	4602      	mov	r2, r0
 8003d44:	693b      	ldr	r3, [r7, #16]
 8003d46:	1ad3      	subs	r3, r2, r3
 8003d48:	2b02      	cmp	r3, #2
 8003d4a:	d901      	bls.n	8003d50 <HAL_RCC_OscConfig+0x240>
 8003d4c:	2303      	movs	r3, #3
 8003d4e:	e144      	b.n	8003fda <HAL_RCC_OscConfig+0x4ca>
 8003d50:	4b1a      	ldr	r3, [pc, #104]	; (8003dbc <HAL_RCC_OscConfig+0x2ac>)
 8003d52:	6f5b      	ldr	r3, [r3, #116]	; 0x74
 8003d54:	f003 0302 	and.w	r3, r3, #2
 8003d58:	2b00      	cmp	r3, #0
 8003d5a:	d1f0      	bne.n	8003d3e <HAL_RCC_OscConfig+0x22e>
 8003d5c:	687b      	ldr	r3, [r7, #4]
 8003d5e:	681b      	ldr	r3, [r3, #0]
 8003d60:	f003 0304 	and.w	r3, r3, #4
 8003d64:	2b00      	cmp	r3, #0
 8003d66:	f000 80a0 	beq.w	8003eaa <HAL_RCC_OscConfig+0x39a>
 8003d6a:	2300      	movs	r3, #0
 8003d6c:	75fb      	strb	r3, [r7, #23]
 8003d6e:	4b13      	ldr	r3, [pc, #76]	; (8003dbc <HAL_RCC_OscConfig+0x2ac>)
 8003d70:	6c1b      	ldr	r3, [r3, #64]	; 0x40
 8003d72:	f003 5380 	and.w	r3, r3, #268435456	; 0x10000000
 8003d76:	2b00      	cmp	r3, #0
 8003d78:	d10f      	bne.n	8003d9a <HAL_RCC_OscConfig+0x28a>
 8003d7a:	2300      	movs	r3, #0
 8003d7c:	60bb      	str	r3, [r7, #8]
 8003d7e:	4b0f      	ldr	r3, [pc, #60]	; (8003dbc <HAL_RCC_OscConfig+0x2ac>)
 8003d80:	6c1b      	ldr	r3, [r3, #64]	; 0x40
 8003d82:	4a0e      	ldr	r2, [pc, #56]	; (8003dbc <HAL_RCC_OscConfig+0x2ac>)
 8003d84:	f043 5380 	orr.w	r3, r3, #268435456	; 0x10000000
 8003d88:	6413      	str	r3, [r2, #64]	; 0x40
 8003d8a:	4b0c      	ldr	r3, [pc, #48]	; (8003dbc <HAL_RCC_OscConfig+0x2ac>)
 8003d8c:	6c1b      	ldr	r3, [r3, #64]	; 0x40
 8003d8e:	f003 5380 	and.w	r3, r3, #268435456	; 0x10000000
 8003d92:	60bb      	str	r3, [r7, #8]
 8003d94:	68bb      	ldr	r3, [r7, #8]
 8003d96:	2301      	movs	r3, #1
 8003d98:	75fb      	strb	r3, [r7, #23]
 8003d9a:	4b0b      	ldr	r3, [pc, #44]	; (8003dc8 <HAL_RCC_OscConfig+0x2b8>)
 8003d9c:	681b      	ldr	r3, [r3, #0]
 8003d9e:	f403 7380 	and.w	r3, r3, #256	; 0x100
 8003da2:	2b00      	cmp	r3, #0
 8003da4:	d121      	bne.n	8003dea <HAL_RCC_OscConfig+0x2da>
 8003da6:	4b08      	ldr	r3, [pc, #32]	; (8003dc8 <HAL_RCC_OscConfig+0x2b8>)
 8003da8:	681b      	ldr	r3, [r3, #0]
 8003daa:	4a07      	ldr	r2, [pc, #28]	; (8003dc8 <HAL_RCC_OscConfig+0x2b8>)
 8003dac:	f443 7380 	orr.w	r3, r3, #256	; 0x100
 8003db0:	6013      	str	r3, [r2, #0]
 8003db2:	f7fe f91f 	bl	8001ff4 <HAL_GetTick>
 8003db6:	6138      	str	r0, [r7, #16]
 8003db8:	e011      	b.n	8003dde <HAL_RCC_OscConfig+0x2ce>
 8003dba:	bf00      	nop
 8003dbc:	40023800 	.word	0x40023800
 8003dc0:	42470000 	.word	0x42470000
 8003dc4:	42470e80 	.word	0x42470e80
 8003dc8:	40007000 	.word	0x40007000
 8003dcc:	f7fe f912 	bl	8001ff4 <HAL_GetTick>
 8003dd0:	4602      	mov	r2, r0
 8003dd2:	693b      	ldr	r3, [r7, #16]
 8003dd4:	1ad3      	subs	r3, r2, r3
 8003dd6:	2b02      	cmp	r3, #2
 8003dd8:	d901      	bls.n	8003dde <HAL_RCC_OscConfig+0x2ce>
 8003dda:	2303      	movs	r3, #3
 8003ddc:	e0fd      	b.n	8003fda <HAL_RCC_OscConfig+0x4ca>
 8003dde:	4b81      	ldr	r3, [pc, #516]	; (8003fe4 <HAL_RCC_OscConfig+0x4d4>)
 8003de0:	681b      	ldr	r3, [r3, #0]
 8003de2:	f403 7380 	and.w	r3, r3, #256	; 0x100
 8003de6:	2b00      	cmp	r3, #0
 8003de8:	d0f0      	beq.n	8003dcc <HAL_RCC_OscConfig+0x2bc>
 8003dea:	687b      	ldr	r3, [r7, #4]
 8003dec:	689b      	ldr	r3, [r3, #8]
 8003dee:	2b01      	cmp	r3, #1
 8003df0:	d106      	bne.n	8003e00 <HAL_RCC_OscConfig+0x2f0>
 8003df2:	4b7d      	ldr	r3, [pc, #500]	; (8003fe8 <HAL_RCC_OscConfig+0x4d8>)
 8003df4:	6f1b      	ldr	r3, [r3, #112]	; 0x70
 8003df6:	4a7c      	ldr	r2, [pc, #496]	; (8003fe8 <HAL_RCC_OscConfig+0x4d8>)
 8003df8:	f043 0301 	orr.w	r3, r3, #1
 8003dfc:	6713      	str	r3, [r2, #112]	; 0x70
 8003dfe:	e01c      	b.n	8003e3a <HAL_RCC_OscConfig+0x32a>
 8003e00:	687b      	ldr	r3, [r7, #4]
 8003e02:	689b      	ldr	r3, [r3, #8]
 8003e04:	2b05      	cmp	r3, #5
 8003e06:	d10c      	bne.n	8003e22 <HAL_RCC_OscConfig+0x312>
 8003e08:	4b77      	ldr	r3, [pc, #476]	; (8003fe8 <HAL_RCC_OscConfig+0x4d8>)
 8003e0a:	6f1b      	ldr	r3, [r3, #112]	; 0x70
 8003e0c:	4a76      	ldr	r2, [pc, #472]	; (8003fe8 <HAL_RCC_OscConfig+0x4d8>)
 8003e0e:	f043 0304 	orr.w	r3, r3, #4
 8003e12:	6713      	str	r3, [r2, #112]	; 0x70
 8003e14:	4b74      	ldr	r3, [pc, #464]	; (8003fe8 <HAL_RCC_OscConfig+0x4d8>)
 8003e16:	6f1b      	ldr	r3, [r3, #112]	; 0x70
 8003e18:	4a73      	ldr	r2, [pc, #460]	; (8003fe8 <HAL_RCC_OscConfig+0x4d8>)
 8003e1a:	f043 0301 	orr.w	r3, r3, #1
 8003e1e:	6713      	str	r3, [r2, #112]	; 0x70
 8003e20:	e00b      	b.n	8003e3a <HAL_RCC_OscConfig+0x32a>
 8003e22:	4b71      	ldr	r3, [pc, #452]	; (8003fe8 <HAL_RCC_OscConfig+0x4d8>)
 8003e24:	6f1b      	ldr	r3, [r3, #112]	; 0x70
 8003e26:	4a70      	ldr	r2, [pc, #448]	; (8003fe8 <HAL_RCC_OscConfig+0x4d8>)
 8003e28:	f023 0301 	bic.w	r3, r3, #1
 8003e2c:	6713      	str	r3, [r2, #112]	; 0x70
 8003e2e:	4b6e      	ldr	r3, [pc, #440]	; (8003fe8 <HAL_RCC_OscConfig+0x4d8>)
 8003e30:	6f1b      	ldr	r3, [r3, #112]	; 0x70
 8003e32:	4a6d      	ldr	r2, [pc, #436]	; (8003fe8 <HAL_RCC_OscConfig+0x4d8>)
 8003e34:	f023 0304 	bic.w	r3, r3, #4
 8003e38:	6713      	str	r3, [r2, #112]	; 0x70
 8003e3a:	687b      	ldr	r3, [r7, #4]
 8003e3c:	689b      	ldr	r3, [r3, #8]
 8003e3e:	2b00      	cmp	r3, #0
 8003e40:	d015      	beq.n	8003e6e <HAL_RCC_OscConfig+0x35e>
 8003e42:	f7fe f8d7 	bl	8001ff4 <HAL_GetTick>
 8003e46:	6138      	str	r0, [r7, #16]
 8003e48:	e00a      	b.n	8003e60 <HAL_RCC_OscConfig+0x350>
 8003e4a:	f7fe f8d3 	bl	8001ff4 <HAL_GetTick>
 8003e4e:	4602      	mov	r2, r0
 8003e50:	693b      	ldr	r3, [r7, #16]
 8003e52:	1ad3      	subs	r3, r2, r3
 8003e54:	f241 3288 	movw	r2, #5000	; 0x1388
 8003e58:	4293      	cmp	r3, r2
 8003e5a:	d901      	bls.n	8003e60 <HAL_RCC_OscConfig+0x350>
 8003e5c:	2303      	movs	r3, #3
 8003e5e:	e0bc      	b.n	8003fda <HAL_RCC_OscConfig+0x4ca>
 8003e60:	4b61      	ldr	r3, [pc, #388]	; (8003fe8 <HAL_RCC_OscConfig+0x4d8>)
 8003e62:	6f1b      	ldr	r3, [r3, #112]	; 0x70
 8003e64:	f003 0302 	and.w	r3, r3, #2
 8003e68:	2b00      	cmp	r3, #0
 8003e6a:	d0ee      	beq.n	8003e4a <HAL_RCC_OscConfig+0x33a>
 8003e6c:	e014      	b.n	8003e98 <HAL_RCC_OscConfig+0x388>
 8003e6e:	f7fe f8c1 	bl	8001ff4 <HAL_GetTick>
 8003e72:	6138      	str	r0, [r7, #16]
 8003e74:	e00a      	b.n	8003e8c <HAL_RCC_OscConfig+0x37c>
 8003e76:	f7fe f8bd 	bl	8001ff4 <HAL_GetTick>
 8003e7a:	4602      	mov	r2, r0
 8003e7c:	693b      	ldr	r3, [r7, #16]
 8003e7e:	1ad3      	subs	r3, r2, r3
 8003e80:	f241 3288 	movw	r2, #5000	; 0x1388
 8003e84:	4293      	cmp	r3, r2
 8003e86:	d901      	bls.n	8003e8c <HAL_RCC_OscConfig+0x37c>
 8003e88:	2303      	movs	r3, #3
 8003e8a:	e0a6      	b.n	8003fda <HAL_RCC_OscConfig+0x4ca>
 8003e8c:	4b56      	ldr	r3, [pc, #344]	; (8003fe8 <HAL_RCC_OscConfig+0x4d8>)
 8003e8e:	6f1b      	ldr	r3, [r3, #112]	; 0x70
 8003e90:	f003 0302 	and.w	r3, r3, #2
 8003e94:	2b00      	cmp	r3, #0
 8003e96:	d1ee      	bne.n	8003e76 <HAL_RCC_OscConfig+0x366>
 8003e98:	7dfb      	ldrb	r3, [r7, #23]
 8003e9a:	2b01      	cmp	r3, #1
 8003e9c:	d105      	bne.n	8003eaa <HAL_RCC_OscConfig+0x39a>
 8003e9e:	4b52      	ldr	r3, [pc, #328]	; (8003fe8 <HAL_RCC_OscConfig+0x4d8>)
 8003ea0:	6c1b      	ldr	r3, [r3, #64]	; 0x40
 8003ea2:	4a51      	ldr	r2, [pc, #324]	; (8003fe8 <HAL_RCC_OscConfig+0x4d8>)
 8003ea4:	f023 5380 	bic.w	r3, r3, #268435456	; 0x10000000
 8003ea8:	6413      	str	r3, [r2, #64]	; 0x40
 8003eaa:	687b      	ldr	r3, [r7, #4]
 8003eac:	699b      	ldr	r3, [r3, #24]
 8003eae:	2b00      	cmp	r3, #0
 8003eb0:	f000 8092 	beq.w	8003fd8 <HAL_RCC_OscConfig+0x4c8>
 8003eb4:	4b4c      	ldr	r3, [pc, #304]	; (8003fe8 <HAL_RCC_OscConfig+0x4d8>)
 8003eb6:	689b      	ldr	r3, [r3, #8]
 8003eb8:	f003 030c 	and.w	r3, r3, #12
 8003ebc:	2b08      	cmp	r3, #8
 8003ebe:	d05c      	beq.n	8003f7a <HAL_RCC_OscConfig+0x46a>
 8003ec0:	687b      	ldr	r3, [r7, #4]
 8003ec2:	699b      	ldr	r3, [r3, #24]
 8003ec4:	2b02      	cmp	r3, #2
 8003ec6:	d141      	bne.n	8003f4c <HAL_RCC_OscConfig+0x43c>
 8003ec8:	4b48      	ldr	r3, [pc, #288]	; (8003fec <HAL_RCC_OscConfig+0x4dc>)
 8003eca:	2200      	movs	r2, #0
 8003ecc:	601a      	str	r2, [r3, #0]
 8003ece:	f7fe f891 	bl	8001ff4 <HAL_GetTick>
 8003ed2:	6138      	str	r0, [r7, #16]
 8003ed4:	e008      	b.n	8003ee8 <HAL_RCC_OscConfig+0x3d8>
 8003ed6:	f7fe f88d 	bl	8001ff4 <HAL_GetTick>
 8003eda:	4602      	mov	r2, r0
 8003edc:	693b      	ldr	r3, [r7, #16]
 8003ede:	1ad3      	subs	r3, r2, r3
 8003ee0:	2b02      	cmp	r3, #2
 8003ee2:	d901      	bls.n	8003ee8 <HAL_RCC_OscConfig+0x3d8>
 8003ee4:	2303      	movs	r3, #3
 8003ee6:	e078      	b.n	8003fda <HAL_RCC_OscConfig+0x4ca>
 8003ee8:	4b3f      	ldr	r3, [pc, #252]	; (8003fe8 <HAL_RCC_OscConfig+0x4d8>)
 8003eea:	681b      	ldr	r3, [r3, #0]
 8003eec:	f003 7300 	and.w	r3, r3, #33554432	; 0x2000000
 8003ef0:	2b00      	cmp	r3, #0
 8003ef2:	d1f0      	bne.n	8003ed6 <HAL_RCC_OscConfig+0x3c6>
 8003ef4:	687b      	ldr	r3, [r7, #4]
 8003ef6:	69da      	ldr	r2, [r3, #28]
 8003ef8:	687b      	ldr	r3, [r7, #4]
 8003efa:	6a1b      	ldr	r3, [r3, #32]
 8003efc:	431a      	orrs	r2, r3
 8003efe:	687b      	ldr	r3, [r7, #4]
 8003f00:	6a5b      	ldr	r3, [r3, #36]	; 0x24
 8003f02:	019b      	lsls	r3, r3, #6
 8003f04:	431a      	orrs	r2, r3
 8003f06:	687b      	ldr	r3, [r7, #4]
 8003f08:	6a9b      	ldr	r3, [r3, #40]	; 0x28
 8003f0a:	085b      	lsrs	r3, r3, #1
 8003f0c:	3b01      	subs	r3, #1
 8003f0e:	041b      	lsls	r3, r3, #16
 8003f10:	431a      	orrs	r2, r3
 8003f12:	687b      	ldr	r3, [r7, #4]
 8003f14:	6adb      	ldr	r3, [r3, #44]	; 0x2c
 8003f16:	061b      	lsls	r3, r3, #24
 8003f18:	4933      	ldr	r1, [pc, #204]	; (8003fe8 <HAL_RCC_OscConfig+0x4d8>)
 8003f1a:	4313      	orrs	r3, r2
 8003f1c:	604b      	str	r3, [r1, #4]
 8003f1e:	4b33      	ldr	r3, [pc, #204]	; (8003fec <HAL_RCC_OscConfig+0x4dc>)
 8003f20:	2201      	movs	r2, #1
 8003f22:	601a      	str	r2, [r3, #0]
 8003f24:	f7fe f866 	bl	8001ff4 <HAL_GetTick>
 8003f28:	6138      	str	r0, [r7, #16]
 8003f2a:	e008      	b.n	8003f3e <HAL_RCC_OscConfig+0x42e>
 8003f2c:	f7fe f862 	bl	8001ff4 <HAL_GetTick>
 8003f30:	4602      	mov	r2, r0
 8003f32:	693b      	ldr	r3, [r7, #16]
 8003f34:	1ad3      	subs	r3, r2, r3
 8003f36:	2b02      	cmp	r3, #2
 8003f38:	d901      	bls.n	8003f3e <HAL_RCC_OscConfig+0x42e>
 8003f3a:	2303      	movs	r3, #3
 8003f3c:	e04d      	b.n	8003fda <HAL_RCC_OscConfig+0x4ca>
 8003f3e:	4b2a      	ldr	r3, [pc, #168]	; (8003fe8 <HAL_RCC_OscConfig+0x4d8>)
 8003f40:	681b      	ldr	r3, [r3, #0]
 8003f42:	f003 7300 	and.w	r3, r3, #33554432	; 0x2000000
 8003f46:	2b00      	cmp	r3, #0
 8003f48:	d0f0      	beq.n	8003f2c <HAL_RCC_OscConfig+0x41c>
 8003f4a:	e045      	b.n	8003fd8 <HAL_RCC_OscConfig+0x4c8>
 8003f4c:	4b27      	ldr	r3, [pc, #156]	; (8003fec <HAL_RCC_OscConfig+0x4dc>)
 8003f4e:	2200      	movs	r2, #0
 8003f50:	601a      	str	r2, [r3, #0]
 8003f52:	f7fe f84f 	bl	8001ff4 <HAL_GetTick>
 8003f56:	6138      	str	r0, [r7, #16]
 8003f58:	e008      	b.n	8003f6c <HAL_RCC_OscConfig+0x45c>
 8003f5a:	f7fe f84b 	bl	8001ff4 <HAL_GetTick>
 8003f5e:	4602      	mov	r2, r0
 8003f60:	693b      	ldr	r3, [r7, #16]
 8003f62:	1ad3      	subs	r3, r2, r3
 8003f64:	2b02      	cmp	r3, #2
 8003f66:	d901      	bls.n	8003f6c <HAL_RCC_OscConfig+0x45c>
 8003f68:	2303      	movs	r3, #3
 8003f6a:	e036      	b.n	8003fda <HAL_RCC_OscConfig+0x4ca>
 8003f6c:	4b1e      	ldr	r3, [pc, #120]	; (8003fe8 <HAL_RCC_OscConfig+0x4d8>)
 8003f6e:	681b      	ldr	r3, [r3, #0]
 8003f70:	f003 7300 	and.w	r3, r3, #33554432	; 0x2000000
 8003f74:	2b00      	cmp	r3, #0
 8003f76:	d1f0      	bne.n	8003f5a <HAL_RCC_OscConfig+0x44a>
 8003f78:	e02e      	b.n	8003fd8 <HAL_RCC_OscConfig+0x4c8>
 8003f7a:	687b      	ldr	r3, [r7, #4]
 8003f7c:	699b      	ldr	r3, [r3, #24]
 8003f7e:	2b01      	cmp	r3, #1
 8003f80:	d101      	bne.n	8003f86 <HAL_RCC_OscConfig+0x476>
 8003f82:	2301      	movs	r3, #1
 8003f84:	e029      	b.n	8003fda <HAL_RCC_OscConfig+0x4ca>
 8003f86:	4b18      	ldr	r3, [pc, #96]	; (8003fe8 <HAL_RCC_OscConfig+0x4d8>)
 8003f88:	685b      	ldr	r3, [r3, #4]
 8003f8a:	60fb      	str	r3, [r7, #12]
 8003f8c:	68fb      	ldr	r3, [r7, #12]
 8003f8e:	f403 0280 	and.w	r2, r3, #4194304	; 0x400000
 8003f92:	687b      	ldr	r3, [r7, #4]
 8003f94:	69db      	ldr	r3, [r3, #28]
 8003f96:	429a      	cmp	r2, r3
 8003f98:	d11c      	bne.n	8003fd4 <HAL_RCC_OscConfig+0x4c4>
 8003f9a:	68fb      	ldr	r3, [r7, #12]
 8003f9c:	f003 023f 	and.w	r2, r3, #63	; 0x3f
 8003fa0:	687b      	ldr	r3, [r7, #4]
 8003fa2:	6a1b      	ldr	r3, [r3, #32]
 8003fa4:	429a      	cmp	r2, r3
 8003fa6:	d115      	bne.n	8003fd4 <HAL_RCC_OscConfig+0x4c4>
 8003fa8:	68fa      	ldr	r2, [r7, #12]
 8003faa:	f647 73c0 	movw	r3, #32704	; 0x7fc0
 8003fae:	4013      	ands	r3, r2
 8003fb0:	687a      	ldr	r2, [r7, #4]
 8003fb2:	6a52      	ldr	r2, [r2, #36]	; 0x24
 8003fb4:	4293      	cmp	r3, r2
 8003fb6:	d10d      	bne.n	8003fd4 <HAL_RCC_OscConfig+0x4c4>
 8003fb8:	68fb      	ldr	r3, [r7, #12]
 8003fba:	f403 3240 	and.w	r2, r3, #196608	; 0x30000
 8003fbe:	687b      	ldr	r3, [r7, #4]
 8003fc0:	6a9b      	ldr	r3, [r3, #40]	; 0x28
 8003fc2:	429a      	cmp	r2, r3
 8003fc4:	d106      	bne.n	8003fd4 <HAL_RCC_OscConfig+0x4c4>
 8003fc6:	68fb      	ldr	r3, [r7, #12]
 8003fc8:	f003 6270 	and.w	r2, r3, #251658240	; 0xf000000
 8003fcc:	687b      	ldr	r3, [r7, #4]
 8003fce:	6adb      	ldr	r3, [r3, #44]	; 0x2c
 8003fd0:	429a      	cmp	r2, r3
 8003fd2:	d001      	beq.n	8003fd8 <HAL_RCC_OscConfig+0x4c8>
 8003fd4:	2301      	movs	r3, #1
 8003fd6:	e000      	b.n	8003fda <HAL_RCC_OscConfig+0x4ca>
 8003fd8:	2300      	movs	r3, #0
 8003fda:	4618      	mov	r0, r3
 8003fdc:	3718      	adds	r7, #24
 8003fde:	46bd      	mov	sp, r7
 8003fe0:	bd80      	pop	{r7, pc}
 8003fe2:	bf00      	nop
 8003fe4:	40007000 	.word	0x40007000
 8003fe8:	40023800 	.word	0x40023800
 8003fec:	42470060 	.word	0x42470060

08003ff0 <HAL_RCC_ClockConfig>:
 8003ff0:	b580      	push	{r7, lr}
 8003ff2:	b084      	sub	sp, #16
 8003ff4:	af00      	add	r7, sp, #0
 8003ff6:	6078      	str	r0, [r7, #4]
 8003ff8:	6039      	str	r1, [r7, #0]
 8003ffa:	687b      	ldr	r3, [r7, #4]
 8003ffc:	2b00      	cmp	r3, #0
 8003ffe:	d101      	bne.n	8004004 <HAL_RCC_ClockConfig+0x14>
 8004000:	2301      	movs	r3, #1
 8004002:	e0cc      	b.n	800419e <HAL_RCC_ClockConfig+0x1ae>
 8004004:	4b68      	ldr	r3, [pc, #416]	; (80041a8 <HAL_RCC_ClockConfig+0x1b8>)
 8004006:	681b      	ldr	r3, [r3, #0]
 8004008:	f003 030f 	and.w	r3, r3, #15
 800400c:	683a      	ldr	r2, [r7, #0]
 800400e:	429a      	cmp	r2, r3
 8004010:	d90c      	bls.n	800402c <HAL_RCC_ClockConfig+0x3c>
 8004012:	4b65      	ldr	r3, [pc, #404]	; (80041a8 <HAL_RCC_ClockConfig+0x1b8>)
 8004014:	683a      	ldr	r2, [r7, #0]
 8004016:	b2d2      	uxtb	r2, r2
 8004018:	701a      	strb	r2, [r3, #0]
 800401a:	4b63      	ldr	r3, [pc, #396]	; (80041a8 <HAL_RCC_ClockConfig+0x1b8>)
 800401c:	681b      	ldr	r3, [r3, #0]
 800401e:	f003 030f 	and.w	r3, r3, #15
 8004022:	683a      	ldr	r2, [r7, #0]
 8004024:	429a      	cmp	r2, r3
 8004026:	d001      	beq.n	800402c <HAL_RCC_ClockConfig+0x3c>
 8004028:	2301      	movs	r3, #1
 800402a:	e0b8      	b.n	800419e <HAL_RCC_ClockConfig+0x1ae>
 800402c:	687b      	ldr	r3, [r7, #4]
 800402e:	681b      	ldr	r3, [r3, #0]
 8004030:	f003 0302 	and.w	r3, r3, #2
 8004034:	2b00      	cmp	r3, #0
 8004036:	d020      	beq.n	800407a <HAL_RCC_ClockConfig+0x8a>
 8004038:	687b      	ldr	r3, [r7, #4]
 800403a:	681b      	ldr	r3, [r3, #0]
 800403c:	f003 0304 	and.w	r3, r3, #4
 8004040:	2b00      	cmp	r3, #0
 8004042:	d005      	beq.n	8004050 <HAL_RCC_ClockConfig+0x60>
 8004044:	4b59      	ldr	r3, [pc, #356]	; (80041ac <HAL_RCC_ClockConfig+0x1bc>)
 8004046:	689b      	ldr	r3, [r3, #8]
 8004048:	4a58      	ldr	r2, [pc, #352]	; (80041ac <HAL_RCC_ClockConfig+0x1bc>)
 800404a:	f443 53e0 	orr.w	r3, r3, #7168	; 0x1c00
 800404e:	6093      	str	r3, [r2, #8]
 8004050:	687b      	ldr	r3, [r7, #4]
 8004052:	681b      	ldr	r3, [r3, #0]
 8004054:	f003 0308 	and.w	r3, r3, #8
 8004058:	2b00      	cmp	r3, #0
 800405a:	d005      	beq.n	8004068 <HAL_RCC_ClockConfig+0x78>
 800405c:	4b53      	ldr	r3, [pc, #332]	; (80041ac <HAL_RCC_ClockConfig+0x1bc>)
 800405e:	689b      	ldr	r3, [r3, #8]
 8004060:	4a52      	ldr	r2, [pc, #328]	; (80041ac <HAL_RCC_ClockConfig+0x1bc>)
 8004062:	f443 4360 	orr.w	r3, r3, #57344	; 0xe000
 8004066:	6093      	str	r3, [r2, #8]
 8004068:	4b50      	ldr	r3, [pc, #320]	; (80041ac <HAL_RCC_ClockConfig+0x1bc>)
 800406a:	689b      	ldr	r3, [r3, #8]
 800406c:	f023 02f0 	bic.w	r2, r3, #240	; 0xf0
 8004070:	687b      	ldr	r3, [r7, #4]
 8004072:	689b      	ldr	r3, [r3, #8]
 8004074:	494d      	ldr	r1, [pc, #308]	; (80041ac <HAL_RCC_ClockConfig+0x1bc>)
 8004076:	4313      	orrs	r3, r2
 8004078:	608b      	str	r3, [r1, #8]
 800407a:	687b      	ldr	r3, [r7, #4]
 800407c:	681b      	ldr	r3, [r3, #0]
 800407e:	f003 0301 	and.w	r3, r3, #1
 8004082:	2b00      	cmp	r3, #0
 8004084:	d044      	beq.n	8004110 <HAL_RCC_ClockConfig+0x120>
 8004086:	687b      	ldr	r3, [r7, #4]
 8004088:	685b      	ldr	r3, [r3, #4]
 800408a:	2b01      	cmp	r3, #1
 800408c:	d107      	bne.n	800409e <HAL_RCC_ClockConfig+0xae>
 800408e:	4b47      	ldr	r3, [pc, #284]	; (80041ac <HAL_RCC_ClockConfig+0x1bc>)
 8004090:	681b      	ldr	r3, [r3, #0]
 8004092:	f403 3300 	and.w	r3, r3, #131072	; 0x20000
 8004096:	2b00      	cmp	r3, #0
 8004098:	d119      	bne.n	80040ce <HAL_RCC_ClockConfig+0xde>
 800409a:	2301      	movs	r3, #1
 800409c:	e07f      	b.n	800419e <HAL_RCC_ClockConfig+0x1ae>
 800409e:	687b      	ldr	r3, [r7, #4]
 80040a0:	685b      	ldr	r3, [r3, #4]
 80040a2:	2b02      	cmp	r3, #2
 80040a4:	d003      	beq.n	80040ae <HAL_RCC_ClockConfig+0xbe>
 80040a6:	687b      	ldr	r3, [r7, #4]
 80040a8:	685b      	ldr	r3, [r3, #4]
 80040aa:	2b03      	cmp	r3, #3
 80040ac:	d107      	bne.n	80040be <HAL_RCC_ClockConfig+0xce>
 80040ae:	4b3f      	ldr	r3, [pc, #252]	; (80041ac <HAL_RCC_ClockConfig+0x1bc>)
 80040b0:	681b      	ldr	r3, [r3, #0]
 80040b2:	f003 7300 	and.w	r3, r3, #33554432	; 0x2000000
 80040b6:	2b00      	cmp	r3, #0
 80040b8:	d109      	bne.n	80040ce <HAL_RCC_ClockConfig+0xde>
 80040ba:	2301      	movs	r3, #1
 80040bc:	e06f      	b.n	800419e <HAL_RCC_ClockConfig+0x1ae>
 80040be:	4b3b      	ldr	r3, [pc, #236]	; (80041ac <HAL_RCC_ClockConfig+0x1bc>)
 80040c0:	681b      	ldr	r3, [r3, #0]
 80040c2:	f003 0302 	and.w	r3, r3, #2
 80040c6:	2b00      	cmp	r3, #0
 80040c8:	d101      	bne.n	80040ce <HAL_RCC_ClockConfig+0xde>
 80040ca:	2301      	movs	r3, #1
 80040cc:	e067      	b.n	800419e <HAL_RCC_ClockConfig+0x1ae>
 80040ce:	4b37      	ldr	r3, [pc, #220]	; (80041ac <HAL_RCC_ClockConfig+0x1bc>)
 80040d0:	689b      	ldr	r3, [r3, #8]
 80040d2:	f023 0203 	bic.w	r2, r3, #3
 80040d6:	687b      	ldr	r3, [r7, #4]
 80040d8:	685b      	ldr	r3, [r3, #4]
 80040da:	4934      	ldr	r1, [pc, #208]	; (80041ac <HAL_RCC_ClockConfig+0x1bc>)
 80040dc:	4313      	orrs	r3, r2
 80040de:	608b      	str	r3, [r1, #8]
 80040e0:	f7fd ff88 	bl	8001ff4 <HAL_GetTick>
 80040e4:	60f8      	str	r0, [r7, #12]
 80040e6:	e00a      	b.n	80040fe <HAL_RCC_ClockConfig+0x10e>
 80040e8:	f7fd ff84 	bl	8001ff4 <HAL_GetTick>
 80040ec:	4602      	mov	r2, r0
 80040ee:	68fb      	ldr	r3, [r7, #12]
 80040f0:	1ad3      	subs	r3, r2, r3
 80040f2:	f241 3288 	movw	r2, #5000	; 0x1388
 80040f6:	4293      	cmp	r3, r2
 80040f8:	d901      	bls.n	80040fe <HAL_RCC_ClockConfig+0x10e>
 80040fa:	2303      	movs	r3, #3
 80040fc:	e04f      	b.n	800419e <HAL_RCC_ClockConfig+0x1ae>
 80040fe:	4b2b      	ldr	r3, [pc, #172]	; (80041ac <HAL_RCC_ClockConfig+0x1bc>)
 8004100:	689b      	ldr	r3, [r3, #8]
 8004102:	f003 020c 	and.w	r2, r3, #12
 8004106:	687b      	ldr	r3, [r7, #4]
 8004108:	685b      	ldr	r3, [r3, #4]
 800410a:	009b      	lsls	r3, r3, #2
 800410c:	429a      	cmp	r2, r3
 800410e:	d1eb      	bne.n	80040e8 <HAL_RCC_ClockConfig+0xf8>
 8004110:	4b25      	ldr	r3, [pc, #148]	; (80041a8 <HAL_RCC_ClockConfig+0x1b8>)
 8004112:	681b      	ldr	r3, [r3, #0]
 8004114:	f003 030f 	and.w	r3, r3, #15
 8004118:	683a      	ldr	r2, [r7, #0]
 800411a:	429a      	cmp	r2, r3
 800411c:	d20c      	bcs.n	8004138 <HAL_RCC_ClockConfig+0x148>
 800411e:	4b22      	ldr	r3, [pc, #136]	; (80041a8 <HAL_RCC_ClockConfig+0x1b8>)
 8004120:	683a      	ldr	r2, [r7, #0]
 8004122:	b2d2      	uxtb	r2, r2
 8004124:	701a      	strb	r2, [r3, #0]
 8004126:	4b20      	ldr	r3, [pc, #128]	; (80041a8 <HAL_RCC_ClockConfig+0x1b8>)
 8004128:	681b      	ldr	r3, [r3, #0]
 800412a:	f003 030f 	and.w	r3, r3, #15
 800412e:	683a      	ldr	r2, [r7, #0]
 8004130:	429a      	cmp	r2, r3
 8004132:	d001      	beq.n	8004138 <HAL_RCC_ClockConfig+0x148>
 8004134:	2301      	movs	r3, #1
 8004136:	e032      	b.n	800419e <HAL_RCC_ClockConfig+0x1ae>
 8004138:	687b      	ldr	r3, [r7, #4]
 800413a:	681b      	ldr	r3, [r3, #0]
 800413c:	f003 0304 	and.w	r3, r3, #4
 8004140:	2b00      	cmp	r3, #0
 8004142:	d008      	beq.n	8004156 <HAL_RCC_ClockConfig+0x166>
 8004144:	4b19      	ldr	r3, [pc, #100]	; (80041ac <HAL_RCC_ClockConfig+0x1bc>)
 8004146:	689b      	ldr	r3, [r3, #8]
 8004148:	f423 52e0 	bic.w	r2, r3, #7168	; 0x1c00
 800414c:	687b      	ldr	r3, [r7, #4]
 800414e:	68db      	ldr	r3, [r3, #12]
 8004150:	4916      	ldr	r1, [pc, #88]	; (80041ac <HAL_RCC_ClockConfig+0x1bc>)
 8004152:	4313      	orrs	r3, r2
 8004154:	608b      	str	r3, [r1, #8]
 8004156:	687b      	ldr	r3, [r7, #4]
 8004158:	681b      	ldr	r3, [r3, #0]
 800415a:	f003 0308 	and.w	r3, r3, #8
 800415e:	2b00      	cmp	r3, #0
 8004160:	d009      	beq.n	8004176 <HAL_RCC_ClockConfig+0x186>
 8004162:	4b12      	ldr	r3, [pc, #72]	; (80041ac <HAL_RCC_ClockConfig+0x1bc>)
 8004164:	689b      	ldr	r3, [r3, #8]
 8004166:	f423 4260 	bic.w	r2, r3, #57344	; 0xe000
 800416a:	687b      	ldr	r3, [r7, #4]
 800416c:	691b      	ldr	r3, [r3, #16]
 800416e:	00db      	lsls	r3, r3, #3
 8004170:	490e      	ldr	r1, [pc, #56]	; (80041ac <HAL_RCC_ClockConfig+0x1bc>)
 8004172:	4313      	orrs	r3, r2
 8004174:	608b      	str	r3, [r1, #8]
 8004176:	f000 f821 	bl	80041bc <HAL_RCC_GetSysClockFreq>
 800417a:	4601      	mov	r1, r0
 800417c:	4b0b      	ldr	r3, [pc, #44]	; (80041ac <HAL_RCC_ClockConfig+0x1bc>)
 800417e:	689b      	ldr	r3, [r3, #8]
 8004180:	091b      	lsrs	r3, r3, #4
 8004182:	f003 030f 	and.w	r3, r3, #15
 8004186:	4a0a      	ldr	r2, [pc, #40]	; (80041b0 <HAL_RCC_ClockConfig+0x1c0>)
 8004188:	5cd3      	ldrb	r3, [r2, r3]
 800418a:	fa21 f303 	lsr.w	r3, r1, r3
 800418e:	4a09      	ldr	r2, [pc, #36]	; (80041b4 <HAL_RCC_ClockConfig+0x1c4>)
 8004190:	6013      	str	r3, [r2, #0]
 8004192:	4b09      	ldr	r3, [pc, #36]	; (80041b8 <HAL_RCC_ClockConfig+0x1c8>)
 8004194:	681b      	ldr	r3, [r3, #0]
 8004196:	4618      	mov	r0, r3
 8004198:	f7fd fe30 	bl	8001dfc <HAL_InitTick>
 800419c:	2300      	movs	r3, #0
 800419e:	4618      	mov	r0, r3
 80041a0:	3710      	adds	r7, #16
 80041a2:	46bd      	mov	sp, r7
 80041a4:	bd80      	pop	{r7, pc}
 80041a6:	bf00      	nop
 80041a8:	40023c00 	.word	0x40023c00
 80041ac:	40023800 	.word	0x40023800
 80041b0:	08009214 	.word	0x08009214
 80041b4:	20000000 	.word	0x20000000
 80041b8:	20000004 	.word	0x20000004

080041bc <HAL_RCC_GetSysClockFreq>:
 80041bc:	b5f0      	push	{r4, r5, r6, r7, lr}
 80041be:	b085      	sub	sp, #20
 80041c0:	af00      	add	r7, sp, #0
 80041c2:	2300      	movs	r3, #0
 80041c4:	607b      	str	r3, [r7, #4]
 80041c6:	2300      	movs	r3, #0
 80041c8:	60fb      	str	r3, [r7, #12]
 80041ca:	2300      	movs	r3, #0
 80041cc:	603b      	str	r3, [r7, #0]
 80041ce:	2300      	movs	r3, #0
 80041d0:	60bb      	str	r3, [r7, #8]
 80041d2:	4b63      	ldr	r3, [pc, #396]	; (8004360 <HAL_RCC_GetSysClockFreq+0x1a4>)
 80041d4:	689b      	ldr	r3, [r3, #8]
 80041d6:	f003 030c 	and.w	r3, r3, #12
 80041da:	2b04      	cmp	r3, #4
 80041dc:	d007      	beq.n	80041ee <HAL_RCC_GetSysClockFreq+0x32>
 80041de:	2b08      	cmp	r3, #8
 80041e0:	d008      	beq.n	80041f4 <HAL_RCC_GetSysClockFreq+0x38>
 80041e2:	2b00      	cmp	r3, #0
 80041e4:	f040 80b4 	bne.w	8004350 <HAL_RCC_GetSysClockFreq+0x194>
 80041e8:	4b5e      	ldr	r3, [pc, #376]	; (8004364 <HAL_RCC_GetSysClockFreq+0x1a8>)
 80041ea:	60bb      	str	r3, [r7, #8]
 80041ec:	e0b3      	b.n	8004356 <HAL_RCC_GetSysClockFreq+0x19a>
 80041ee:	4b5e      	ldr	r3, [pc, #376]	; (8004368 <HAL_RCC_GetSysClockFreq+0x1ac>)
 80041f0:	60bb      	str	r3, [r7, #8]
 80041f2:	e0b0      	b.n	8004356 <HAL_RCC_GetSysClockFreq+0x19a>
 80041f4:	4b5a      	ldr	r3, [pc, #360]	; (8004360 <HAL_RCC_GetSysClockFreq+0x1a4>)
 80041f6:	685b      	ldr	r3, [r3, #4]
 80041f8:	f003 033f 	and.w	r3, r3, #63	; 0x3f
 80041fc:	607b      	str	r3, [r7, #4]
 80041fe:	4b58      	ldr	r3, [pc, #352]	; (8004360 <HAL_RCC_GetSysClockFreq+0x1a4>)
 8004200:	685b      	ldr	r3, [r3, #4]
 8004202:	f403 0380 	and.w	r3, r3, #4194304	; 0x400000
 8004206:	2b00      	cmp	r3, #0
 8004208:	d04a      	beq.n	80042a0 <HAL_RCC_GetSysClockFreq+0xe4>
 800420a:	4b55      	ldr	r3, [pc, #340]	; (8004360 <HAL_RCC_GetSysClockFreq+0x1a4>)
 800420c:	685b      	ldr	r3, [r3, #4]
 800420e:	099b      	lsrs	r3, r3, #6
 8004210:	f04f 0400 	mov.w	r4, #0
 8004214:	f240 11ff 	movw	r1, #511	; 0x1ff
 8004218:	f04f 0200 	mov.w	r2, #0
 800421c:	ea03 0501 	and.w	r5, r3, r1
 8004220:	ea04 0602 	and.w	r6, r4, r2
 8004224:	4629      	mov	r1, r5
 8004226:	4632      	mov	r2, r6
 8004228:	f04f 0300 	mov.w	r3, #0
 800422c:	f04f 0400 	mov.w	r4, #0
 8004230:	0154      	lsls	r4, r2, #5
 8004232:	ea44 64d1 	orr.w	r4, r4, r1, lsr #27
 8004236:	014b      	lsls	r3, r1, #5
 8004238:	4619      	mov	r1, r3
 800423a:	4622      	mov	r2, r4
 800423c:	1b49      	subs	r1, r1, r5
 800423e:	eb62 0206 	sbc.w	r2, r2, r6
 8004242:	f04f 0300 	mov.w	r3, #0
 8004246:	f04f 0400 	mov.w	r4, #0
 800424a:	0194      	lsls	r4, r2, #6
 800424c:	ea44 6491 	orr.w	r4, r4, r1, lsr #26
 8004250:	018b      	lsls	r3, r1, #6
 8004252:	1a5b      	subs	r3, r3, r1
 8004254:	eb64 0402 	sbc.w	r4, r4, r2
 8004258:	f04f 0100 	mov.w	r1, #0
 800425c:	f04f 0200 	mov.w	r2, #0
 8004260:	00e2      	lsls	r2, r4, #3
 8004262:	ea42 7253 	orr.w	r2, r2, r3, lsr #29
 8004266:	00d9      	lsls	r1, r3, #3
 8004268:	460b      	mov	r3, r1
 800426a:	4614      	mov	r4, r2
 800426c:	195b      	adds	r3, r3, r5
 800426e:	eb44 0406 	adc.w	r4, r4, r6
 8004272:	f04f 0100 	mov.w	r1, #0
 8004276:	f04f 0200 	mov.w	r2, #0
 800427a:	0262      	lsls	r2, r4, #9
 800427c:	ea42 52d3 	orr.w	r2, r2, r3, lsr #23
 8004280:	0259      	lsls	r1, r3, #9
 8004282:	460b      	mov	r3, r1
 8004284:	4614      	mov	r4, r2
 8004286:	4618      	mov	r0, r3
 8004288:	4621      	mov	r1, r4
 800428a:	687b      	ldr	r3, [r7, #4]
 800428c:	f04f 0400 	mov.w	r4, #0
 8004290:	461a      	mov	r2, r3
 8004292:	4623      	mov	r3, r4
 8004294:	f7fb ff9c 	bl	80001d0 <__aeabi_uldivmod>
 8004298:	4603      	mov	r3, r0
 800429a:	460c      	mov	r4, r1
 800429c:	60fb      	str	r3, [r7, #12]
 800429e:	e049      	b.n	8004334 <HAL_RCC_GetSysClockFreq+0x178>
 80042a0:	4b2f      	ldr	r3, [pc, #188]	; (8004360 <HAL_RCC_GetSysClockFreq+0x1a4>)
 80042a2:	685b      	ldr	r3, [r3, #4]
 80042a4:	099b      	lsrs	r3, r3, #6
 80042a6:	f04f 0400 	mov.w	r4, #0
 80042aa:	f240 11ff 	movw	r1, #511	; 0x1ff
 80042ae:	f04f 0200 	mov.w	r2, #0
 80042b2:	ea03 0501 	and.w	r5, r3, r1
 80042b6:	ea04 0602 	and.w	r6, r4, r2
 80042ba:	4629      	mov	r1, r5
 80042bc:	4632      	mov	r2, r6
 80042be:	f04f 0300 	mov.w	r3, #0
 80042c2:	f04f 0400 	mov.w	r4, #0
 80042c6:	0154      	lsls	r4, r2, #5
 80042c8:	ea44 64d1 	orr.w	r4, r4, r1, lsr #27
 80042cc:	014b      	lsls	r3, r1, #5
 80042ce:	4619      	mov	r1, r3
 80042d0:	4622      	mov	r2, r4
 80042d2:	1b49      	subs	r1, r1, r5
 80042d4:	eb62 0206 	sbc.w	r2, r2, r6
 80042d8:	f04f 0300 	mov.w	r3, #0
 80042dc:	f04f 0400 	mov.w	r4, #0
 80042e0:	0194      	lsls	r4, r2, #6
 80042e2:	ea44 6491 	orr.w	r4, r4, r1, lsr #26
 80042e6:	018b      	lsls	r3, r1, #6
 80042e8:	1a5b      	subs	r3, r3, r1
 80042ea:	eb64 0402 	sbc.w	r4, r4, r2
 80042ee:	f04f 0100 	mov.w	r1, #0
 80042f2:	f04f 0200 	mov.w	r2, #0
 80042f6:	00e2      	lsls	r2, r4, #3
 80042f8:	ea42 7253 	orr.w	r2, r2, r3, lsr #29
 80042fc:	00d9      	lsls	r1, r3, #3
 80042fe:	460b      	mov	r3, r1
 8004300:	4614      	mov	r4, r2
 8004302:	195b      	adds	r3, r3, r5
 8004304:	eb44 0406 	adc.w	r4, r4, r6
 8004308:	f04f 0100 	mov.w	r1, #0
 800430c:	f04f 0200 	mov.w	r2, #0
 8004310:	02a2      	lsls	r2, r4, #10
 8004312:	ea42 5293 	orr.w	r2, r2, r3, lsr #22
 8004316:	0299      	lsls	r1, r3, #10
 8004318:	460b      	mov	r3, r1
 800431a:	4614      	mov	r4, r2
 800431c:	4618      	mov	r0, r3
 800431e:	4621      	mov	r1, r4
 8004320:	687b      	ldr	r3, [r7, #4]
 8004322:	f04f 0400 	mov.w	r4, #0
 8004326:	461a      	mov	r2, r3
 8004328:	4623      	mov	r3, r4
 800432a:	f7fb ff51 	bl	80001d0 <__aeabi_uldivmod>
 800432e:	4603      	mov	r3, r0
 8004330:	460c      	mov	r4, r1
 8004332:	60fb      	str	r3, [r7, #12]
 8004334:	4b0a      	ldr	r3, [pc, #40]	; (8004360 <HAL_RCC_GetSysClockFreq+0x1a4>)
 8004336:	685b      	ldr	r3, [r3, #4]
 8004338:	0c1b      	lsrs	r3, r3, #16
 800433a:	f003 0303 	and.w	r3, r3, #3
 800433e:	3301      	adds	r3, #1
 8004340:	005b      	lsls	r3, r3, #1
 8004342:	603b      	str	r3, [r7, #0]
 8004344:	68fa      	ldr	r2, [r7, #12]
 8004346:	683b      	ldr	r3, [r7, #0]
 8004348:	fbb2 f3f3 	udiv	r3, r2, r3
 800434c:	60bb      	str	r3, [r7, #8]
 800434e:	e002      	b.n	8004356 <HAL_RCC_GetSysClockFreq+0x19a>
 8004350:	4b04      	ldr	r3, [pc, #16]	; (8004364 <HAL_RCC_GetSysClockFreq+0x1a8>)
 8004352:	60bb      	str	r3, [r7, #8]
 8004354:	bf00      	nop
 8004356:	68bb      	ldr	r3, [r7, #8]
 8004358:	4618      	mov	r0, r3
 800435a:	3714      	adds	r7, #20
 800435c:	46bd      	mov	sp, r7
 800435e:	bdf0      	pop	{r4, r5, r6, r7, pc}
 8004360:	40023800 	.word	0x40023800
 8004364:	00f42400 	.word	0x00f42400
 8004368:	007a1200 	.word	0x007a1200

0800436c <HAL_RCC_GetHCLKFreq>:
 800436c:	b480      	push	{r7}
 800436e:	af00      	add	r7, sp, #0
 8004370:	4b03      	ldr	r3, [pc, #12]	; (8004380 <HAL_RCC_GetHCLKFreq+0x14>)
 8004372:	681b      	ldr	r3, [r3, #0]
 8004374:	4618      	mov	r0, r3
 8004376:	46bd      	mov	sp, r7
 8004378:	f85d 7b04 	ldr.w	r7, [sp], #4
 800437c:	4770      	bx	lr
 800437e:	bf00      	nop
 8004380:	20000000 	.word	0x20000000

08004384 <HAL_RCC_GetPCLK1Freq>:
 8004384:	b580      	push	{r7, lr}
 8004386:	af00      	add	r7, sp, #0
 8004388:	f7ff fff0 	bl	800436c <HAL_RCC_GetHCLKFreq>
 800438c:	4601      	mov	r1, r0
 800438e:	4b05      	ldr	r3, [pc, #20]	; (80043a4 <HAL_RCC_GetPCLK1Freq+0x20>)
 8004390:	689b      	ldr	r3, [r3, #8]
 8004392:	0a9b      	lsrs	r3, r3, #10
 8004394:	f003 0307 	and.w	r3, r3, #7
 8004398:	4a03      	ldr	r2, [pc, #12]	; (80043a8 <HAL_RCC_GetPCLK1Freq+0x24>)
 800439a:	5cd3      	ldrb	r3, [r2, r3]
 800439c:	fa21 f303 	lsr.w	r3, r1, r3
 80043a0:	4618      	mov	r0, r3
 80043a2:	bd80      	pop	{r7, pc}
 80043a4:	40023800 	.word	0x40023800
 80043a8:	08009224 	.word	0x08009224

080043ac <HAL_RCC_GetPCLK2Freq>:
 80043ac:	b580      	push	{r7, lr}
 80043ae:	af00      	add	r7, sp, #0
 80043b0:	f7ff ffdc 	bl	800436c <HAL_RCC_GetHCLKFreq>
 80043b4:	4601      	mov	r1, r0
 80043b6:	4b05      	ldr	r3, [pc, #20]	; (80043cc <HAL_RCC_GetPCLK2Freq+0x20>)
 80043b8:	689b      	ldr	r3, [r3, #8]
 80043ba:	0b5b      	lsrs	r3, r3, #13
 80043bc:	f003 0307 	and.w	r3, r3, #7
 80043c0:	4a03      	ldr	r2, [pc, #12]	; (80043d0 <HAL_RCC_GetPCLK2Freq+0x24>)
 80043c2:	5cd3      	ldrb	r3, [r2, r3]
 80043c4:	fa21 f303 	lsr.w	r3, r1, r3
 80043c8:	4618      	mov	r0, r3
 80043ca:	bd80      	pop	{r7, pc}
 80043cc:	40023800 	.word	0x40023800
 80043d0:	08009224 	.word	0x08009224

080043d4 <HAL_RCC_GetClockConfig>:
 80043d4:	b480      	push	{r7}
 80043d6:	b083      	sub	sp, #12
 80043d8:	af00      	add	r7, sp, #0
 80043da:	6078      	str	r0, [r7, #4]
 80043dc:	6039      	str	r1, [r7, #0]
 80043de:	687b      	ldr	r3, [r7, #4]
 80043e0:	220f      	movs	r2, #15
 80043e2:	601a      	str	r2, [r3, #0]
 80043e4:	4b12      	ldr	r3, [pc, #72]	; (8004430 <HAL_RCC_GetClockConfig+0x5c>)
 80043e6:	689b      	ldr	r3, [r3, #8]
 80043e8:	f003 0203 	and.w	r2, r3, #3
 80043ec:	687b      	ldr	r3, [r7, #4]
 80043ee:	605a      	str	r2, [r3, #4]
 80043f0:	4b0f      	ldr	r3, [pc, #60]	; (8004430 <HAL_RCC_GetClockConfig+0x5c>)
 80043f2:	689b      	ldr	r3, [r3, #8]
 80043f4:	f003 02f0 	and.w	r2, r3, #240	; 0xf0
 80043f8:	687b      	ldr	r3, [r7, #4]
 80043fa:	609a      	str	r2, [r3, #8]
 80043fc:	4b0c      	ldr	r3, [pc, #48]	; (8004430 <HAL_RCC_GetClockConfig+0x5c>)
 80043fe:	689b      	ldr	r3, [r3, #8]
 8004400:	f403 52e0 	and.w	r2, r3, #7168	; 0x1c00
 8004404:	687b      	ldr	r3, [r7, #4]
 8004406:	60da      	str	r2, [r3, #12]
 8004408:	4b09      	ldr	r3, [pc, #36]	; (8004430 <HAL_RCC_GetClockConfig+0x5c>)
 800440a:	689b      	ldr	r3, [r3, #8]
 800440c:	08db      	lsrs	r3, r3, #3
 800440e:	f403 52e0 	and.w	r2, r3, #7168	; 0x1c00
 8004412:	687b      	ldr	r3, [r7, #4]
 8004414:	611a      	str	r2, [r3, #16]
 8004416:	4b07      	ldr	r3, [pc, #28]	; (8004434 <HAL_RCC_GetClockConfig+0x60>)
 8004418:	681b      	ldr	r3, [r3, #0]
 800441a:	f003 020f 	and.w	r2, r3, #15
 800441e:	683b      	ldr	r3, [r7, #0]
 8004420:	601a      	str	r2, [r3, #0]
 8004422:	bf00      	nop
 8004424:	370c      	adds	r7, #12
 8004426:	46bd      	mov	sp, r7
 8004428:	f85d 7b04 	ldr.w	r7, [sp], #4
 800442c:	4770      	bx	lr
 800442e:	bf00      	nop
 8004430:	40023800 	.word	0x40023800
 8004434:	40023c00 	.word	0x40023c00

08004438 <HAL_SPI_Init>:
 8004438:	b580      	push	{r7, lr}
 800443a:	b082      	sub	sp, #8
 800443c:	af00      	add	r7, sp, #0
 800443e:	6078      	str	r0, [r7, #4]
 8004440:	687b      	ldr	r3, [r7, #4]
 8004442:	2b00      	cmp	r3, #0
 8004444:	d101      	bne.n	800444a <HAL_SPI_Init+0x12>
 8004446:	2301      	movs	r3, #1
 8004448:	e056      	b.n	80044f8 <HAL_SPI_Init+0xc0>
 800444a:	687b      	ldr	r3, [r7, #4]
 800444c:	2200      	movs	r2, #0
 800444e:	629a      	str	r2, [r3, #40]	; 0x28
 8004450:	687b      	ldr	r3, [r7, #4]
 8004452:	f893 3051 	ldrb.w	r3, [r3, #81]	; 0x51
 8004456:	b2db      	uxtb	r3, r3
 8004458:	2b00      	cmp	r3, #0
 800445a:	d106      	bne.n	800446a <HAL_SPI_Init+0x32>
 800445c:	687b      	ldr	r3, [r7, #4]
 800445e:	2200      	movs	r2, #0
 8004460:	f883 2050 	strb.w	r2, [r3, #80]	; 0x50
 8004464:	6878      	ldr	r0, [r7, #4]
 8004466:	f7fd fa27 	bl	80018b8 <HAL_SPI_MspInit>
 800446a:	687b      	ldr	r3, [r7, #4]
 800446c:	2202      	movs	r2, #2
 800446e:	f883 2051 	strb.w	r2, [r3, #81]	; 0x51
 8004472:	687b      	ldr	r3, [r7, #4]
 8004474:	681b      	ldr	r3, [r3, #0]
 8004476:	681a      	ldr	r2, [r3, #0]
 8004478:	687b      	ldr	r3, [r7, #4]
 800447a:	681b      	ldr	r3, [r3, #0]
 800447c:	f022 0240 	bic.w	r2, r2, #64	; 0x40
 8004480:	601a      	str	r2, [r3, #0]
 8004482:	687b      	ldr	r3, [r7, #4]
 8004484:	685a      	ldr	r2, [r3, #4]
 8004486:	687b      	ldr	r3, [r7, #4]
 8004488:	689b      	ldr	r3, [r3, #8]
 800448a:	431a      	orrs	r2, r3
 800448c:	687b      	ldr	r3, [r7, #4]
 800448e:	68db      	ldr	r3, [r3, #12]
 8004490:	431a      	orrs	r2, r3
 8004492:	687b      	ldr	r3, [r7, #4]
 8004494:	691b      	ldr	r3, [r3, #16]
 8004496:	431a      	orrs	r2, r3
 8004498:	687b      	ldr	r3, [r7, #4]
 800449a:	695b      	ldr	r3, [r3, #20]
 800449c:	431a      	orrs	r2, r3
 800449e:	687b      	ldr	r3, [r7, #4]
 80044a0:	699b      	ldr	r3, [r3, #24]
 80044a2:	f403 7300 	and.w	r3, r3, #512	; 0x200
 80044a6:	431a      	orrs	r2, r3
 80044a8:	687b      	ldr	r3, [r7, #4]
 80044aa:	69db      	ldr	r3, [r3, #28]
 80044ac:	431a      	orrs	r2, r3
 80044ae:	687b      	ldr	r3, [r7, #4]
 80044b0:	6a1b      	ldr	r3, [r3, #32]
 80044b2:	ea42 0103 	orr.w	r1, r2, r3
 80044b6:	687b      	ldr	r3, [r7, #4]
 80044b8:	6a9a      	ldr	r2, [r3, #40]	; 0x28
 80044ba:	687b      	ldr	r3, [r7, #4]
 80044bc:	681b      	ldr	r3, [r3, #0]
 80044be:	430a      	orrs	r2, r1
 80044c0:	601a      	str	r2, [r3, #0]
 80044c2:	687b      	ldr	r3, [r7, #4]
 80044c4:	699b      	ldr	r3, [r3, #24]
 80044c6:	0c1b      	lsrs	r3, r3, #16
 80044c8:	f003 0104 	and.w	r1, r3, #4
 80044cc:	687b      	ldr	r3, [r7, #4]
 80044ce:	6a5a      	ldr	r2, [r3, #36]	; 0x24
 80044d0:	687b      	ldr	r3, [r7, #4]
 80044d2:	681b      	ldr	r3, [r3, #0]
 80044d4:	430a      	orrs	r2, r1
 80044d6:	605a      	str	r2, [r3, #4]
 80044d8:	687b      	ldr	r3, [r7, #4]
 80044da:	681b      	ldr	r3, [r3, #0]
 80044dc:	69da      	ldr	r2, [r3, #28]
 80044de:	687b      	ldr	r3, [r7, #4]
 80044e0:	681b      	ldr	r3, [r3, #0]
 80044e2:	f422 6200 	bic.w	r2, r2, #2048	; 0x800
 80044e6:	61da      	str	r2, [r3, #28]
 80044e8:	687b      	ldr	r3, [r7, #4]
 80044ea:	2200      	movs	r2, #0
 80044ec:	655a      	str	r2, [r3, #84]	; 0x54
 80044ee:	687b      	ldr	r3, [r7, #4]
 80044f0:	2201      	movs	r2, #1
 80044f2:	f883 2051 	strb.w	r2, [r3, #81]	; 0x51
 80044f6:	2300      	movs	r3, #0
 80044f8:	4618      	mov	r0, r3
 80044fa:	3708      	adds	r7, #8
 80044fc:	46bd      	mov	sp, r7
 80044fe:	bd80      	pop	{r7, pc}

08004500 <HAL_TIM_Base_Init>:
 8004500:	b580      	push	{r7, lr}
 8004502:	b082      	sub	sp, #8
 8004504:	af00      	add	r7, sp, #0
 8004506:	6078      	str	r0, [r7, #4]
 8004508:	687b      	ldr	r3, [r7, #4]
 800450a:	2b00      	cmp	r3, #0
 800450c:	d101      	bne.n	8004512 <HAL_TIM_Base_Init+0x12>
 800450e:	2301      	movs	r3, #1
 8004510:	e01d      	b.n	800454e <HAL_TIM_Base_Init+0x4e>
 8004512:	687b      	ldr	r3, [r7, #4]
 8004514:	f893 303d 	ldrb.w	r3, [r3, #61]	; 0x3d
 8004518:	b2db      	uxtb	r3, r3
 800451a:	2b00      	cmp	r3, #0
 800451c:	d106      	bne.n	800452c <HAL_TIM_Base_Init+0x2c>
 800451e:	687b      	ldr	r3, [r7, #4]
 8004520:	2200      	movs	r2, #0
 8004522:	f883 203c 	strb.w	r2, [r3, #60]	; 0x3c
 8004526:	6878      	ldr	r0, [r7, #4]
 8004528:	f7fd fa7c 	bl	8001a24 <HAL_TIM_Base_MspInit>
 800452c:	687b      	ldr	r3, [r7, #4]
 800452e:	2202      	movs	r2, #2
 8004530:	f883 203d 	strb.w	r2, [r3, #61]	; 0x3d
 8004534:	687b      	ldr	r3, [r7, #4]
 8004536:	681a      	ldr	r2, [r3, #0]
 8004538:	687b      	ldr	r3, [r7, #4]
 800453a:	3304      	adds	r3, #4
 800453c:	4619      	mov	r1, r3
 800453e:	4610      	mov	r0, r2
 8004540:	f000 fb9c 	bl	8004c7c <TIM_Base_SetConfig>
 8004544:	687b      	ldr	r3, [r7, #4]
 8004546:	2201      	movs	r2, #1
 8004548:	f883 203d 	strb.w	r2, [r3, #61]	; 0x3d
 800454c:	2300      	movs	r3, #0
 800454e:	4618      	mov	r0, r3
 8004550:	3708      	adds	r7, #8
 8004552:	46bd      	mov	sp, r7
 8004554:	bd80      	pop	{r7, pc}

08004556 <HAL_TIM_Base_Start_IT>:
 8004556:	b480      	push	{r7}
 8004558:	b085      	sub	sp, #20
 800455a:	af00      	add	r7, sp, #0
 800455c:	6078      	str	r0, [r7, #4]
 800455e:	687b      	ldr	r3, [r7, #4]
 8004560:	681b      	ldr	r3, [r3, #0]
 8004562:	68da      	ldr	r2, [r3, #12]
 8004564:	687b      	ldr	r3, [r7, #4]
 8004566:	681b      	ldr	r3, [r3, #0]
 8004568:	f042 0201 	orr.w	r2, r2, #1
 800456c:	60da      	str	r2, [r3, #12]
 800456e:	687b      	ldr	r3, [r7, #4]
 8004570:	681b      	ldr	r3, [r3, #0]
 8004572:	689b      	ldr	r3, [r3, #8]
 8004574:	f003 0307 	and.w	r3, r3, #7
 8004578:	60fb      	str	r3, [r7, #12]
 800457a:	68fb      	ldr	r3, [r7, #12]
 800457c:	2b06      	cmp	r3, #6
 800457e:	d007      	beq.n	8004590 <HAL_TIM_Base_Start_IT+0x3a>
 8004580:	687b      	ldr	r3, [r7, #4]
 8004582:	681b      	ldr	r3, [r3, #0]
 8004584:	681a      	ldr	r2, [r3, #0]
 8004586:	687b      	ldr	r3, [r7, #4]
 8004588:	681b      	ldr	r3, [r3, #0]
 800458a:	f042 0201 	orr.w	r2, r2, #1
 800458e:	601a      	str	r2, [r3, #0]
 8004590:	2300      	movs	r3, #0
 8004592:	4618      	mov	r0, r3
 8004594:	3714      	adds	r7, #20
 8004596:	46bd      	mov	sp, r7
 8004598:	f85d 7b04 	ldr.w	r7, [sp], #4
 800459c:	4770      	bx	lr

0800459e <HAL_TIM_PWM_Init>:
 800459e:	b580      	push	{r7, lr}
 80045a0:	b082      	sub	sp, #8
 80045a2:	af00      	add	r7, sp, #0
 80045a4:	6078      	str	r0, [r7, #4]
 80045a6:	687b      	ldr	r3, [r7, #4]
 80045a8:	2b00      	cmp	r3, #0
 80045aa:	d101      	bne.n	80045b0 <HAL_TIM_PWM_Init+0x12>
 80045ac:	2301      	movs	r3, #1
 80045ae:	e01d      	b.n	80045ec <HAL_TIM_PWM_Init+0x4e>
 80045b0:	687b      	ldr	r3, [r7, #4]
 80045b2:	f893 303d 	ldrb.w	r3, [r3, #61]	; 0x3d
 80045b6:	b2db      	uxtb	r3, r3
 80045b8:	2b00      	cmp	r3, #0
 80045ba:	d106      	bne.n	80045ca <HAL_TIM_PWM_Init+0x2c>
 80045bc:	687b      	ldr	r3, [r7, #4]
 80045be:	2200      	movs	r2, #0
 80045c0:	f883 203c 	strb.w	r2, [r3, #60]	; 0x3c
 80045c4:	6878      	ldr	r0, [r7, #4]
 80045c6:	f7fd fa4d 	bl	8001a64 <HAL_TIM_PWM_MspInit>
 80045ca:	687b      	ldr	r3, [r7, #4]
 80045cc:	2202      	movs	r2, #2
 80045ce:	f883 203d 	strb.w	r2, [r3, #61]	; 0x3d
 80045d2:	687b      	ldr	r3, [r7, #4]
 80045d4:	681a      	ldr	r2, [r3, #0]
 80045d6:	687b      	ldr	r3, [r7, #4]
 80045d8:	3304      	adds	r3, #4
 80045da:	4619      	mov	r1, r3
 80045dc:	4610      	mov	r0, r2
 80045de:	f000 fb4d 	bl	8004c7c <TIM_Base_SetConfig>
 80045e2:	687b      	ldr	r3, [r7, #4]
 80045e4:	2201      	movs	r2, #1
 80045e6:	f883 203d 	strb.w	r2, [r3, #61]	; 0x3d
 80045ea:	2300      	movs	r3, #0
 80045ec:	4618      	mov	r0, r3
 80045ee:	3708      	adds	r7, #8
 80045f0:	46bd      	mov	sp, r7
 80045f2:	bd80      	pop	{r7, pc}

080045f4 <HAL_TIM_PWM_Start>:
 80045f4:	b580      	push	{r7, lr}
 80045f6:	b084      	sub	sp, #16
 80045f8:	af00      	add	r7, sp, #0
 80045fa:	6078      	str	r0, [r7, #4]
 80045fc:	6039      	str	r1, [r7, #0]
 80045fe:	687b      	ldr	r3, [r7, #4]
 8004600:	681b      	ldr	r3, [r3, #0]
 8004602:	2201      	movs	r2, #1
 8004604:	6839      	ldr	r1, [r7, #0]
 8004606:	4618      	mov	r0, r3
 8004608:	f000 fe22 	bl	8005250 <TIM_CCxChannelCmd>
 800460c:	687b      	ldr	r3, [r7, #4]
 800460e:	681b      	ldr	r3, [r3, #0]
 8004610:	4a15      	ldr	r2, [pc, #84]	; (8004668 <HAL_TIM_PWM_Start+0x74>)
 8004612:	4293      	cmp	r3, r2
 8004614:	d004      	beq.n	8004620 <HAL_TIM_PWM_Start+0x2c>
 8004616:	687b      	ldr	r3, [r7, #4]
 8004618:	681b      	ldr	r3, [r3, #0]
 800461a:	4a14      	ldr	r2, [pc, #80]	; (800466c <HAL_TIM_PWM_Start+0x78>)
 800461c:	4293      	cmp	r3, r2
 800461e:	d101      	bne.n	8004624 <HAL_TIM_PWM_Start+0x30>
 8004620:	2301      	movs	r3, #1
 8004622:	e000      	b.n	8004626 <HAL_TIM_PWM_Start+0x32>
 8004624:	2300      	movs	r3, #0
 8004626:	2b00      	cmp	r3, #0
 8004628:	d007      	beq.n	800463a <HAL_TIM_PWM_Start+0x46>
 800462a:	687b      	ldr	r3, [r7, #4]
 800462c:	681b      	ldr	r3, [r3, #0]
 800462e:	6c5a      	ldr	r2, [r3, #68]	; 0x44
 8004630:	687b      	ldr	r3, [r7, #4]
 8004632:	681b      	ldr	r3, [r3, #0]
 8004634:	f442 4200 	orr.w	r2, r2, #32768	; 0x8000
 8004638:	645a      	str	r2, [r3, #68]	; 0x44
 800463a:	687b      	ldr	r3, [r7, #4]
 800463c:	681b      	ldr	r3, [r3, #0]
 800463e:	689b      	ldr	r3, [r3, #8]
 8004640:	f003 0307 	and.w	r3, r3, #7
 8004644:	60fb      	str	r3, [r7, #12]
 8004646:	68fb      	ldr	r3, [r7, #12]
 8004648:	2b06      	cmp	r3, #6
 800464a:	d007      	beq.n	800465c <HAL_TIM_PWM_Start+0x68>
 800464c:	687b      	ldr	r3, [r7, #4]
 800464e:	681b      	ldr	r3, [r3, #0]
 8004650:	681a      	ldr	r2, [r3, #0]
 8004652:	687b      	ldr	r3, [r7, #4]
 8004654:	681b      	ldr	r3, [r3, #0]
 8004656:	f042 0201 	orr.w	r2, r2, #1
 800465a:	601a      	str	r2, [r3, #0]
 800465c:	2300      	movs	r3, #0
 800465e:	4618      	mov	r0, r3
 8004660:	3710      	adds	r7, #16
 8004662:	46bd      	mov	sp, r7
 8004664:	bd80      	pop	{r7, pc}
 8004666:	bf00      	nop
 8004668:	40010000 	.word	0x40010000
 800466c:	40010400 	.word	0x40010400

08004670 <HAL_TIM_PWM_Stop>:
 8004670:	b580      	push	{r7, lr}
 8004672:	b082      	sub	sp, #8
 8004674:	af00      	add	r7, sp, #0
 8004676:	6078      	str	r0, [r7, #4]
 8004678:	6039      	str	r1, [r7, #0]
 800467a:	687b      	ldr	r3, [r7, #4]
 800467c:	681b      	ldr	r3, [r3, #0]
 800467e:	2200      	movs	r2, #0
 8004680:	6839      	ldr	r1, [r7, #0]
 8004682:	4618      	mov	r0, r3
 8004684:	f000 fde4 	bl	8005250 <TIM_CCxChannelCmd>
 8004688:	687b      	ldr	r3, [r7, #4]
 800468a:	681b      	ldr	r3, [r3, #0]
 800468c:	4a22      	ldr	r2, [pc, #136]	; (8004718 <HAL_TIM_PWM_Stop+0xa8>)
 800468e:	4293      	cmp	r3, r2
 8004690:	d004      	beq.n	800469c <HAL_TIM_PWM_Stop+0x2c>
 8004692:	687b      	ldr	r3, [r7, #4]
 8004694:	681b      	ldr	r3, [r3, #0]
 8004696:	4a21      	ldr	r2, [pc, #132]	; (800471c <HAL_TIM_PWM_Stop+0xac>)
 8004698:	4293      	cmp	r3, r2
 800469a:	d101      	bne.n	80046a0 <HAL_TIM_PWM_Stop+0x30>
 800469c:	2301      	movs	r3, #1
 800469e:	e000      	b.n	80046a2 <HAL_TIM_PWM_Stop+0x32>
 80046a0:	2300      	movs	r3, #0
 80046a2:	2b00      	cmp	r3, #0
 80046a4:	d017      	beq.n	80046d6 <HAL_TIM_PWM_Stop+0x66>
 80046a6:	687b      	ldr	r3, [r7, #4]
 80046a8:	681b      	ldr	r3, [r3, #0]
 80046aa:	6a1a      	ldr	r2, [r3, #32]
 80046ac:	f241 1311 	movw	r3, #4369	; 0x1111
 80046b0:	4013      	ands	r3, r2
 80046b2:	2b00      	cmp	r3, #0
 80046b4:	d10f      	bne.n	80046d6 <HAL_TIM_PWM_Stop+0x66>
 80046b6:	687b      	ldr	r3, [r7, #4]
 80046b8:	681b      	ldr	r3, [r3, #0]
 80046ba:	6a1a      	ldr	r2, [r3, #32]
 80046bc:	f240 4344 	movw	r3, #1092	; 0x444
 80046c0:	4013      	ands	r3, r2
 80046c2:	2b00      	cmp	r3, #0
 80046c4:	d107      	bne.n	80046d6 <HAL_TIM_PWM_Stop+0x66>
 80046c6:	687b      	ldr	r3, [r7, #4]
 80046c8:	681b      	ldr	r3, [r3, #0]
 80046ca:	6c5a      	ldr	r2, [r3, #68]	; 0x44
 80046cc:	687b      	ldr	r3, [r7, #4]
 80046ce:	681b      	ldr	r3, [r3, #0]
 80046d0:	f422 4200 	bic.w	r2, r2, #32768	; 0x8000
 80046d4:	645a      	str	r2, [r3, #68]	; 0x44
 80046d6:	687b      	ldr	r3, [r7, #4]
 80046d8:	681b      	ldr	r3, [r3, #0]
 80046da:	6a1a      	ldr	r2, [r3, #32]
 80046dc:	f241 1311 	movw	r3, #4369	; 0x1111
 80046e0:	4013      	ands	r3, r2
 80046e2:	2b00      	cmp	r3, #0
 80046e4:	d10f      	bne.n	8004706 <HAL_TIM_PWM_Stop+0x96>
 80046e6:	687b      	ldr	r3, [r7, #4]
 80046e8:	681b      	ldr	r3, [r3, #0]
 80046ea:	6a1a      	ldr	r2, [r3, #32]
 80046ec:	f240 4344 	movw	r3, #1092	; 0x444
 80046f0:	4013      	ands	r3, r2
 80046f2:	2b00      	cmp	r3, #0
 80046f4:	d107      	bne.n	8004706 <HAL_TIM_PWM_Stop+0x96>
 80046f6:	687b      	ldr	r3, [r7, #4]
 80046f8:	681b      	ldr	r3, [r3, #0]
 80046fa:	681a      	ldr	r2, [r3, #0]
 80046fc:	687b      	ldr	r3, [r7, #4]
 80046fe:	681b      	ldr	r3, [r3, #0]
 8004700:	f022 0201 	bic.w	r2, r2, #1
 8004704:	601a      	str	r2, [r3, #0]
 8004706:	687b      	ldr	r3, [r7, #4]
 8004708:	2201      	movs	r2, #1
 800470a:	f883 203d 	strb.w	r2, [r3, #61]	; 0x3d
 800470e:	2300      	movs	r3, #0
 8004710:	4618      	mov	r0, r3
 8004712:	3708      	adds	r7, #8
 8004714:	46bd      	mov	sp, r7
 8004716:	bd80      	pop	{r7, pc}
 8004718:	40010000 	.word	0x40010000
 800471c:	40010400 	.word	0x40010400

08004720 <HAL_TIM_IRQHandler>:
 8004720:	b580      	push	{r7, lr}
 8004722:	b082      	sub	sp, #8
 8004724:	af00      	add	r7, sp, #0
 8004726:	6078      	str	r0, [r7, #4]
 8004728:	687b      	ldr	r3, [r7, #4]
 800472a:	681b      	ldr	r3, [r3, #0]
 800472c:	691b      	ldr	r3, [r3, #16]
 800472e:	f003 0302 	and.w	r3, r3, #2
 8004732:	2b02      	cmp	r3, #2
 8004734:	d122      	bne.n	800477c <HAL_TIM_IRQHandler+0x5c>
 8004736:	687b      	ldr	r3, [r7, #4]
 8004738:	681b      	ldr	r3, [r3, #0]
 800473a:	68db      	ldr	r3, [r3, #12]
 800473c:	f003 0302 	and.w	r3, r3, #2
 8004740:	2b02      	cmp	r3, #2
 8004742:	d11b      	bne.n	800477c <HAL_TIM_IRQHandler+0x5c>
 8004744:	687b      	ldr	r3, [r7, #4]
 8004746:	681b      	ldr	r3, [r3, #0]
 8004748:	f06f 0202 	mvn.w	r2, #2
 800474c:	611a      	str	r2, [r3, #16]
 800474e:	687b      	ldr	r3, [r7, #4]
 8004750:	2201      	movs	r2, #1
 8004752:	771a      	strb	r2, [r3, #28]
 8004754:	687b      	ldr	r3, [r7, #4]
 8004756:	681b      	ldr	r3, [r3, #0]
 8004758:	699b      	ldr	r3, [r3, #24]
 800475a:	f003 0303 	and.w	r3, r3, #3
 800475e:	2b00      	cmp	r3, #0
 8004760:	d003      	beq.n	800476a <HAL_TIM_IRQHandler+0x4a>
 8004762:	6878      	ldr	r0, [r7, #4]
 8004764:	f000 fa6b 	bl	8004c3e <HAL_TIM_IC_CaptureCallback>
 8004768:	e005      	b.n	8004776 <HAL_TIM_IRQHandler+0x56>
 800476a:	6878      	ldr	r0, [r7, #4]
 800476c:	f000 fa5d 	bl	8004c2a <HAL_TIM_OC_DelayElapsedCallback>
 8004770:	6878      	ldr	r0, [r7, #4]
 8004772:	f000 fa6e 	bl	8004c52 <HAL_TIM_PWM_PulseFinishedCallback>
 8004776:	687b      	ldr	r3, [r7, #4]
 8004778:	2200      	movs	r2, #0
 800477a:	771a      	strb	r2, [r3, #28]
 800477c:	687b      	ldr	r3, [r7, #4]
 800477e:	681b      	ldr	r3, [r3, #0]
 8004780:	691b      	ldr	r3, [r3, #16]
 8004782:	f003 0304 	and.w	r3, r3, #4
 8004786:	2b04      	cmp	r3, #4
 8004788:	d122      	bne.n	80047d0 <HAL_TIM_IRQHandler+0xb0>
 800478a:	687b      	ldr	r3, [r7, #4]
 800478c:	681b      	ldr	r3, [r3, #0]
 800478e:	68db      	ldr	r3, [r3, #12]
 8004790:	f003 0304 	and.w	r3, r3, #4
 8004794:	2b04      	cmp	r3, #4
 8004796:	d11b      	bne.n	80047d0 <HAL_TIM_IRQHandler+0xb0>
 8004798:	687b      	ldr	r3, [r7, #4]
 800479a:	681b      	ldr	r3, [r3, #0]
 800479c:	f06f 0204 	mvn.w	r2, #4
 80047a0:	611a      	str	r2, [r3, #16]
 80047a2:	687b      	ldr	r3, [r7, #4]
 80047a4:	2202      	movs	r2, #2
 80047a6:	771a      	strb	r2, [r3, #28]
 80047a8:	687b      	ldr	r3, [r7, #4]
 80047aa:	681b      	ldr	r3, [r3, #0]
 80047ac:	699b      	ldr	r3, [r3, #24]
 80047ae:	f403 7340 	and.w	r3, r3, #768	; 0x300
 80047b2:	2b00      	cmp	r3, #0
 80047b4:	d003      	beq.n	80047be <HAL_TIM_IRQHandler+0x9e>
 80047b6:	6878      	ldr	r0, [r7, #4]
 80047b8:	f000 fa41 	bl	8004c3e <HAL_TIM_IC_CaptureCallback>
 80047bc:	e005      	b.n	80047ca <HAL_TIM_IRQHandler+0xaa>
 80047be:	6878      	ldr	r0, [r7, #4]
 80047c0:	f000 fa33 	bl	8004c2a <HAL_TIM_OC_DelayElapsedCallback>
 80047c4:	6878      	ldr	r0, [r7, #4]
 80047c6:	f000 fa44 	bl	8004c52 <HAL_TIM_PWM_PulseFinishedCallback>
 80047ca:	687b      	ldr	r3, [r7, #4]
 80047cc:	2200      	movs	r2, #0
 80047ce:	771a      	strb	r2, [r3, #28]
 80047d0:	687b      	ldr	r3, [r7, #4]
 80047d2:	681b      	ldr	r3, [r3, #0]
 80047d4:	691b      	ldr	r3, [r3, #16]
 80047d6:	f003 0308 	and.w	r3, r3, #8
 80047da:	2b08      	cmp	r3, #8
 80047dc:	d122      	bne.n	8004824 <HAL_TIM_IRQHandler+0x104>
 80047de:	687b      	ldr	r3, [r7, #4]
 80047e0:	681b      	ldr	r3, [r3, #0]
 80047e2:	68db      	ldr	r3, [r3, #12]
 80047e4:	f003 0308 	and.w	r3, r3, #8
 80047e8:	2b08      	cmp	r3, #8
 80047ea:	d11b      	bne.n	8004824 <HAL_TIM_IRQHandler+0x104>
 80047ec:	687b      	ldr	r3, [r7, #4]
 80047ee:	681b      	ldr	r3, [r3, #0]
 80047f0:	f06f 0208 	mvn.w	r2, #8
 80047f4:	611a      	str	r2, [r3, #16]
 80047f6:	687b      	ldr	r3, [r7, #4]
 80047f8:	2204      	movs	r2, #4
 80047fa:	771a      	strb	r2, [r3, #28]
 80047fc:	687b      	ldr	r3, [r7, #4]
 80047fe:	681b      	ldr	r3, [r3, #0]
 8004800:	69db      	ldr	r3, [r3, #28]
 8004802:	f003 0303 	and.w	r3, r3, #3
 8004806:	2b00      	cmp	r3, #0
 8004808:	d003      	beq.n	8004812 <HAL_TIM_IRQHandler+0xf2>
 800480a:	6878      	ldr	r0, [r7, #4]
 800480c:	f000 fa17 	bl	8004c3e <HAL_TIM_IC_CaptureCallback>
 8004810:	e005      	b.n	800481e <HAL_TIM_IRQHandler+0xfe>
 8004812:	6878      	ldr	r0, [r7, #4]
 8004814:	f000 fa09 	bl	8004c2a <HAL_TIM_OC_DelayElapsedCallback>
 8004818:	6878      	ldr	r0, [r7, #4]
 800481a:	f000 fa1a 	bl	8004c52 <HAL_TIM_PWM_PulseFinishedCallback>
 800481e:	687b      	ldr	r3, [r7, #4]
 8004820:	2200      	movs	r2, #0
 8004822:	771a      	strb	r2, [r3, #28]
 8004824:	687b      	ldr	r3, [r7, #4]
 8004826:	681b      	ldr	r3, [r3, #0]
 8004828:	691b      	ldr	r3, [r3, #16]
 800482a:	f003 0310 	and.w	r3, r3, #16
 800482e:	2b10      	cmp	r3, #16
 8004830:	d122      	bne.n	8004878 <HAL_TIM_IRQHandler+0x158>
 8004832:	687b      	ldr	r3, [r7, #4]
 8004834:	681b      	ldr	r3, [r3, #0]
 8004836:	68db      	ldr	r3, [r3, #12]
 8004838:	f003 0310 	and.w	r3, r3, #16
 800483c:	2b10      	cmp	r3, #16
 800483e:	d11b      	bne.n	8004878 <HAL_TIM_IRQHandler+0x158>
 8004840:	687b      	ldr	r3, [r7, #4]
 8004842:	681b      	ldr	r3, [r3, #0]
 8004844:	f06f 0210 	mvn.w	r2, #16
 8004848:	611a      	str	r2, [r3, #16]
 800484a:	687b      	ldr	r3, [r7, #4]
 800484c:	2208      	movs	r2, #8
 800484e:	771a      	strb	r2, [r3, #28]
 8004850:	687b      	ldr	r3, [r7, #4]
 8004852:	681b      	ldr	r3, [r3, #0]
 8004854:	69db      	ldr	r3, [r3, #28]
 8004856:	f403 7340 	and.w	r3, r3, #768	; 0x300
 800485a:	2b00      	cmp	r3, #0
 800485c:	d003      	beq.n	8004866 <HAL_TIM_IRQHandler+0x146>
 800485e:	6878      	ldr	r0, [r7, #4]
 8004860:	f000 f9ed 	bl	8004c3e <HAL_TIM_IC_CaptureCallback>
 8004864:	e005      	b.n	8004872 <HAL_TIM_IRQHandler+0x152>
 8004866:	6878      	ldr	r0, [r7, #4]
 8004868:	f000 f9df 	bl	8004c2a <HAL_TIM_OC_DelayElapsedCallback>
 800486c:	6878      	ldr	r0, [r7, #4]
 800486e:	f000 f9f0 	bl	8004c52 <HAL_TIM_PWM_PulseFinishedCallback>
 8004872:	687b      	ldr	r3, [r7, #4]
 8004874:	2200      	movs	r2, #0
 8004876:	771a      	strb	r2, [r3, #28]
 8004878:	687b      	ldr	r3, [r7, #4]
 800487a:	681b      	ldr	r3, [r3, #0]
 800487c:	691b      	ldr	r3, [r3, #16]
 800487e:	f003 0301 	and.w	r3, r3, #1
 8004882:	2b01      	cmp	r3, #1
 8004884:	d10e      	bne.n	80048a4 <HAL_TIM_IRQHandler+0x184>
 8004886:	687b      	ldr	r3, [r7, #4]
 8004888:	681b      	ldr	r3, [r3, #0]
 800488a:	68db      	ldr	r3, [r3, #12]
 800488c:	f003 0301 	and.w	r3, r3, #1
 8004890:	2b01      	cmp	r3, #1
 8004892:	d107      	bne.n	80048a4 <HAL_TIM_IRQHandler+0x184>
 8004894:	687b      	ldr	r3, [r7, #4]
 8004896:	681b      	ldr	r3, [r3, #0]
 8004898:	f06f 0201 	mvn.w	r2, #1
 800489c:	611a      	str	r2, [r3, #16]
 800489e:	6878      	ldr	r0, [r7, #4]
 80048a0:	f7fc ff28 	bl	80016f4 <HAL_TIM_PeriodElapsedCallback>
 80048a4:	687b      	ldr	r3, [r7, #4]
 80048a6:	681b      	ldr	r3, [r3, #0]
 80048a8:	691b      	ldr	r3, [r3, #16]
 80048aa:	f003 0380 	and.w	r3, r3, #128	; 0x80
 80048ae:	2b80      	cmp	r3, #128	; 0x80
 80048b0:	d10e      	bne.n	80048d0 <HAL_TIM_IRQHandler+0x1b0>
 80048b2:	687b      	ldr	r3, [r7, #4]
 80048b4:	681b      	ldr	r3, [r3, #0]
 80048b6:	68db      	ldr	r3, [r3, #12]
 80048b8:	f003 0380 	and.w	r3, r3, #128	; 0x80
 80048bc:	2b80      	cmp	r3, #128	; 0x80
 80048be:	d107      	bne.n	80048d0 <HAL_TIM_IRQHandler+0x1b0>
 80048c0:	687b      	ldr	r3, [r7, #4]
 80048c2:	681b      	ldr	r3, [r3, #0]
 80048c4:	f06f 0280 	mvn.w	r2, #128	; 0x80
 80048c8:	611a      	str	r2, [r3, #16]
 80048ca:	6878      	ldr	r0, [r7, #4]
 80048cc:	f000 fd6c 	bl	80053a8 <HAL_TIMEx_BreakCallback>
 80048d0:	687b      	ldr	r3, [r7, #4]
 80048d2:	681b      	ldr	r3, [r3, #0]
 80048d4:	691b      	ldr	r3, [r3, #16]
 80048d6:	f003 0340 	and.w	r3, r3, #64	; 0x40
 80048da:	2b40      	cmp	r3, #64	; 0x40
 80048dc:	d10e      	bne.n	80048fc <HAL_TIM_IRQHandler+0x1dc>
 80048de:	687b      	ldr	r3, [r7, #4]
 80048e0:	681b      	ldr	r3, [r3, #0]
 80048e2:	68db      	ldr	r3, [r3, #12]
 80048e4:	f003 0340 	and.w	r3, r3, #64	; 0x40
 80048e8:	2b40      	cmp	r3, #64	; 0x40
 80048ea:	d107      	bne.n	80048fc <HAL_TIM_IRQHandler+0x1dc>
 80048ec:	687b      	ldr	r3, [r7, #4]
 80048ee:	681b      	ldr	r3, [r3, #0]
 80048f0:	f06f 0240 	mvn.w	r2, #64	; 0x40
 80048f4:	611a      	str	r2, [r3, #16]
 80048f6:	6878      	ldr	r0, [r7, #4]
 80048f8:	f000 f9b5 	bl	8004c66 <HAL_TIM_TriggerCallback>
 80048fc:	687b      	ldr	r3, [r7, #4]
 80048fe:	681b      	ldr	r3, [r3, #0]
 8004900:	691b      	ldr	r3, [r3, #16]
 8004902:	f003 0320 	and.w	r3, r3, #32
 8004906:	2b20      	cmp	r3, #32
 8004908:	d10e      	bne.n	8004928 <HAL_TIM_IRQHandler+0x208>
 800490a:	687b      	ldr	r3, [r7, #4]
 800490c:	681b      	ldr	r3, [r3, #0]
 800490e:	68db      	ldr	r3, [r3, #12]
 8004910:	f003 0320 	and.w	r3, r3, #32
 8004914:	2b20      	cmp	r3, #32
 8004916:	d107      	bne.n	8004928 <HAL_TIM_IRQHandler+0x208>
 8004918:	687b      	ldr	r3, [r7, #4]
 800491a:	681b      	ldr	r3, [r3, #0]
 800491c:	f06f 0220 	mvn.w	r2, #32
 8004920:	611a      	str	r2, [r3, #16]
 8004922:	6878      	ldr	r0, [r7, #4]
 8004924:	f000 fd36 	bl	8005394 <HAL_TIMEx_CommutCallback>
 8004928:	bf00      	nop
 800492a:	3708      	adds	r7, #8
 800492c:	46bd      	mov	sp, r7
 800492e:	bd80      	pop	{r7, pc}

08004930 <HAL_TIM_PWM_ConfigChannel>:
 8004930:	b580      	push	{r7, lr}
 8004932:	b084      	sub	sp, #16
 8004934:	af00      	add	r7, sp, #0
 8004936:	60f8      	str	r0, [r7, #12]
 8004938:	60b9      	str	r1, [r7, #8]
 800493a:	607a      	str	r2, [r7, #4]
 800493c:	68fb      	ldr	r3, [r7, #12]
 800493e:	f893 303c 	ldrb.w	r3, [r3, #60]	; 0x3c
 8004942:	2b01      	cmp	r3, #1
 8004944:	d101      	bne.n	800494a <HAL_TIM_PWM_ConfigChannel+0x1a>
 8004946:	2302      	movs	r3, #2
 8004948:	e0b4      	b.n	8004ab4 <HAL_TIM_PWM_ConfigChannel+0x184>
 800494a:	68fb      	ldr	r3, [r7, #12]
 800494c:	2201      	movs	r2, #1
 800494e:	f883 203c 	strb.w	r2, [r3, #60]	; 0x3c
 8004952:	68fb      	ldr	r3, [r7, #12]
 8004954:	2202      	movs	r2, #2
 8004956:	f883 203d 	strb.w	r2, [r3, #61]	; 0x3d
 800495a:	687b      	ldr	r3, [r7, #4]
 800495c:	2b0c      	cmp	r3, #12
 800495e:	f200 809f 	bhi.w	8004aa0 <HAL_TIM_PWM_ConfigChannel+0x170>
 8004962:	a201      	add	r2, pc, #4	; (adr r2, 8004968 <HAL_TIM_PWM_ConfigChannel+0x38>)
 8004964:	f852 f023 	ldr.w	pc, [r2, r3, lsl #2]
 8004968:	0800499d 	.word	0x0800499d
 800496c:	08004aa1 	.word	0x08004aa1
 8004970:	08004aa1 	.word	0x08004aa1
 8004974:	08004aa1 	.word	0x08004aa1
 8004978:	080049dd 	.word	0x080049dd
 800497c:	08004aa1 	.word	0x08004aa1
 8004980:	08004aa1 	.word	0x08004aa1
 8004984:	08004aa1 	.word	0x08004aa1
 8004988:	08004a1f 	.word	0x08004a1f
 800498c:	08004aa1 	.word	0x08004aa1
 8004990:	08004aa1 	.word	0x08004aa1
 8004994:	08004aa1 	.word	0x08004aa1
 8004998:	08004a5f 	.word	0x08004a5f
 800499c:	68fb      	ldr	r3, [r7, #12]
 800499e:	681b      	ldr	r3, [r3, #0]
 80049a0:	68b9      	ldr	r1, [r7, #8]
 80049a2:	4618      	mov	r0, r3
 80049a4:	f000 fa0a 	bl	8004dbc <TIM_OC1_SetConfig>
 80049a8:	68fb      	ldr	r3, [r7, #12]
 80049aa:	681b      	ldr	r3, [r3, #0]
 80049ac:	699a      	ldr	r2, [r3, #24]
 80049ae:	68fb      	ldr	r3, [r7, #12]
 80049b0:	681b      	ldr	r3, [r3, #0]
 80049b2:	f042 0208 	orr.w	r2, r2, #8
 80049b6:	619a      	str	r2, [r3, #24]
 80049b8:	68fb      	ldr	r3, [r7, #12]
 80049ba:	681b      	ldr	r3, [r3, #0]
 80049bc:	699a      	ldr	r2, [r3, #24]
 80049be:	68fb      	ldr	r3, [r7, #12]
 80049c0:	681b      	ldr	r3, [r3, #0]
 80049c2:	f022 0204 	bic.w	r2, r2, #4
 80049c6:	619a      	str	r2, [r3, #24]
 80049c8:	68fb      	ldr	r3, [r7, #12]
 80049ca:	681b      	ldr	r3, [r3, #0]
 80049cc:	6999      	ldr	r1, [r3, #24]
 80049ce:	68bb      	ldr	r3, [r7, #8]
 80049d0:	691a      	ldr	r2, [r3, #16]
 80049d2:	68fb      	ldr	r3, [r7, #12]
 80049d4:	681b      	ldr	r3, [r3, #0]
 80049d6:	430a      	orrs	r2, r1
 80049d8:	619a      	str	r2, [r3, #24]
 80049da:	e062      	b.n	8004aa2 <HAL_TIM_PWM_ConfigChannel+0x172>
 80049dc:	68fb      	ldr	r3, [r7, #12]
 80049de:	681b      	ldr	r3, [r3, #0]
 80049e0:	68b9      	ldr	r1, [r7, #8]
 80049e2:	4618      	mov	r0, r3
 80049e4:	f000 fa5a 	bl	8004e9c <TIM_OC2_SetConfig>
 80049e8:	68fb      	ldr	r3, [r7, #12]
 80049ea:	681b      	ldr	r3, [r3, #0]
 80049ec:	699a      	ldr	r2, [r3, #24]
 80049ee:	68fb      	ldr	r3, [r7, #12]
 80049f0:	681b      	ldr	r3, [r3, #0]
 80049f2:	f442 6200 	orr.w	r2, r2, #2048	; 0x800
 80049f6:	619a      	str	r2, [r3, #24]
 80049f8:	68fb      	ldr	r3, [r7, #12]
 80049fa:	681b      	ldr	r3, [r3, #0]
 80049fc:	699a      	ldr	r2, [r3, #24]
 80049fe:	68fb      	ldr	r3, [r7, #12]
 8004a00:	681b      	ldr	r3, [r3, #0]
 8004a02:	f422 6280 	bic.w	r2, r2, #1024	; 0x400
 8004a06:	619a      	str	r2, [r3, #24]
 8004a08:	68fb      	ldr	r3, [r7, #12]
 8004a0a:	681b      	ldr	r3, [r3, #0]
 8004a0c:	6999      	ldr	r1, [r3, #24]
 8004a0e:	68bb      	ldr	r3, [r7, #8]
 8004a10:	691b      	ldr	r3, [r3, #16]
 8004a12:	021a      	lsls	r2, r3, #8
 8004a14:	68fb      	ldr	r3, [r7, #12]
 8004a16:	681b      	ldr	r3, [r3, #0]
 8004a18:	430a      	orrs	r2, r1
 8004a1a:	619a      	str	r2, [r3, #24]
 8004a1c:	e041      	b.n	8004aa2 <HAL_TIM_PWM_ConfigChannel+0x172>
 8004a1e:	68fb      	ldr	r3, [r7, #12]
 8004a20:	681b      	ldr	r3, [r3, #0]
 8004a22:	68b9      	ldr	r1, [r7, #8]
 8004a24:	4618      	mov	r0, r3
 8004a26:	f000 faaf 	bl	8004f88 <TIM_OC3_SetConfig>
 8004a2a:	68fb      	ldr	r3, [r7, #12]
 8004a2c:	681b      	ldr	r3, [r3, #0]
 8004a2e:	69da      	ldr	r2, [r3, #28]
 8004a30:	68fb      	ldr	r3, [r7, #12]
 8004a32:	681b      	ldr	r3, [r3, #0]
 8004a34:	f042 0208 	orr.w	r2, r2, #8
 8004a38:	61da      	str	r2, [r3, #28]
 8004a3a:	68fb      	ldr	r3, [r7, #12]
 8004a3c:	681b      	ldr	r3, [r3, #0]
 8004a3e:	69da      	ldr	r2, [r3, #28]
 8004a40:	68fb      	ldr	r3, [r7, #12]
 8004a42:	681b      	ldr	r3, [r3, #0]
 8004a44:	f022 0204 	bic.w	r2, r2, #4
 8004a48:	61da      	str	r2, [r3, #28]
 8004a4a:	68fb      	ldr	r3, [r7, #12]
 8004a4c:	681b      	ldr	r3, [r3, #0]
 8004a4e:	69d9      	ldr	r1, [r3, #28]
 8004a50:	68bb      	ldr	r3, [r7, #8]
 8004a52:	691a      	ldr	r2, [r3, #16]
 8004a54:	68fb      	ldr	r3, [r7, #12]
 8004a56:	681b      	ldr	r3, [r3, #0]
 8004a58:	430a      	orrs	r2, r1
 8004a5a:	61da      	str	r2, [r3, #28]
 8004a5c:	e021      	b.n	8004aa2 <HAL_TIM_PWM_ConfigChannel+0x172>
 8004a5e:	68fb      	ldr	r3, [r7, #12]
 8004a60:	681b      	ldr	r3, [r3, #0]
 8004a62:	68b9      	ldr	r1, [r7, #8]
 8004a64:	4618      	mov	r0, r3
 8004a66:	f000 fb03 	bl	8005070 <TIM_OC4_SetConfig>
 8004a6a:	68fb      	ldr	r3, [r7, #12]
 8004a6c:	681b      	ldr	r3, [r3, #0]
 8004a6e:	69da      	ldr	r2, [r3, #28]
 8004a70:	68fb      	ldr	r3, [r7, #12]
 8004a72:	681b      	ldr	r3, [r3, #0]
 8004a74:	f442 6200 	orr.w	r2, r2, #2048	; 0x800
 8004a78:	61da      	str	r2, [r3, #28]
 8004a7a:	68fb      	ldr	r3, [r7, #12]
 8004a7c:	681b      	ldr	r3, [r3, #0]
 8004a7e:	69da      	ldr	r2, [r3, #28]
 8004a80:	68fb      	ldr	r3, [r7, #12]
 8004a82:	681b      	ldr	r3, [r3, #0]
 8004a84:	f422 6280 	bic.w	r2, r2, #1024	; 0x400
 8004a88:	61da      	str	r2, [r3, #28]
 8004a8a:	68fb      	ldr	r3, [r7, #12]
 8004a8c:	681b      	ldr	r3, [r3, #0]
 8004a8e:	69d9      	ldr	r1, [r3, #28]
 8004a90:	68bb      	ldr	r3, [r7, #8]
 8004a92:	691b      	ldr	r3, [r3, #16]
 8004a94:	021a      	lsls	r2, r3, #8
 8004a96:	68fb      	ldr	r3, [r7, #12]
 8004a98:	681b      	ldr	r3, [r3, #0]
 8004a9a:	430a      	orrs	r2, r1
 8004a9c:	61da      	str	r2, [r3, #28]
 8004a9e:	e000      	b.n	8004aa2 <HAL_TIM_PWM_ConfigChannel+0x172>
 8004aa0:	bf00      	nop
 8004aa2:	68fb      	ldr	r3, [r7, #12]
 8004aa4:	2201      	movs	r2, #1
 8004aa6:	f883 203d 	strb.w	r2, [r3, #61]	; 0x3d
 8004aaa:	68fb      	ldr	r3, [r7, #12]
 8004aac:	2200      	movs	r2, #0
 8004aae:	f883 203c 	strb.w	r2, [r3, #60]	; 0x3c
 8004ab2:	2300      	movs	r3, #0
 8004ab4:	4618      	mov	r0, r3
 8004ab6:	3710      	adds	r7, #16
 8004ab8:	46bd      	mov	sp, r7
 8004aba:	bd80      	pop	{r7, pc}

08004abc <HAL_TIM_ConfigClockSource>:
 8004abc:	b580      	push	{r7, lr}
 8004abe:	b084      	sub	sp, #16
 8004ac0:	af00      	add	r7, sp, #0
 8004ac2:	6078      	str	r0, [r7, #4]
 8004ac4:	6039      	str	r1, [r7, #0]
 8004ac6:	687b      	ldr	r3, [r7, #4]
 8004ac8:	f893 303c 	ldrb.w	r3, [r3, #60]	; 0x3c
 8004acc:	2b01      	cmp	r3, #1
 8004ace:	d101      	bne.n	8004ad4 <HAL_TIM_ConfigClockSource+0x18>
 8004ad0:	2302      	movs	r3, #2
 8004ad2:	e0a6      	b.n	8004c22 <HAL_TIM_ConfigClockSource+0x166>
 8004ad4:	687b      	ldr	r3, [r7, #4]
 8004ad6:	2201      	movs	r2, #1
 8004ad8:	f883 203c 	strb.w	r2, [r3, #60]	; 0x3c
 8004adc:	687b      	ldr	r3, [r7, #4]
 8004ade:	2202      	movs	r2, #2
 8004ae0:	f883 203d 	strb.w	r2, [r3, #61]	; 0x3d
 8004ae4:	687b      	ldr	r3, [r7, #4]
 8004ae6:	681b      	ldr	r3, [r3, #0]
 8004ae8:	689b      	ldr	r3, [r3, #8]
 8004aea:	60fb      	str	r3, [r7, #12]
 8004aec:	68fb      	ldr	r3, [r7, #12]
 8004aee:	f023 0377 	bic.w	r3, r3, #119	; 0x77
 8004af2:	60fb      	str	r3, [r7, #12]
 8004af4:	68fb      	ldr	r3, [r7, #12]
 8004af6:	f423 437f 	bic.w	r3, r3, #65280	; 0xff00
 8004afa:	60fb      	str	r3, [r7, #12]
 8004afc:	687b      	ldr	r3, [r7, #4]
 8004afe:	681b      	ldr	r3, [r3, #0]
 8004b00:	68fa      	ldr	r2, [r7, #12]
 8004b02:	609a      	str	r2, [r3, #8]
 8004b04:	683b      	ldr	r3, [r7, #0]
 8004b06:	681b      	ldr	r3, [r3, #0]
 8004b08:	2b40      	cmp	r3, #64	; 0x40
 8004b0a:	d067      	beq.n	8004bdc <HAL_TIM_ConfigClockSource+0x120>
 8004b0c:	2b40      	cmp	r3, #64	; 0x40
 8004b0e:	d80b      	bhi.n	8004b28 <HAL_TIM_ConfigClockSource+0x6c>
 8004b10:	2b10      	cmp	r3, #16
 8004b12:	d073      	beq.n	8004bfc <HAL_TIM_ConfigClockSource+0x140>
 8004b14:	2b10      	cmp	r3, #16
 8004b16:	d802      	bhi.n	8004b1e <HAL_TIM_ConfigClockSource+0x62>
 8004b18:	2b00      	cmp	r3, #0
 8004b1a:	d06f      	beq.n	8004bfc <HAL_TIM_ConfigClockSource+0x140>
 8004b1c:	e078      	b.n	8004c10 <HAL_TIM_ConfigClockSource+0x154>
 8004b1e:	2b20      	cmp	r3, #32
 8004b20:	d06c      	beq.n	8004bfc <HAL_TIM_ConfigClockSource+0x140>
 8004b22:	2b30      	cmp	r3, #48	; 0x30
 8004b24:	d06a      	beq.n	8004bfc <HAL_TIM_ConfigClockSource+0x140>
 8004b26:	e073      	b.n	8004c10 <HAL_TIM_ConfigClockSource+0x154>
 8004b28:	2b70      	cmp	r3, #112	; 0x70
 8004b2a:	d00d      	beq.n	8004b48 <HAL_TIM_ConfigClockSource+0x8c>
 8004b2c:	2b70      	cmp	r3, #112	; 0x70
 8004b2e:	d804      	bhi.n	8004b3a <HAL_TIM_ConfigClockSource+0x7e>
 8004b30:	2b50      	cmp	r3, #80	; 0x50
 8004b32:	d033      	beq.n	8004b9c <HAL_TIM_ConfigClockSource+0xe0>
 8004b34:	2b60      	cmp	r3, #96	; 0x60
 8004b36:	d041      	beq.n	8004bbc <HAL_TIM_ConfigClockSource+0x100>
 8004b38:	e06a      	b.n	8004c10 <HAL_TIM_ConfigClockSource+0x154>
 8004b3a:	f5b3 5f80 	cmp.w	r3, #4096	; 0x1000
 8004b3e:	d066      	beq.n	8004c0e <HAL_TIM_ConfigClockSource+0x152>
 8004b40:	f5b3 5f00 	cmp.w	r3, #8192	; 0x2000
 8004b44:	d017      	beq.n	8004b76 <HAL_TIM_ConfigClockSource+0xba>
 8004b46:	e063      	b.n	8004c10 <HAL_TIM_ConfigClockSource+0x154>
 8004b48:	687b      	ldr	r3, [r7, #4]
 8004b4a:	6818      	ldr	r0, [r3, #0]
 8004b4c:	683b      	ldr	r3, [r7, #0]
 8004b4e:	6899      	ldr	r1, [r3, #8]
 8004b50:	683b      	ldr	r3, [r7, #0]
 8004b52:	685a      	ldr	r2, [r3, #4]
 8004b54:	683b      	ldr	r3, [r7, #0]
 8004b56:	68db      	ldr	r3, [r3, #12]
 8004b58:	f000 fb5a 	bl	8005210 <TIM_ETR_SetConfig>
 8004b5c:	687b      	ldr	r3, [r7, #4]
 8004b5e:	681b      	ldr	r3, [r3, #0]
 8004b60:	689b      	ldr	r3, [r3, #8]
 8004b62:	60fb      	str	r3, [r7, #12]
 8004b64:	68fb      	ldr	r3, [r7, #12]
 8004b66:	f043 0377 	orr.w	r3, r3, #119	; 0x77
 8004b6a:	60fb      	str	r3, [r7, #12]
 8004b6c:	687b      	ldr	r3, [r7, #4]
 8004b6e:	681b      	ldr	r3, [r3, #0]
 8004b70:	68fa      	ldr	r2, [r7, #12]
 8004b72:	609a      	str	r2, [r3, #8]
 8004b74:	e04c      	b.n	8004c10 <HAL_TIM_ConfigClockSource+0x154>
 8004b76:	687b      	ldr	r3, [r7, #4]
 8004b78:	6818      	ldr	r0, [r3, #0]
 8004b7a:	683b      	ldr	r3, [r7, #0]
 8004b7c:	6899      	ldr	r1, [r3, #8]
 8004b7e:	683b      	ldr	r3, [r7, #0]
 8004b80:	685a      	ldr	r2, [r3, #4]
 8004b82:	683b      	ldr	r3, [r7, #0]
 8004b84:	68db      	ldr	r3, [r3, #12]
 8004b86:	f000 fb43 	bl	8005210 <TIM_ETR_SetConfig>
 8004b8a:	687b      	ldr	r3, [r7, #4]
 8004b8c:	681b      	ldr	r3, [r3, #0]
 8004b8e:	689a      	ldr	r2, [r3, #8]
 8004b90:	687b      	ldr	r3, [r7, #4]
 8004b92:	681b      	ldr	r3, [r3, #0]
 8004b94:	f442 4280 	orr.w	r2, r2, #16384	; 0x4000
 8004b98:	609a      	str	r2, [r3, #8]
 8004b9a:	e039      	b.n	8004c10 <HAL_TIM_ConfigClockSource+0x154>
 8004b9c:	687b      	ldr	r3, [r7, #4]
 8004b9e:	6818      	ldr	r0, [r3, #0]
 8004ba0:	683b      	ldr	r3, [r7, #0]
 8004ba2:	6859      	ldr	r1, [r3, #4]
 8004ba4:	683b      	ldr	r3, [r7, #0]
 8004ba6:	68db      	ldr	r3, [r3, #12]
 8004ba8:	461a      	mov	r2, r3
 8004baa:	f000 fab7 	bl	800511c <TIM_TI1_ConfigInputStage>
 8004bae:	687b      	ldr	r3, [r7, #4]
 8004bb0:	681b      	ldr	r3, [r3, #0]
 8004bb2:	2150      	movs	r1, #80	; 0x50
 8004bb4:	4618      	mov	r0, r3
 8004bb6:	f000 fb10 	bl	80051da <TIM_ITRx_SetConfig>
 8004bba:	e029      	b.n	8004c10 <HAL_TIM_ConfigClockSource+0x154>
 8004bbc:	687b      	ldr	r3, [r7, #4]
 8004bbe:	6818      	ldr	r0, [r3, #0]
 8004bc0:	683b      	ldr	r3, [r7, #0]
 8004bc2:	6859      	ldr	r1, [r3, #4]
 8004bc4:	683b      	ldr	r3, [r7, #0]
 8004bc6:	68db      	ldr	r3, [r3, #12]
 8004bc8:	461a      	mov	r2, r3
 8004bca:	f000 fad6 	bl	800517a <TIM_TI2_ConfigInputStage>
 8004bce:	687b      	ldr	r3, [r7, #4]
 8004bd0:	681b      	ldr	r3, [r3, #0]
 8004bd2:	2160      	movs	r1, #96	; 0x60
 8004bd4:	4618      	mov	r0, r3
 8004bd6:	f000 fb00 	bl	80051da <TIM_ITRx_SetConfig>
 8004bda:	e019      	b.n	8004c10 <HAL_TIM_ConfigClockSource+0x154>
 8004bdc:	687b      	ldr	r3, [r7, #4]
 8004bde:	6818      	ldr	r0, [r3, #0]
 8004be0:	683b      	ldr	r3, [r7, #0]
 8004be2:	6859      	ldr	r1, [r3, #4]
 8004be4:	683b      	ldr	r3, [r7, #0]
 8004be6:	68db      	ldr	r3, [r3, #12]
 8004be8:	461a      	mov	r2, r3
 8004bea:	f000 fa97 	bl	800511c <TIM_TI1_ConfigInputStage>
 8004bee:	687b      	ldr	r3, [r7, #4]
 8004bf0:	681b      	ldr	r3, [r3, #0]
 8004bf2:	2140      	movs	r1, #64	; 0x40
 8004bf4:	4618      	mov	r0, r3
 8004bf6:	f000 faf0 	bl	80051da <TIM_ITRx_SetConfig>
 8004bfa:	e009      	b.n	8004c10 <HAL_TIM_ConfigClockSource+0x154>
 8004bfc:	687b      	ldr	r3, [r7, #4]
 8004bfe:	681a      	ldr	r2, [r3, #0]
 8004c00:	683b      	ldr	r3, [r7, #0]
 8004c02:	681b      	ldr	r3, [r3, #0]
 8004c04:	4619      	mov	r1, r3
 8004c06:	4610      	mov	r0, r2
 8004c08:	f000 fae7 	bl	80051da <TIM_ITRx_SetConfig>
 8004c0c:	e000      	b.n	8004c10 <HAL_TIM_ConfigClockSource+0x154>
 8004c0e:	bf00      	nop
 8004c10:	687b      	ldr	r3, [r7, #4]
 8004c12:	2201      	movs	r2, #1
 8004c14:	f883 203d 	strb.w	r2, [r3, #61]	; 0x3d
 8004c18:	687b      	ldr	r3, [r7, #4]
 8004c1a:	2200      	movs	r2, #0
 8004c1c:	f883 203c 	strb.w	r2, [r3, #60]	; 0x3c
 8004c20:	2300      	movs	r3, #0
 8004c22:	4618      	mov	r0, r3
 8004c24:	3710      	adds	r7, #16
 8004c26:	46bd      	mov	sp, r7
 8004c28:	bd80      	pop	{r7, pc}

08004c2a <HAL_TIM_OC_DelayElapsedCallback>:
 8004c2a:	b480      	push	{r7}
 8004c2c:	b083      	sub	sp, #12
 8004c2e:	af00      	add	r7, sp, #0
 8004c30:	6078      	str	r0, [r7, #4]
 8004c32:	bf00      	nop
 8004c34:	370c      	adds	r7, #12
 8004c36:	46bd      	mov	sp, r7
 8004c38:	f85d 7b04 	ldr.w	r7, [sp], #4
 8004c3c:	4770      	bx	lr

08004c3e <HAL_TIM_IC_CaptureCallback>:
 8004c3e:	b480      	push	{r7}
 8004c40:	b083      	sub	sp, #12
 8004c42:	af00      	add	r7, sp, #0
 8004c44:	6078      	str	r0, [r7, #4]
 8004c46:	bf00      	nop
 8004c48:	370c      	adds	r7, #12
 8004c4a:	46bd      	mov	sp, r7
 8004c4c:	f85d 7b04 	ldr.w	r7, [sp], #4
 8004c50:	4770      	bx	lr

08004c52 <HAL_TIM_PWM_PulseFinishedCallback>:
 8004c52:	b480      	push	{r7}
 8004c54:	b083      	sub	sp, #12
 8004c56:	af00      	add	r7, sp, #0
 8004c58:	6078      	str	r0, [r7, #4]
 8004c5a:	bf00      	nop
 8004c5c:	370c      	adds	r7, #12
 8004c5e:	46bd      	mov	sp, r7
 8004c60:	f85d 7b04 	ldr.w	r7, [sp], #4
 8004c64:	4770      	bx	lr

08004c66 <HAL_TIM_TriggerCallback>:
 8004c66:	b480      	push	{r7}
 8004c68:	b083      	sub	sp, #12
 8004c6a:	af00      	add	r7, sp, #0
 8004c6c:	6078      	str	r0, [r7, #4]
 8004c6e:	bf00      	nop
 8004c70:	370c      	adds	r7, #12
 8004c72:	46bd      	mov	sp, r7
 8004c74:	f85d 7b04 	ldr.w	r7, [sp], #4
 8004c78:	4770      	bx	lr
	...

08004c7c <TIM_Base_SetConfig>:
 8004c7c:	b480      	push	{r7}
 8004c7e:	b085      	sub	sp, #20
 8004c80:	af00      	add	r7, sp, #0
 8004c82:	6078      	str	r0, [r7, #4]
 8004c84:	6039      	str	r1, [r7, #0]
 8004c86:	687b      	ldr	r3, [r7, #4]
 8004c88:	681b      	ldr	r3, [r3, #0]
 8004c8a:	60fb      	str	r3, [r7, #12]
 8004c8c:	687b      	ldr	r3, [r7, #4]
 8004c8e:	4a40      	ldr	r2, [pc, #256]	; (8004d90 <TIM_Base_SetConfig+0x114>)
 8004c90:	4293      	cmp	r3, r2
 8004c92:	d013      	beq.n	8004cbc <TIM_Base_SetConfig+0x40>
 8004c94:	687b      	ldr	r3, [r7, #4]
 8004c96:	f1b3 4f80 	cmp.w	r3, #1073741824	; 0x40000000
 8004c9a:	d00f      	beq.n	8004cbc <TIM_Base_SetConfig+0x40>
 8004c9c:	687b      	ldr	r3, [r7, #4]
 8004c9e:	4a3d      	ldr	r2, [pc, #244]	; (8004d94 <TIM_Base_SetConfig+0x118>)
 8004ca0:	4293      	cmp	r3, r2
 8004ca2:	d00b      	beq.n	8004cbc <TIM_Base_SetConfig+0x40>
 8004ca4:	687b      	ldr	r3, [r7, #4]
 8004ca6:	4a3c      	ldr	r2, [pc, #240]	; (8004d98 <TIM_Base_SetConfig+0x11c>)
 8004ca8:	4293      	cmp	r3, r2
 8004caa:	d007      	beq.n	8004cbc <TIM_Base_SetConfig+0x40>
 8004cac:	687b      	ldr	r3, [r7, #4]
 8004cae:	4a3b      	ldr	r2, [pc, #236]	; (8004d9c <TIM_Base_SetConfig+0x120>)
 8004cb0:	4293      	cmp	r3, r2
 8004cb2:	d003      	beq.n	8004cbc <TIM_Base_SetConfig+0x40>
 8004cb4:	687b      	ldr	r3, [r7, #4]
 8004cb6:	4a3a      	ldr	r2, [pc, #232]	; (8004da0 <TIM_Base_SetConfig+0x124>)
 8004cb8:	4293      	cmp	r3, r2
 8004cba:	d108      	bne.n	8004cce <TIM_Base_SetConfig+0x52>
 8004cbc:	68fb      	ldr	r3, [r7, #12]
 8004cbe:	f023 0370 	bic.w	r3, r3, #112	; 0x70
 8004cc2:	60fb      	str	r3, [r7, #12]
 8004cc4:	683b      	ldr	r3, [r7, #0]
 8004cc6:	685b      	ldr	r3, [r3, #4]
 8004cc8:	68fa      	ldr	r2, [r7, #12]
 8004cca:	4313      	orrs	r3, r2
 8004ccc:	60fb      	str	r3, [r7, #12]
 8004cce:	687b      	ldr	r3, [r7, #4]
 8004cd0:	4a2f      	ldr	r2, [pc, #188]	; (8004d90 <TIM_Base_SetConfig+0x114>)
 8004cd2:	4293      	cmp	r3, r2
 8004cd4:	d02b      	beq.n	8004d2e <TIM_Base_SetConfig+0xb2>
 8004cd6:	687b      	ldr	r3, [r7, #4]
 8004cd8:	f1b3 4f80 	cmp.w	r3, #1073741824	; 0x40000000
 8004cdc:	d027      	beq.n	8004d2e <TIM_Base_SetConfig+0xb2>
 8004cde:	687b      	ldr	r3, [r7, #4]
 8004ce0:	4a2c      	ldr	r2, [pc, #176]	; (8004d94 <TIM_Base_SetConfig+0x118>)
 8004ce2:	4293      	cmp	r3, r2
 8004ce4:	d023      	beq.n	8004d2e <TIM_Base_SetConfig+0xb2>
 8004ce6:	687b      	ldr	r3, [r7, #4]
 8004ce8:	4a2b      	ldr	r2, [pc, #172]	; (8004d98 <TIM_Base_SetConfig+0x11c>)
 8004cea:	4293      	cmp	r3, r2
 8004cec:	d01f      	beq.n	8004d2e <TIM_Base_SetConfig+0xb2>
 8004cee:	687b      	ldr	r3, [r7, #4]
 8004cf0:	4a2a      	ldr	r2, [pc, #168]	; (8004d9c <TIM_Base_SetConfig+0x120>)
 8004cf2:	4293      	cmp	r3, r2
 8004cf4:	d01b      	beq.n	8004d2e <TIM_Base_SetConfig+0xb2>
 8004cf6:	687b      	ldr	r3, [r7, #4]
 8004cf8:	4a29      	ldr	r2, [pc, #164]	; (8004da0 <TIM_Base_SetConfig+0x124>)
 8004cfa:	4293      	cmp	r3, r2
 8004cfc:	d017      	beq.n	8004d2e <TIM_Base_SetConfig+0xb2>
 8004cfe:	687b      	ldr	r3, [r7, #4]
 8004d00:	4a28      	ldr	r2, [pc, #160]	; (8004da4 <TIM_Base_SetConfig+0x128>)
 8004d02:	4293      	cmp	r3, r2
 8004d04:	d013      	beq.n	8004d2e <TIM_Base_SetConfig+0xb2>
 8004d06:	687b      	ldr	r3, [r7, #4]
 8004d08:	4a27      	ldr	r2, [pc, #156]	; (8004da8 <TIM_Base_SetConfig+0x12c>)
 8004d0a:	4293      	cmp	r3, r2
 8004d0c:	d00f      	beq.n	8004d2e <TIM_Base_SetConfig+0xb2>
 8004d0e:	687b      	ldr	r3, [r7, #4]
 8004d10:	4a26      	ldr	r2, [pc, #152]	; (8004dac <TIM_Base_SetConfig+0x130>)
 8004d12:	4293      	cmp	r3, r2
 8004d14:	d00b      	beq.n	8004d2e <TIM_Base_SetConfig+0xb2>
 8004d16:	687b      	ldr	r3, [r7, #4]
 8004d18:	4a25      	ldr	r2, [pc, #148]	; (8004db0 <TIM_Base_SetConfig+0x134>)
 8004d1a:	4293      	cmp	r3, r2
 8004d1c:	d007      	beq.n	8004d2e <TIM_Base_SetConfig+0xb2>
 8004d1e:	687b      	ldr	r3, [r7, #4]
 8004d20:	4a24      	ldr	r2, [pc, #144]	; (8004db4 <TIM_Base_SetConfig+0x138>)
 8004d22:	4293      	cmp	r3, r2
 8004d24:	d003      	beq.n	8004d2e <TIM_Base_SetConfig+0xb2>
 8004d26:	687b      	ldr	r3, [r7, #4]
 8004d28:	4a23      	ldr	r2, [pc, #140]	; (8004db8 <TIM_Base_SetConfig+0x13c>)
 8004d2a:	4293      	cmp	r3, r2
 8004d2c:	d108      	bne.n	8004d40 <TIM_Base_SetConfig+0xc4>
 8004d2e:	68fb      	ldr	r3, [r7, #12]
 8004d30:	f423 7340 	bic.w	r3, r3, #768	; 0x300
 8004d34:	60fb      	str	r3, [r7, #12]
 8004d36:	683b      	ldr	r3, [r7, #0]
 8004d38:	68db      	ldr	r3, [r3, #12]
 8004d3a:	68fa      	ldr	r2, [r7, #12]
 8004d3c:	4313      	orrs	r3, r2
 8004d3e:	60fb      	str	r3, [r7, #12]
 8004d40:	68fb      	ldr	r3, [r7, #12]
 8004d42:	f023 0280 	bic.w	r2, r3, #128	; 0x80
 8004d46:	683b      	ldr	r3, [r7, #0]
 8004d48:	695b      	ldr	r3, [r3, #20]
 8004d4a:	4313      	orrs	r3, r2
 8004d4c:	60fb      	str	r3, [r7, #12]
 8004d4e:	687b      	ldr	r3, [r7, #4]
 8004d50:	68fa      	ldr	r2, [r7, #12]
 8004d52:	601a      	str	r2, [r3, #0]
 8004d54:	683b      	ldr	r3, [r7, #0]
 8004d56:	689a      	ldr	r2, [r3, #8]
 8004d58:	687b      	ldr	r3, [r7, #4]
 8004d5a:	62da      	str	r2, [r3, #44]	; 0x2c
 8004d5c:	683b      	ldr	r3, [r7, #0]
 8004d5e:	681a      	ldr	r2, [r3, #0]
 8004d60:	687b      	ldr	r3, [r7, #4]
 8004d62:	629a      	str	r2, [r3, #40]	; 0x28
 8004d64:	687b      	ldr	r3, [r7, #4]
 8004d66:	4a0a      	ldr	r2, [pc, #40]	; (8004d90 <TIM_Base_SetConfig+0x114>)
 8004d68:	4293      	cmp	r3, r2
 8004d6a:	d003      	beq.n	8004d74 <TIM_Base_SetConfig+0xf8>
 8004d6c:	687b      	ldr	r3, [r7, #4]
 8004d6e:	4a0c      	ldr	r2, [pc, #48]	; (8004da0 <TIM_Base_SetConfig+0x124>)
 8004d70:	4293      	cmp	r3, r2
 8004d72:	d103      	bne.n	8004d7c <TIM_Base_SetConfig+0x100>
 8004d74:	683b      	ldr	r3, [r7, #0]
 8004d76:	691a      	ldr	r2, [r3, #16]
 8004d78:	687b      	ldr	r3, [r7, #4]
 8004d7a:	631a      	str	r2, [r3, #48]	; 0x30
 8004d7c:	687b      	ldr	r3, [r7, #4]
 8004d7e:	2201      	movs	r2, #1
 8004d80:	615a      	str	r2, [r3, #20]
 8004d82:	bf00      	nop
 8004d84:	3714      	adds	r7, #20
 8004d86:	46bd      	mov	sp, r7
 8004d88:	f85d 7b04 	ldr.w	r7, [sp], #4
 8004d8c:	4770      	bx	lr
 8004d8e:	bf00      	nop
 8004d90:	40010000 	.word	0x40010000
 8004d94:	40000400 	.word	0x40000400
 8004d98:	40000800 	.word	0x40000800
 8004d9c:	40000c00 	.word	0x40000c00
 8004da0:	40010400 	.word	0x40010400
 8004da4:	40014000 	.word	0x40014000
 8004da8:	40014400 	.word	0x40014400
 8004dac:	40014800 	.word	0x40014800
 8004db0:	40001800 	.word	0x40001800
 8004db4:	40001c00 	.word	0x40001c00
 8004db8:	40002000 	.word	0x40002000

08004dbc <TIM_OC1_SetConfig>:
 8004dbc:	b480      	push	{r7}
 8004dbe:	b087      	sub	sp, #28
 8004dc0:	af00      	add	r7, sp, #0
 8004dc2:	6078      	str	r0, [r7, #4]
 8004dc4:	6039      	str	r1, [r7, #0]
 8004dc6:	687b      	ldr	r3, [r7, #4]
 8004dc8:	6a1b      	ldr	r3, [r3, #32]
 8004dca:	f023 0201 	bic.w	r2, r3, #1
 8004dce:	687b      	ldr	r3, [r7, #4]
 8004dd0:	621a      	str	r2, [r3, #32]
 8004dd2:	687b      	ldr	r3, [r7, #4]
 8004dd4:	6a1b      	ldr	r3, [r3, #32]
 8004dd6:	617b      	str	r3, [r7, #20]
 8004dd8:	687b      	ldr	r3, [r7, #4]
 8004dda:	685b      	ldr	r3, [r3, #4]
 8004ddc:	613b      	str	r3, [r7, #16]
 8004dde:	687b      	ldr	r3, [r7, #4]
 8004de0:	699b      	ldr	r3, [r3, #24]
 8004de2:	60fb      	str	r3, [r7, #12]
 8004de4:	68fb      	ldr	r3, [r7, #12]
 8004de6:	f023 0370 	bic.w	r3, r3, #112	; 0x70
 8004dea:	60fb      	str	r3, [r7, #12]
 8004dec:	68fb      	ldr	r3, [r7, #12]
 8004dee:	f023 0303 	bic.w	r3, r3, #3
 8004df2:	60fb      	str	r3, [r7, #12]
 8004df4:	683b      	ldr	r3, [r7, #0]
 8004df6:	681b      	ldr	r3, [r3, #0]
 8004df8:	68fa      	ldr	r2, [r7, #12]
 8004dfa:	4313      	orrs	r3, r2
 8004dfc:	60fb      	str	r3, [r7, #12]
 8004dfe:	697b      	ldr	r3, [r7, #20]
 8004e00:	f023 0302 	bic.w	r3, r3, #2
 8004e04:	617b      	str	r3, [r7, #20]
 8004e06:	683b      	ldr	r3, [r7, #0]
 8004e08:	689b      	ldr	r3, [r3, #8]
 8004e0a:	697a      	ldr	r2, [r7, #20]
 8004e0c:	4313      	orrs	r3, r2
 8004e0e:	617b      	str	r3, [r7, #20]
 8004e10:	687b      	ldr	r3, [r7, #4]
 8004e12:	4a20      	ldr	r2, [pc, #128]	; (8004e94 <TIM_OC1_SetConfig+0xd8>)
 8004e14:	4293      	cmp	r3, r2
 8004e16:	d003      	beq.n	8004e20 <TIM_OC1_SetConfig+0x64>
 8004e18:	687b      	ldr	r3, [r7, #4]
 8004e1a:	4a1f      	ldr	r2, [pc, #124]	; (8004e98 <TIM_OC1_SetConfig+0xdc>)
 8004e1c:	4293      	cmp	r3, r2
 8004e1e:	d10c      	bne.n	8004e3a <TIM_OC1_SetConfig+0x7e>
 8004e20:	697b      	ldr	r3, [r7, #20]
 8004e22:	f023 0308 	bic.w	r3, r3, #8
 8004e26:	617b      	str	r3, [r7, #20]
 8004e28:	683b      	ldr	r3, [r7, #0]
 8004e2a:	68db      	ldr	r3, [r3, #12]
 8004e2c:	697a      	ldr	r2, [r7, #20]
 8004e2e:	4313      	orrs	r3, r2
 8004e30:	617b      	str	r3, [r7, #20]
 8004e32:	697b      	ldr	r3, [r7, #20]
 8004e34:	f023 0304 	bic.w	r3, r3, #4
 8004e38:	617b      	str	r3, [r7, #20]
 8004e3a:	687b      	ldr	r3, [r7, #4]
 8004e3c:	4a15      	ldr	r2, [pc, #84]	; (8004e94 <TIM_OC1_SetConfig+0xd8>)
 8004e3e:	4293      	cmp	r3, r2
 8004e40:	d003      	beq.n	8004e4a <TIM_OC1_SetConfig+0x8e>
 8004e42:	687b      	ldr	r3, [r7, #4]
 8004e44:	4a14      	ldr	r2, [pc, #80]	; (8004e98 <TIM_OC1_SetConfig+0xdc>)
 8004e46:	4293      	cmp	r3, r2
 8004e48:	d111      	bne.n	8004e6e <TIM_OC1_SetConfig+0xb2>
 8004e4a:	693b      	ldr	r3, [r7, #16]
 8004e4c:	f423 7380 	bic.w	r3, r3, #256	; 0x100
 8004e50:	613b      	str	r3, [r7, #16]
 8004e52:	693b      	ldr	r3, [r7, #16]
 8004e54:	f423 7300 	bic.w	r3, r3, #512	; 0x200
 8004e58:	613b      	str	r3, [r7, #16]
 8004e5a:	683b      	ldr	r3, [r7, #0]
 8004e5c:	695b      	ldr	r3, [r3, #20]
 8004e5e:	693a      	ldr	r2, [r7, #16]
 8004e60:	4313      	orrs	r3, r2
 8004e62:	613b      	str	r3, [r7, #16]
 8004e64:	683b      	ldr	r3, [r7, #0]
 8004e66:	699b      	ldr	r3, [r3, #24]
 8004e68:	693a      	ldr	r2, [r7, #16]
 8004e6a:	4313      	orrs	r3, r2
 8004e6c:	613b      	str	r3, [r7, #16]
 8004e6e:	687b      	ldr	r3, [r7, #4]
 8004e70:	693a      	ldr	r2, [r7, #16]
 8004e72:	605a      	str	r2, [r3, #4]
 8004e74:	687b      	ldr	r3, [r7, #4]
 8004e76:	68fa      	ldr	r2, [r7, #12]
 8004e78:	619a      	str	r2, [r3, #24]
 8004e7a:	683b      	ldr	r3, [r7, #0]
 8004e7c:	685a      	ldr	r2, [r3, #4]
 8004e7e:	687b      	ldr	r3, [r7, #4]
 8004e80:	635a      	str	r2, [r3, #52]	; 0x34
 8004e82:	687b      	ldr	r3, [r7, #4]
 8004e84:	697a      	ldr	r2, [r7, #20]
 8004e86:	621a      	str	r2, [r3, #32]
 8004e88:	bf00      	nop
 8004e8a:	371c      	adds	r7, #28
 8004e8c:	46bd      	mov	sp, r7
 8004e8e:	f85d 7b04 	ldr.w	r7, [sp], #4
 8004e92:	4770      	bx	lr
 8004e94:	40010000 	.word	0x40010000
 8004e98:	40010400 	.word	0x40010400

08004e9c <TIM_OC2_SetConfig>:
 8004e9c:	b480      	push	{r7}
 8004e9e:	b087      	sub	sp, #28
 8004ea0:	af00      	add	r7, sp, #0
 8004ea2:	6078      	str	r0, [r7, #4]
 8004ea4:	6039      	str	r1, [r7, #0]
 8004ea6:	687b      	ldr	r3, [r7, #4]
 8004ea8:	6a1b      	ldr	r3, [r3, #32]
 8004eaa:	f023 0210 	bic.w	r2, r3, #16
 8004eae:	687b      	ldr	r3, [r7, #4]
 8004eb0:	621a      	str	r2, [r3, #32]
 8004eb2:	687b      	ldr	r3, [r7, #4]
 8004eb4:	6a1b      	ldr	r3, [r3, #32]
 8004eb6:	617b      	str	r3, [r7, #20]
 8004eb8:	687b      	ldr	r3, [r7, #4]
 8004eba:	685b      	ldr	r3, [r3, #4]
 8004ebc:	613b      	str	r3, [r7, #16]
 8004ebe:	687b      	ldr	r3, [r7, #4]
 8004ec0:	699b      	ldr	r3, [r3, #24]
 8004ec2:	60fb      	str	r3, [r7, #12]
 8004ec4:	68fb      	ldr	r3, [r7, #12]
 8004ec6:	f423 43e0 	bic.w	r3, r3, #28672	; 0x7000
 8004eca:	60fb      	str	r3, [r7, #12]
 8004ecc:	68fb      	ldr	r3, [r7, #12]
 8004ece:	f423 7340 	bic.w	r3, r3, #768	; 0x300
 8004ed2:	60fb      	str	r3, [r7, #12]
 8004ed4:	683b      	ldr	r3, [r7, #0]
 8004ed6:	681b      	ldr	r3, [r3, #0]
 8004ed8:	021b      	lsls	r3, r3, #8
 8004eda:	68fa      	ldr	r2, [r7, #12]
 8004edc:	4313      	orrs	r3, r2
 8004ede:	60fb      	str	r3, [r7, #12]
 8004ee0:	697b      	ldr	r3, [r7, #20]
 8004ee2:	f023 0320 	bic.w	r3, r3, #32
 8004ee6:	617b      	str	r3, [r7, #20]
 8004ee8:	683b      	ldr	r3, [r7, #0]
 8004eea:	689b      	ldr	r3, [r3, #8]
 8004eec:	011b      	lsls	r3, r3, #4
 8004eee:	697a      	ldr	r2, [r7, #20]
 8004ef0:	4313      	orrs	r3, r2
 8004ef2:	617b      	str	r3, [r7, #20]
 8004ef4:	687b      	ldr	r3, [r7, #4]
 8004ef6:	4a22      	ldr	r2, [pc, #136]	; (8004f80 <TIM_OC2_SetConfig+0xe4>)
 8004ef8:	4293      	cmp	r3, r2
 8004efa:	d003      	beq.n	8004f04 <TIM_OC2_SetConfig+0x68>
 8004efc:	687b      	ldr	r3, [r7, #4]
 8004efe:	4a21      	ldr	r2, [pc, #132]	; (8004f84 <TIM_OC2_SetConfig+0xe8>)
 8004f00:	4293      	cmp	r3, r2
 8004f02:	d10d      	bne.n	8004f20 <TIM_OC2_SetConfig+0x84>
 8004f04:	697b      	ldr	r3, [r7, #20]
 8004f06:	f023 0380 	bic.w	r3, r3, #128	; 0x80
 8004f0a:	617b      	str	r3, [r7, #20]
 8004f0c:	683b      	ldr	r3, [r7, #0]
 8004f0e:	68db      	ldr	r3, [r3, #12]
 8004f10:	011b      	lsls	r3, r3, #4
 8004f12:	697a      	ldr	r2, [r7, #20]
 8004f14:	4313      	orrs	r3, r2
 8004f16:	617b      	str	r3, [r7, #20]
 8004f18:	697b      	ldr	r3, [r7, #20]
 8004f1a:	f023 0340 	bic.w	r3, r3, #64	; 0x40
 8004f1e:	617b      	str	r3, [r7, #20]
 8004f20:	687b      	ldr	r3, [r7, #4]
 8004f22:	4a17      	ldr	r2, [pc, #92]	; (8004f80 <TIM_OC2_SetConfig+0xe4>)
 8004f24:	4293      	cmp	r3, r2
 8004f26:	d003      	beq.n	8004f30 <TIM_OC2_SetConfig+0x94>
 8004f28:	687b      	ldr	r3, [r7, #4]
 8004f2a:	4a16      	ldr	r2, [pc, #88]	; (8004f84 <TIM_OC2_SetConfig+0xe8>)
 8004f2c:	4293      	cmp	r3, r2
 8004f2e:	d113      	bne.n	8004f58 <TIM_OC2_SetConfig+0xbc>
 8004f30:	693b      	ldr	r3, [r7, #16]
 8004f32:	f423 6380 	bic.w	r3, r3, #1024	; 0x400
 8004f36:	613b      	str	r3, [r7, #16]
 8004f38:	693b      	ldr	r3, [r7, #16]
 8004f3a:	f423 6300 	bic.w	r3, r3, #2048	; 0x800
 8004f3e:	613b      	str	r3, [r7, #16]
 8004f40:	683b      	ldr	r3, [r7, #0]
 8004f42:	695b      	ldr	r3, [r3, #20]
 8004f44:	009b      	lsls	r3, r3, #2
 8004f46:	693a      	ldr	r2, [r7, #16]
 8004f48:	4313      	orrs	r3, r2
 8004f4a:	613b      	str	r3, [r7, #16]
 8004f4c:	683b      	ldr	r3, [r7, #0]
 8004f4e:	699b      	ldr	r3, [r3, #24]
 8004f50:	009b      	lsls	r3, r3, #2
 8004f52:	693a      	ldr	r2, [r7, #16]
 8004f54:	4313      	orrs	r3, r2
 8004f56:	613b      	str	r3, [r7, #16]
 8004f58:	687b      	ldr	r3, [r7, #4]
 8004f5a:	693a      	ldr	r2, [r7, #16]
 8004f5c:	605a      	str	r2, [r3, #4]
 8004f5e:	687b      	ldr	r3, [r7, #4]
 8004f60:	68fa      	ldr	r2, [r7, #12]
 8004f62:	619a      	str	r2, [r3, #24]
 8004f64:	683b      	ldr	r3, [r7, #0]
 8004f66:	685a      	ldr	r2, [r3, #4]
 8004f68:	687b      	ldr	r3, [r7, #4]
 8004f6a:	639a      	str	r2, [r3, #56]	; 0x38
 8004f6c:	687b      	ldr	r3, [r7, #4]
 8004f6e:	697a      	ldr	r2, [r7, #20]
 8004f70:	621a      	str	r2, [r3, #32]
 8004f72:	bf00      	nop
 8004f74:	371c      	adds	r7, #28
 8004f76:	46bd      	mov	sp, r7
 8004f78:	f85d 7b04 	ldr.w	r7, [sp], #4
 8004f7c:	4770      	bx	lr
 8004f7e:	bf00      	nop
 8004f80:	40010000 	.word	0x40010000
 8004f84:	40010400 	.word	0x40010400

08004f88 <TIM_OC3_SetConfig>:
 8004f88:	b480      	push	{r7}
 8004f8a:	b087      	sub	sp, #28
 8004f8c:	af00      	add	r7, sp, #0
 8004f8e:	6078      	str	r0, [r7, #4]
 8004f90:	6039      	str	r1, [r7, #0]
 8004f92:	687b      	ldr	r3, [r7, #4]
 8004f94:	6a1b      	ldr	r3, [r3, #32]
 8004f96:	f423 7280 	bic.w	r2, r3, #256	; 0x100
 8004f9a:	687b      	ldr	r3, [r7, #4]
 8004f9c:	621a      	str	r2, [r3, #32]
 8004f9e:	687b      	ldr	r3, [r7, #4]
 8004fa0:	6a1b      	ldr	r3, [r3, #32]
 8004fa2:	617b      	str	r3, [r7, #20]
 8004fa4:	687b      	ldr	r3, [r7, #4]
 8004fa6:	685b      	ldr	r3, [r3, #4]
 8004fa8:	613b      	str	r3, [r7, #16]
 8004faa:	687b      	ldr	r3, [r7, #4]
 8004fac:	69db      	ldr	r3, [r3, #28]
 8004fae:	60fb      	str	r3, [r7, #12]
 8004fb0:	68fb      	ldr	r3, [r7, #12]
 8004fb2:	f023 0370 	bic.w	r3, r3, #112	; 0x70
 8004fb6:	60fb      	str	r3, [r7, #12]
 8004fb8:	68fb      	ldr	r3, [r7, #12]
 8004fba:	f023 0303 	bic.w	r3, r3, #3
 8004fbe:	60fb      	str	r3, [r7, #12]
 8004fc0:	683b      	ldr	r3, [r7, #0]
 8004fc2:	681b      	ldr	r3, [r3, #0]
 8004fc4:	68fa      	ldr	r2, [r7, #12]
 8004fc6:	4313      	orrs	r3, r2
 8004fc8:	60fb      	str	r3, [r7, #12]
 8004fca:	697b      	ldr	r3, [r7, #20]
 8004fcc:	f423 7300 	bic.w	r3, r3, #512	; 0x200
 8004fd0:	617b      	str	r3, [r7, #20]
 8004fd2:	683b      	ldr	r3, [r7, #0]
 8004fd4:	689b      	ldr	r3, [r3, #8]
 8004fd6:	021b      	lsls	r3, r3, #8
 8004fd8:	697a      	ldr	r2, [r7, #20]
 8004fda:	4313      	orrs	r3, r2
 8004fdc:	617b      	str	r3, [r7, #20]
 8004fde:	687b      	ldr	r3, [r7, #4]
 8004fe0:	4a21      	ldr	r2, [pc, #132]	; (8005068 <TIM_OC3_SetConfig+0xe0>)
 8004fe2:	4293      	cmp	r3, r2
 8004fe4:	d003      	beq.n	8004fee <TIM_OC3_SetConfig+0x66>
 8004fe6:	687b      	ldr	r3, [r7, #4]
 8004fe8:	4a20      	ldr	r2, [pc, #128]	; (800506c <TIM_OC3_SetConfig+0xe4>)
 8004fea:	4293      	cmp	r3, r2
 8004fec:	d10d      	bne.n	800500a <TIM_OC3_SetConfig+0x82>
 8004fee:	697b      	ldr	r3, [r7, #20]
 8004ff0:	f423 6300 	bic.w	r3, r3, #2048	; 0x800
 8004ff4:	617b      	str	r3, [r7, #20]
 8004ff6:	683b      	ldr	r3, [r7, #0]
 8004ff8:	68db      	ldr	r3, [r3, #12]
 8004ffa:	021b      	lsls	r3, r3, #8
 8004ffc:	697a      	ldr	r2, [r7, #20]
 8004ffe:	4313      	orrs	r3, r2
 8005000:	617b      	str	r3, [r7, #20]
 8005002:	697b      	ldr	r3, [r7, #20]
 8005004:	f423 6380 	bic.w	r3, r3, #1024	; 0x400
 8005008:	617b      	str	r3, [r7, #20]
 800500a:	687b      	ldr	r3, [r7, #4]
 800500c:	4a16      	ldr	r2, [pc, #88]	; (8005068 <TIM_OC3_SetConfig+0xe0>)
 800500e:	4293      	cmp	r3, r2
 8005010:	d003      	beq.n	800501a <TIM_OC3_SetConfig+0x92>
 8005012:	687b      	ldr	r3, [r7, #4]
 8005014:	4a15      	ldr	r2, [pc, #84]	; (800506c <TIM_OC3_SetConfig+0xe4>)
 8005016:	4293      	cmp	r3, r2
 8005018:	d113      	bne.n	8005042 <TIM_OC3_SetConfig+0xba>
 800501a:	693b      	ldr	r3, [r7, #16]
 800501c:	f423 5380 	bic.w	r3, r3, #4096	; 0x1000
 8005020:	613b      	str	r3, [r7, #16]
 8005022:	693b      	ldr	r3, [r7, #16]
 8005024:	f423 5300 	bic.w	r3, r3, #8192	; 0x2000
 8005028:	613b      	str	r3, [r7, #16]
 800502a:	683b      	ldr	r3, [r7, #0]
 800502c:	695b      	ldr	r3, [r3, #20]
 800502e:	011b      	lsls	r3, r3, #4
 8005030:	693a      	ldr	r2, [r7, #16]
 8005032:	4313      	orrs	r3, r2
 8005034:	613b      	str	r3, [r7, #16]
 8005036:	683b      	ldr	r3, [r7, #0]
 8005038:	699b      	ldr	r3, [r3, #24]
 800503a:	011b      	lsls	r3, r3, #4
 800503c:	693a      	ldr	r2, [r7, #16]
 800503e:	4313      	orrs	r3, r2
 8005040:	613b      	str	r3, [r7, #16]
 8005042:	687b      	ldr	r3, [r7, #4]
 8005044:	693a      	ldr	r2, [r7, #16]
 8005046:	605a      	str	r2, [r3, #4]
 8005048:	687b      	ldr	r3, [r7, #4]
 800504a:	68fa      	ldr	r2, [r7, #12]
 800504c:	61da      	str	r2, [r3, #28]
 800504e:	683b      	ldr	r3, [r7, #0]
 8005050:	685a      	ldr	r2, [r3, #4]
 8005052:	687b      	ldr	r3, [r7, #4]
 8005054:	63da      	str	r2, [r3, #60]	; 0x3c
 8005056:	687b      	ldr	r3, [r7, #4]
 8005058:	697a      	ldr	r2, [r7, #20]
 800505a:	621a      	str	r2, [r3, #32]
 800505c:	bf00      	nop
 800505e:	371c      	adds	r7, #28
 8005060:	46bd      	mov	sp, r7
 8005062:	f85d 7b04 	ldr.w	r7, [sp], #4
 8005066:	4770      	bx	lr
 8005068:	40010000 	.word	0x40010000
 800506c:	40010400 	.word	0x40010400

08005070 <TIM_OC4_SetConfig>:
 8005070:	b480      	push	{r7}
 8005072:	b087      	sub	sp, #28
 8005074:	af00      	add	r7, sp, #0
 8005076:	6078      	str	r0, [r7, #4]
 8005078:	6039      	str	r1, [r7, #0]
 800507a:	687b      	ldr	r3, [r7, #4]
 800507c:	6a1b      	ldr	r3, [r3, #32]
 800507e:	f423 5280 	bic.w	r2, r3, #4096	; 0x1000
 8005082:	687b      	ldr	r3, [r7, #4]
 8005084:	621a      	str	r2, [r3, #32]
 8005086:	687b      	ldr	r3, [r7, #4]
 8005088:	6a1b      	ldr	r3, [r3, #32]
 800508a:	613b      	str	r3, [r7, #16]
 800508c:	687b      	ldr	r3, [r7, #4]
 800508e:	685b      	ldr	r3, [r3, #4]
 8005090:	617b      	str	r3, [r7, #20]
 8005092:	687b      	ldr	r3, [r7, #4]
 8005094:	69db      	ldr	r3, [r3, #28]
 8005096:	60fb      	str	r3, [r7, #12]
 8005098:	68fb      	ldr	r3, [r7, #12]
 800509a:	f423 43e0 	bic.w	r3, r3, #28672	; 0x7000
 800509e:	60fb      	str	r3, [r7, #12]
 80050a0:	68fb      	ldr	r3, [r7, #12]
 80050a2:	f423 7340 	bic.w	r3, r3, #768	; 0x300
 80050a6:	60fb      	str	r3, [r7, #12]
 80050a8:	683b      	ldr	r3, [r7, #0]
 80050aa:	681b      	ldr	r3, [r3, #0]
 80050ac:	021b      	lsls	r3, r3, #8
 80050ae:	68fa      	ldr	r2, [r7, #12]
 80050b0:	4313      	orrs	r3, r2
 80050b2:	60fb      	str	r3, [r7, #12]
 80050b4:	693b      	ldr	r3, [r7, #16]
 80050b6:	f423 5300 	bic.w	r3, r3, #8192	; 0x2000
 80050ba:	613b      	str	r3, [r7, #16]
 80050bc:	683b      	ldr	r3, [r7, #0]
 80050be:	689b      	ldr	r3, [r3, #8]
 80050c0:	031b      	lsls	r3, r3, #12
 80050c2:	693a      	ldr	r2, [r7, #16]
 80050c4:	4313      	orrs	r3, r2
 80050c6:	613b      	str	r3, [r7, #16]
 80050c8:	687b      	ldr	r3, [r7, #4]
 80050ca:	4a12      	ldr	r2, [pc, #72]	; (8005114 <TIM_OC4_SetConfig+0xa4>)
 80050cc:	4293      	cmp	r3, r2
 80050ce:	d003      	beq.n	80050d8 <TIM_OC4_SetConfig+0x68>
 80050d0:	687b      	ldr	r3, [r7, #4]
 80050d2:	4a11      	ldr	r2, [pc, #68]	; (8005118 <TIM_OC4_SetConfig+0xa8>)
 80050d4:	4293      	cmp	r3, r2
 80050d6:	d109      	bne.n	80050ec <TIM_OC4_SetConfig+0x7c>
 80050d8:	697b      	ldr	r3, [r7, #20]
 80050da:	f423 4380 	bic.w	r3, r3, #16384	; 0x4000
 80050de:	617b      	str	r3, [r7, #20]
 80050e0:	683b      	ldr	r3, [r7, #0]
 80050e2:	695b      	ldr	r3, [r3, #20]
 80050e4:	019b      	lsls	r3, r3, #6
 80050e6:	697a      	ldr	r2, [r7, #20]
 80050e8:	4313      	orrs	r3, r2
 80050ea:	617b      	str	r3, [r7, #20]
 80050ec:	687b      	ldr	r3, [r7, #4]
 80050ee:	697a      	ldr	r2, [r7, #20]
 80050f0:	605a      	str	r2, [r3, #4]
 80050f2:	687b      	ldr	r3, [r7, #4]
 80050f4:	68fa      	ldr	r2, [r7, #12]
 80050f6:	61da      	str	r2, [r3, #28]
 80050f8:	683b      	ldr	r3, [r7, #0]
 80050fa:	685a      	ldr	r2, [r3, #4]
 80050fc:	687b      	ldr	r3, [r7, #4]
 80050fe:	641a      	str	r2, [r3, #64]	; 0x40
 8005100:	687b      	ldr	r3, [r7, #4]
 8005102:	693a      	ldr	r2, [r7, #16]
 8005104:	621a      	str	r2, [r3, #32]
 8005106:	bf00      	nop
 8005108:	371c      	adds	r7, #28
 800510a:	46bd      	mov	sp, r7
 800510c:	f85d 7b04 	ldr.w	r7, [sp], #4
 8005110:	4770      	bx	lr
 8005112:	bf00      	nop
 8005114:	40010000 	.word	0x40010000
 8005118:	40010400 	.word	0x40010400

0800511c <TIM_TI1_ConfigInputStage>:
 800511c:	b480      	push	{r7}
 800511e:	b087      	sub	sp, #28
 8005120:	af00      	add	r7, sp, #0
 8005122:	60f8      	str	r0, [r7, #12]
 8005124:	60b9      	str	r1, [r7, #8]
 8005126:	607a      	str	r2, [r7, #4]
 8005128:	68fb      	ldr	r3, [r7, #12]
 800512a:	6a1b      	ldr	r3, [r3, #32]
 800512c:	617b      	str	r3, [r7, #20]
 800512e:	68fb      	ldr	r3, [r7, #12]
 8005130:	6a1b      	ldr	r3, [r3, #32]
 8005132:	f023 0201 	bic.w	r2, r3, #1
 8005136:	68fb      	ldr	r3, [r7, #12]
 8005138:	621a      	str	r2, [r3, #32]
 800513a:	68fb      	ldr	r3, [r7, #12]
 800513c:	699b      	ldr	r3, [r3, #24]
 800513e:	613b      	str	r3, [r7, #16]
 8005140:	693b      	ldr	r3, [r7, #16]
 8005142:	f023 03f0 	bic.w	r3, r3, #240	; 0xf0
 8005146:	613b      	str	r3, [r7, #16]
 8005148:	687b      	ldr	r3, [r7, #4]
 800514a:	011b      	lsls	r3, r3, #4
 800514c:	693a      	ldr	r2, [r7, #16]
 800514e:	4313      	orrs	r3, r2
 8005150:	613b      	str	r3, [r7, #16]
 8005152:	697b      	ldr	r3, [r7, #20]
 8005154:	f023 030a 	bic.w	r3, r3, #10
 8005158:	617b      	str	r3, [r7, #20]
 800515a:	697a      	ldr	r2, [r7, #20]
 800515c:	68bb      	ldr	r3, [r7, #8]
 800515e:	4313      	orrs	r3, r2
 8005160:	617b      	str	r3, [r7, #20]
 8005162:	68fb      	ldr	r3, [r7, #12]
 8005164:	693a      	ldr	r2, [r7, #16]
 8005166:	619a      	str	r2, [r3, #24]
 8005168:	68fb      	ldr	r3, [r7, #12]
 800516a:	697a      	ldr	r2, [r7, #20]
 800516c:	621a      	str	r2, [r3, #32]
 800516e:	bf00      	nop
 8005170:	371c      	adds	r7, #28
 8005172:	46bd      	mov	sp, r7
 8005174:	f85d 7b04 	ldr.w	r7, [sp], #4
 8005178:	4770      	bx	lr

0800517a <TIM_TI2_ConfigInputStage>:
 800517a:	b480      	push	{r7}
 800517c:	b087      	sub	sp, #28
 800517e:	af00      	add	r7, sp, #0
 8005180:	60f8      	str	r0, [r7, #12]
 8005182:	60b9      	str	r1, [r7, #8]
 8005184:	607a      	str	r2, [r7, #4]
 8005186:	68fb      	ldr	r3, [r7, #12]
 8005188:	6a1b      	ldr	r3, [r3, #32]
 800518a:	f023 0210 	bic.w	r2, r3, #16
 800518e:	68fb      	ldr	r3, [r7, #12]
 8005190:	621a      	str	r2, [r3, #32]
 8005192:	68fb      	ldr	r3, [r7, #12]
 8005194:	699b      	ldr	r3, [r3, #24]
 8005196:	617b      	str	r3, [r7, #20]
 8005198:	68fb      	ldr	r3, [r7, #12]
 800519a:	6a1b      	ldr	r3, [r3, #32]
 800519c:	613b      	str	r3, [r7, #16]
 800519e:	697b      	ldr	r3, [r7, #20]
 80051a0:	f423 4370 	bic.w	r3, r3, #61440	; 0xf000
 80051a4:	617b      	str	r3, [r7, #20]
 80051a6:	687b      	ldr	r3, [r7, #4]
 80051a8:	031b      	lsls	r3, r3, #12
 80051aa:	697a      	ldr	r2, [r7, #20]
 80051ac:	4313      	orrs	r3, r2
 80051ae:	617b      	str	r3, [r7, #20]
 80051b0:	693b      	ldr	r3, [r7, #16]
 80051b2:	f023 03a0 	bic.w	r3, r3, #160	; 0xa0
 80051b6:	613b      	str	r3, [r7, #16]
 80051b8:	68bb      	ldr	r3, [r7, #8]
 80051ba:	011b      	lsls	r3, r3, #4
 80051bc:	693a      	ldr	r2, [r7, #16]
 80051be:	4313      	orrs	r3, r2
 80051c0:	613b      	str	r3, [r7, #16]
 80051c2:	68fb      	ldr	r3, [r7, #12]
 80051c4:	697a      	ldr	r2, [r7, #20]
 80051c6:	619a      	str	r2, [r3, #24]
 80051c8:	68fb      	ldr	r3, [r7, #12]
 80051ca:	693a      	ldr	r2, [r7, #16]
 80051cc:	621a      	str	r2, [r3, #32]
 80051ce:	bf00      	nop
 80051d0:	371c      	adds	r7, #28
 80051d2:	46bd      	mov	sp, r7
 80051d4:	f85d 7b04 	ldr.w	r7, [sp], #4
 80051d8:	4770      	bx	lr

080051da <TIM_ITRx_SetConfig>:
 80051da:	b480      	push	{r7}
 80051dc:	b085      	sub	sp, #20
 80051de:	af00      	add	r7, sp, #0
 80051e0:	6078      	str	r0, [r7, #4]
 80051e2:	6039      	str	r1, [r7, #0]
 80051e4:	687b      	ldr	r3, [r7, #4]
 80051e6:	689b      	ldr	r3, [r3, #8]
 80051e8:	60fb      	str	r3, [r7, #12]
 80051ea:	68fb      	ldr	r3, [r7, #12]
 80051ec:	f023 0370 	bic.w	r3, r3, #112	; 0x70
 80051f0:	60fb      	str	r3, [r7, #12]
 80051f2:	683a      	ldr	r2, [r7, #0]
 80051f4:	68fb      	ldr	r3, [r7, #12]
 80051f6:	4313      	orrs	r3, r2
 80051f8:	f043 0307 	orr.w	r3, r3, #7
 80051fc:	60fb      	str	r3, [r7, #12]
 80051fe:	687b      	ldr	r3, [r7, #4]
 8005200:	68fa      	ldr	r2, [r7, #12]
 8005202:	609a      	str	r2, [r3, #8]
 8005204:	bf00      	nop
 8005206:	3714      	adds	r7, #20
 8005208:	46bd      	mov	sp, r7
 800520a:	f85d 7b04 	ldr.w	r7, [sp], #4
 800520e:	4770      	bx	lr

08005210 <TIM_ETR_SetConfig>:
 8005210:	b480      	push	{r7}
 8005212:	b087      	sub	sp, #28
 8005214:	af00      	add	r7, sp, #0
 8005216:	60f8      	str	r0, [r7, #12]
 8005218:	60b9      	str	r1, [r7, #8]
 800521a:	607a      	str	r2, [r7, #4]
 800521c:	603b      	str	r3, [r7, #0]
 800521e:	68fb      	ldr	r3, [r7, #12]
 8005220:	689b      	ldr	r3, [r3, #8]
 8005222:	617b      	str	r3, [r7, #20]
 8005224:	697b      	ldr	r3, [r7, #20]
 8005226:	f423 437f 	bic.w	r3, r3, #65280	; 0xff00
 800522a:	617b      	str	r3, [r7, #20]
 800522c:	683b      	ldr	r3, [r7, #0]
 800522e:	021a      	lsls	r2, r3, #8
 8005230:	687b      	ldr	r3, [r7, #4]
 8005232:	431a      	orrs	r2, r3
 8005234:	68bb      	ldr	r3, [r7, #8]
 8005236:	4313      	orrs	r3, r2
 8005238:	697a      	ldr	r2, [r7, #20]
 800523a:	4313      	orrs	r3, r2
 800523c:	617b      	str	r3, [r7, #20]
 800523e:	68fb      	ldr	r3, [r7, #12]
 8005240:	697a      	ldr	r2, [r7, #20]
 8005242:	609a      	str	r2, [r3, #8]
 8005244:	bf00      	nop
 8005246:	371c      	adds	r7, #28
 8005248:	46bd      	mov	sp, r7
 800524a:	f85d 7b04 	ldr.w	r7, [sp], #4
 800524e:	4770      	bx	lr

08005250 <TIM_CCxChannelCmd>:
 8005250:	b480      	push	{r7}
 8005252:	b087      	sub	sp, #28
 8005254:	af00      	add	r7, sp, #0
 8005256:	60f8      	str	r0, [r7, #12]
 8005258:	60b9      	str	r1, [r7, #8]
 800525a:	607a      	str	r2, [r7, #4]
 800525c:	68bb      	ldr	r3, [r7, #8]
 800525e:	f003 031f 	and.w	r3, r3, #31
 8005262:	2201      	movs	r2, #1
 8005264:	fa02 f303 	lsl.w	r3, r2, r3
 8005268:	617b      	str	r3, [r7, #20]
 800526a:	68fb      	ldr	r3, [r7, #12]
 800526c:	6a1a      	ldr	r2, [r3, #32]
 800526e:	697b      	ldr	r3, [r7, #20]
 8005270:	43db      	mvns	r3, r3
 8005272:	401a      	ands	r2, r3
 8005274:	68fb      	ldr	r3, [r7, #12]
 8005276:	621a      	str	r2, [r3, #32]
 8005278:	68fb      	ldr	r3, [r7, #12]
 800527a:	6a1a      	ldr	r2, [r3, #32]
 800527c:	68bb      	ldr	r3, [r7, #8]
 800527e:	f003 031f 	and.w	r3, r3, #31
 8005282:	6879      	ldr	r1, [r7, #4]
 8005284:	fa01 f303 	lsl.w	r3, r1, r3
 8005288:	431a      	orrs	r2, r3
 800528a:	68fb      	ldr	r3, [r7, #12]
 800528c:	621a      	str	r2, [r3, #32]
 800528e:	bf00      	nop
 8005290:	371c      	adds	r7, #28
 8005292:	46bd      	mov	sp, r7
 8005294:	f85d 7b04 	ldr.w	r7, [sp], #4
 8005298:	4770      	bx	lr
	...

0800529c <HAL_TIMEx_MasterConfigSynchronization>:
 800529c:	b480      	push	{r7}
 800529e:	b085      	sub	sp, #20
 80052a0:	af00      	add	r7, sp, #0
 80052a2:	6078      	str	r0, [r7, #4]
 80052a4:	6039      	str	r1, [r7, #0]
 80052a6:	687b      	ldr	r3, [r7, #4]
 80052a8:	f893 303c 	ldrb.w	r3, [r3, #60]	; 0x3c
 80052ac:	2b01      	cmp	r3, #1
 80052ae:	d101      	bne.n	80052b4 <HAL_TIMEx_MasterConfigSynchronization+0x18>
 80052b0:	2302      	movs	r3, #2
 80052b2:	e05a      	b.n	800536a <HAL_TIMEx_MasterConfigSynchronization+0xce>
 80052b4:	687b      	ldr	r3, [r7, #4]
 80052b6:	2201      	movs	r2, #1
 80052b8:	f883 203c 	strb.w	r2, [r3, #60]	; 0x3c
 80052bc:	687b      	ldr	r3, [r7, #4]
 80052be:	2202      	movs	r2, #2
 80052c0:	f883 203d 	strb.w	r2, [r3, #61]	; 0x3d
 80052c4:	687b      	ldr	r3, [r7, #4]
 80052c6:	681b      	ldr	r3, [r3, #0]
 80052c8:	685b      	ldr	r3, [r3, #4]
 80052ca:	60fb      	str	r3, [r7, #12]
 80052cc:	687b      	ldr	r3, [r7, #4]
 80052ce:	681b      	ldr	r3, [r3, #0]
 80052d0:	689b      	ldr	r3, [r3, #8]
 80052d2:	60bb      	str	r3, [r7, #8]
 80052d4:	68fb      	ldr	r3, [r7, #12]
 80052d6:	f023 0370 	bic.w	r3, r3, #112	; 0x70
 80052da:	60fb      	str	r3, [r7, #12]
 80052dc:	683b      	ldr	r3, [r7, #0]
 80052de:	681b      	ldr	r3, [r3, #0]
 80052e0:	68fa      	ldr	r2, [r7, #12]
 80052e2:	4313      	orrs	r3, r2
 80052e4:	60fb      	str	r3, [r7, #12]
 80052e6:	687b      	ldr	r3, [r7, #4]
 80052e8:	681b      	ldr	r3, [r3, #0]
 80052ea:	68fa      	ldr	r2, [r7, #12]
 80052ec:	605a      	str	r2, [r3, #4]
 80052ee:	687b      	ldr	r3, [r7, #4]
 80052f0:	681b      	ldr	r3, [r3, #0]
 80052f2:	4a21      	ldr	r2, [pc, #132]	; (8005378 <HAL_TIMEx_MasterConfigSynchronization+0xdc>)
 80052f4:	4293      	cmp	r3, r2
 80052f6:	d022      	beq.n	800533e <HAL_TIMEx_MasterConfigSynchronization+0xa2>
 80052f8:	687b      	ldr	r3, [r7, #4]
 80052fa:	681b      	ldr	r3, [r3, #0]
 80052fc:	f1b3 4f80 	cmp.w	r3, #1073741824	; 0x40000000
 8005300:	d01d      	beq.n	800533e <HAL_TIMEx_MasterConfigSynchronization+0xa2>
 8005302:	687b      	ldr	r3, [r7, #4]
 8005304:	681b      	ldr	r3, [r3, #0]
 8005306:	4a1d      	ldr	r2, [pc, #116]	; (800537c <HAL_TIMEx_MasterConfigSynchronization+0xe0>)
 8005308:	4293      	cmp	r3, r2
 800530a:	d018      	beq.n	800533e <HAL_TIMEx_MasterConfigSynchronization+0xa2>
 800530c:	687b      	ldr	r3, [r7, #4]
 800530e:	681b      	ldr	r3, [r3, #0]
 8005310:	4a1b      	ldr	r2, [pc, #108]	; (8005380 <HAL_TIMEx_MasterConfigSynchronization+0xe4>)
 8005312:	4293      	cmp	r3, r2
 8005314:	d013      	beq.n	800533e <HAL_TIMEx_MasterConfigSynchronization+0xa2>
 8005316:	687b      	ldr	r3, [r7, #4]
 8005318:	681b      	ldr	r3, [r3, #0]
 800531a:	4a1a      	ldr	r2, [pc, #104]	; (8005384 <HAL_TIMEx_MasterConfigSynchronization+0xe8>)
 800531c:	4293      	cmp	r3, r2
 800531e:	d00e      	beq.n	800533e <HAL_TIMEx_MasterConfigSynchronization+0xa2>
 8005320:	687b      	ldr	r3, [r7, #4]
 8005322:	681b      	ldr	r3, [r3, #0]
 8005324:	4a18      	ldr	r2, [pc, #96]	; (8005388 <HAL_TIMEx_MasterConfigSynchronization+0xec>)
 8005326:	4293      	cmp	r3, r2
 8005328:	d009      	beq.n	800533e <HAL_TIMEx_MasterConfigSynchronization+0xa2>
 800532a:	687b      	ldr	r3, [r7, #4]
 800532c:	681b      	ldr	r3, [r3, #0]
 800532e:	4a17      	ldr	r2, [pc, #92]	; (800538c <HAL_TIMEx_MasterConfigSynchronization+0xf0>)
 8005330:	4293      	cmp	r3, r2
 8005332:	d004      	beq.n	800533e <HAL_TIMEx_MasterConfigSynchronization+0xa2>
 8005334:	687b      	ldr	r3, [r7, #4]
 8005336:	681b      	ldr	r3, [r3, #0]
 8005338:	4a15      	ldr	r2, [pc, #84]	; (8005390 <HAL_TIMEx_MasterConfigSynchronization+0xf4>)
 800533a:	4293      	cmp	r3, r2
 800533c:	d10c      	bne.n	8005358 <HAL_TIMEx_MasterConfigSynchronization+0xbc>
 800533e:	68bb      	ldr	r3, [r7, #8]
 8005340:	f023 0380 	bic.w	r3, r3, #128	; 0x80
 8005344:	60bb      	str	r3, [r7, #8]
 8005346:	683b      	ldr	r3, [r7, #0]
 8005348:	685b      	ldr	r3, [r3, #4]
 800534a:	68ba      	ldr	r2, [r7, #8]
 800534c:	4313      	orrs	r3, r2
 800534e:	60bb      	str	r3, [r7, #8]
 8005350:	687b      	ldr	r3, [r7, #4]
 8005352:	681b      	ldr	r3, [r3, #0]
 8005354:	68ba      	ldr	r2, [r7, #8]
 8005356:	609a      	str	r2, [r3, #8]
 8005358:	687b      	ldr	r3, [r7, #4]
 800535a:	2201      	movs	r2, #1
 800535c:	f883 203d 	strb.w	r2, [r3, #61]	; 0x3d
 8005360:	687b      	ldr	r3, [r7, #4]
 8005362:	2200      	movs	r2, #0
 8005364:	f883 203c 	strb.w	r2, [r3, #60]	; 0x3c
 8005368:	2300      	movs	r3, #0
 800536a:	4618      	mov	r0, r3
 800536c:	3714      	adds	r7, #20
 800536e:	46bd      	mov	sp, r7
 8005370:	f85d 7b04 	ldr.w	r7, [sp], #4
 8005374:	4770      	bx	lr
 8005376:	bf00      	nop
 8005378:	40010000 	.word	0x40010000
 800537c:	40000400 	.word	0x40000400
 8005380:	40000800 	.word	0x40000800
 8005384:	40000c00 	.word	0x40000c00
 8005388:	40010400 	.word	0x40010400
 800538c:	40014000 	.word	0x40014000
 8005390:	40001800 	.word	0x40001800

08005394 <HAL_TIMEx_CommutCallback>:
 8005394:	b480      	push	{r7}
 8005396:	b083      	sub	sp, #12
 8005398:	af00      	add	r7, sp, #0
 800539a:	6078      	str	r0, [r7, #4]
 800539c:	bf00      	nop
 800539e:	370c      	adds	r7, #12
 80053a0:	46bd      	mov	sp, r7
 80053a2:	f85d 7b04 	ldr.w	r7, [sp], #4
 80053a6:	4770      	bx	lr

080053a8 <HAL_TIMEx_BreakCallback>:
 80053a8:	b480      	push	{r7}
 80053aa:	b083      	sub	sp, #12
 80053ac:	af00      	add	r7, sp, #0
 80053ae:	6078      	str	r0, [r7, #4]
 80053b0:	bf00      	nop
 80053b2:	370c      	adds	r7, #12
 80053b4:	46bd      	mov	sp, r7
 80053b6:	f85d 7b04 	ldr.w	r7, [sp], #4
 80053ba:	4770      	bx	lr

080053bc <HAL_UART_Init>:
 80053bc:	b580      	push	{r7, lr}
 80053be:	b082      	sub	sp, #8
 80053c0:	af00      	add	r7, sp, #0
 80053c2:	6078      	str	r0, [r7, #4]
 80053c4:	687b      	ldr	r3, [r7, #4]
 80053c6:	2b00      	cmp	r3, #0
 80053c8:	d101      	bne.n	80053ce <HAL_UART_Init+0x12>
 80053ca:	2301      	movs	r3, #1
 80053cc:	e03f      	b.n	800544e <HAL_UART_Init+0x92>
 80053ce:	687b      	ldr	r3, [r7, #4]
 80053d0:	f893 3039 	ldrb.w	r3, [r3, #57]	; 0x39
 80053d4:	b2db      	uxtb	r3, r3
 80053d6:	2b00      	cmp	r3, #0
 80053d8:	d106      	bne.n	80053e8 <HAL_UART_Init+0x2c>
 80053da:	687b      	ldr	r3, [r7, #4]
 80053dc:	2200      	movs	r2, #0
 80053de:	f883 2038 	strb.w	r2, [r3, #56]	; 0x38
 80053e2:	6878      	ldr	r0, [r7, #4]
 80053e4:	f7fc fbc0 	bl	8001b68 <HAL_UART_MspInit>
 80053e8:	687b      	ldr	r3, [r7, #4]
 80053ea:	2224      	movs	r2, #36	; 0x24
 80053ec:	f883 2039 	strb.w	r2, [r3, #57]	; 0x39
 80053f0:	687b      	ldr	r3, [r7, #4]
 80053f2:	681b      	ldr	r3, [r3, #0]
 80053f4:	68da      	ldr	r2, [r3, #12]
 80053f6:	687b      	ldr	r3, [r7, #4]
 80053f8:	681b      	ldr	r3, [r3, #0]
 80053fa:	f422 5200 	bic.w	r2, r2, #8192	; 0x2000
 80053fe:	60da      	str	r2, [r3, #12]
 8005400:	6878      	ldr	r0, [r7, #4]
 8005402:	f000 f829 	bl	8005458 <UART_SetConfig>
 8005406:	687b      	ldr	r3, [r7, #4]
 8005408:	681b      	ldr	r3, [r3, #0]
 800540a:	691a      	ldr	r2, [r3, #16]
 800540c:	687b      	ldr	r3, [r7, #4]
 800540e:	681b      	ldr	r3, [r3, #0]
 8005410:	f422 4290 	bic.w	r2, r2, #18432	; 0x4800
 8005414:	611a      	str	r2, [r3, #16]
 8005416:	687b      	ldr	r3, [r7, #4]
 8005418:	681b      	ldr	r3, [r3, #0]
 800541a:	695a      	ldr	r2, [r3, #20]
 800541c:	687b      	ldr	r3, [r7, #4]
 800541e:	681b      	ldr	r3, [r3, #0]
 8005420:	f022 022a 	bic.w	r2, r2, #42	; 0x2a
 8005424:	615a      	str	r2, [r3, #20]
 8005426:	687b      	ldr	r3, [r7, #4]
 8005428:	681b      	ldr	r3, [r3, #0]
 800542a:	68da      	ldr	r2, [r3, #12]
 800542c:	687b      	ldr	r3, [r7, #4]
 800542e:	681b      	ldr	r3, [r3, #0]
 8005430:	f442 5200 	orr.w	r2, r2, #8192	; 0x2000
 8005434:	60da      	str	r2, [r3, #12]
 8005436:	687b      	ldr	r3, [r7, #4]
 8005438:	2200      	movs	r2, #0
 800543a:	63da      	str	r2, [r3, #60]	; 0x3c
 800543c:	687b      	ldr	r3, [r7, #4]
 800543e:	2220      	movs	r2, #32
 8005440:	f883 2039 	strb.w	r2, [r3, #57]	; 0x39
 8005444:	687b      	ldr	r3, [r7, #4]
 8005446:	2220      	movs	r2, #32
 8005448:	f883 203a 	strb.w	r2, [r3, #58]	; 0x3a
 800544c:	2300      	movs	r3, #0
 800544e:	4618      	mov	r0, r3
 8005450:	3708      	adds	r7, #8
 8005452:	46bd      	mov	sp, r7
 8005454:	bd80      	pop	{r7, pc}
	...

08005458 <UART_SetConfig>:
 8005458:	e92d 4ff0 	stmdb	sp!, {r4, r5, r6, r7, r8, r9, sl, fp, lr}
 800545c:	b085      	sub	sp, #20
 800545e:	af00      	add	r7, sp, #0
 8005460:	6078      	str	r0, [r7, #4]
 8005462:	687b      	ldr	r3, [r7, #4]
 8005464:	681b      	ldr	r3, [r3, #0]
 8005466:	691b      	ldr	r3, [r3, #16]
 8005468:	f423 5140 	bic.w	r1, r3, #12288	; 0x3000
 800546c:	687b      	ldr	r3, [r7, #4]
 800546e:	68da      	ldr	r2, [r3, #12]
 8005470:	687b      	ldr	r3, [r7, #4]
 8005472:	681b      	ldr	r3, [r3, #0]
 8005474:	430a      	orrs	r2, r1
 8005476:	611a      	str	r2, [r3, #16]
 8005478:	687b      	ldr	r3, [r7, #4]
 800547a:	689a      	ldr	r2, [r3, #8]
 800547c:	687b      	ldr	r3, [r7, #4]
 800547e:	691b      	ldr	r3, [r3, #16]
 8005480:	431a      	orrs	r2, r3
 8005482:	687b      	ldr	r3, [r7, #4]
 8005484:	695b      	ldr	r3, [r3, #20]
 8005486:	431a      	orrs	r2, r3
 8005488:	687b      	ldr	r3, [r7, #4]
 800548a:	69db      	ldr	r3, [r3, #28]
 800548c:	4313      	orrs	r3, r2
 800548e:	60fb      	str	r3, [r7, #12]
 8005490:	687b      	ldr	r3, [r7, #4]
 8005492:	681b      	ldr	r3, [r3, #0]
 8005494:	68db      	ldr	r3, [r3, #12]
 8005496:	f423 4316 	bic.w	r3, r3, #38400	; 0x9600
 800549a:	f023 030c 	bic.w	r3, r3, #12
 800549e:	687a      	ldr	r2, [r7, #4]
 80054a0:	6812      	ldr	r2, [r2, #0]
 80054a2:	68f9      	ldr	r1, [r7, #12]
 80054a4:	430b      	orrs	r3, r1
 80054a6:	60d3      	str	r3, [r2, #12]
 80054a8:	687b      	ldr	r3, [r7, #4]
 80054aa:	681b      	ldr	r3, [r3, #0]
 80054ac:	695b      	ldr	r3, [r3, #20]
 80054ae:	f423 7140 	bic.w	r1, r3, #768	; 0x300
 80054b2:	687b      	ldr	r3, [r7, #4]
 80054b4:	699a      	ldr	r2, [r3, #24]
 80054b6:	687b      	ldr	r3, [r7, #4]
 80054b8:	681b      	ldr	r3, [r3, #0]
 80054ba:	430a      	orrs	r2, r1
 80054bc:	615a      	str	r2, [r3, #20]
 80054be:	687b      	ldr	r3, [r7, #4]
 80054c0:	69db      	ldr	r3, [r3, #28]
 80054c2:	f5b3 4f00 	cmp.w	r3, #32768	; 0x8000
 80054c6:	f040 818b 	bne.w	80057e0 <UART_SetConfig+0x388>
 80054ca:	687b      	ldr	r3, [r7, #4]
 80054cc:	681b      	ldr	r3, [r3, #0]
 80054ce:	4ac1      	ldr	r2, [pc, #772]	; (80057d4 <UART_SetConfig+0x37c>)
 80054d0:	4293      	cmp	r3, r2
 80054d2:	d005      	beq.n	80054e0 <UART_SetConfig+0x88>
 80054d4:	687b      	ldr	r3, [r7, #4]
 80054d6:	681b      	ldr	r3, [r3, #0]
 80054d8:	4abf      	ldr	r2, [pc, #764]	; (80057d8 <UART_SetConfig+0x380>)
 80054da:	4293      	cmp	r3, r2
 80054dc:	f040 80bd 	bne.w	800565a <UART_SetConfig+0x202>
 80054e0:	f7fe ff64 	bl	80043ac <HAL_RCC_GetPCLK2Freq>
 80054e4:	60b8      	str	r0, [r7, #8]
 80054e6:	68bb      	ldr	r3, [r7, #8]
 80054e8:	461d      	mov	r5, r3
 80054ea:	f04f 0600 	mov.w	r6, #0
 80054ee:	46a8      	mov	r8, r5
 80054f0:	46b1      	mov	r9, r6
 80054f2:	eb18 0308 	adds.w	r3, r8, r8
 80054f6:	eb49 0409 	adc.w	r4, r9, r9
 80054fa:	4698      	mov	r8, r3
 80054fc:	46a1      	mov	r9, r4
 80054fe:	eb18 0805 	adds.w	r8, r8, r5
 8005502:	eb49 0906 	adc.w	r9, r9, r6
 8005506:	f04f 0100 	mov.w	r1, #0
 800550a:	f04f 0200 	mov.w	r2, #0
 800550e:	ea4f 02c9 	mov.w	r2, r9, lsl #3
 8005512:	ea42 7258 	orr.w	r2, r2, r8, lsr #29
 8005516:	ea4f 01c8 	mov.w	r1, r8, lsl #3
 800551a:	4688      	mov	r8, r1
 800551c:	4691      	mov	r9, r2
 800551e:	eb18 0005 	adds.w	r0, r8, r5
 8005522:	eb49 0106 	adc.w	r1, r9, r6
 8005526:	687b      	ldr	r3, [r7, #4]
 8005528:	685b      	ldr	r3, [r3, #4]
 800552a:	461d      	mov	r5, r3
 800552c:	f04f 0600 	mov.w	r6, #0
 8005530:	196b      	adds	r3, r5, r5
 8005532:	eb46 0406 	adc.w	r4, r6, r6
 8005536:	461a      	mov	r2, r3
 8005538:	4623      	mov	r3, r4
 800553a:	f7fa fe49 	bl	80001d0 <__aeabi_uldivmod>
 800553e:	4603      	mov	r3, r0
 8005540:	460c      	mov	r4, r1
 8005542:	461a      	mov	r2, r3
 8005544:	4ba5      	ldr	r3, [pc, #660]	; (80057dc <UART_SetConfig+0x384>)
 8005546:	fba3 2302 	umull	r2, r3, r3, r2
 800554a:	095b      	lsrs	r3, r3, #5
 800554c:	ea4f 1803 	mov.w	r8, r3, lsl #4
 8005550:	68bb      	ldr	r3, [r7, #8]
 8005552:	461d      	mov	r5, r3
 8005554:	f04f 0600 	mov.w	r6, #0
 8005558:	46a9      	mov	r9, r5
 800555a:	46b2      	mov	sl, r6
 800555c:	eb19 0309 	adds.w	r3, r9, r9
 8005560:	eb4a 040a 	adc.w	r4, sl, sl
 8005564:	4699      	mov	r9, r3
 8005566:	46a2      	mov	sl, r4
 8005568:	eb19 0905 	adds.w	r9, r9, r5
 800556c:	eb4a 0a06 	adc.w	sl, sl, r6
 8005570:	f04f 0100 	mov.w	r1, #0
 8005574:	f04f 0200 	mov.w	r2, #0
 8005578:	ea4f 02ca 	mov.w	r2, sl, lsl #3
 800557c:	ea42 7259 	orr.w	r2, r2, r9, lsr #29
 8005580:	ea4f 01c9 	mov.w	r1, r9, lsl #3
 8005584:	4689      	mov	r9, r1
 8005586:	4692      	mov	sl, r2
 8005588:	eb19 0005 	adds.w	r0, r9, r5
 800558c:	eb4a 0106 	adc.w	r1, sl, r6
 8005590:	687b      	ldr	r3, [r7, #4]
 8005592:	685b      	ldr	r3, [r3, #4]
 8005594:	461d      	mov	r5, r3
 8005596:	f04f 0600 	mov.w	r6, #0
 800559a:	196b      	adds	r3, r5, r5
 800559c:	eb46 0406 	adc.w	r4, r6, r6
 80055a0:	461a      	mov	r2, r3
 80055a2:	4623      	mov	r3, r4
 80055a4:	f7fa fe14 	bl	80001d0 <__aeabi_uldivmod>
 80055a8:	4603      	mov	r3, r0
 80055aa:	460c      	mov	r4, r1
 80055ac:	461a      	mov	r2, r3
 80055ae:	4b8b      	ldr	r3, [pc, #556]	; (80057dc <UART_SetConfig+0x384>)
 80055b0:	fba3 1302 	umull	r1, r3, r3, r2
 80055b4:	095b      	lsrs	r3, r3, #5
 80055b6:	2164      	movs	r1, #100	; 0x64
 80055b8:	fb01 f303 	mul.w	r3, r1, r3
 80055bc:	1ad3      	subs	r3, r2, r3
 80055be:	00db      	lsls	r3, r3, #3
 80055c0:	3332      	adds	r3, #50	; 0x32
 80055c2:	4a86      	ldr	r2, [pc, #536]	; (80057dc <UART_SetConfig+0x384>)
 80055c4:	fba2 2303 	umull	r2, r3, r2, r3
 80055c8:	095b      	lsrs	r3, r3, #5
 80055ca:	005b      	lsls	r3, r3, #1
 80055cc:	f403 73f8 	and.w	r3, r3, #496	; 0x1f0
 80055d0:	4498      	add	r8, r3
 80055d2:	68bb      	ldr	r3, [r7, #8]
 80055d4:	461d      	mov	r5, r3
 80055d6:	f04f 0600 	mov.w	r6, #0
 80055da:	46a9      	mov	r9, r5
 80055dc:	46b2      	mov	sl, r6
 80055de:	eb19 0309 	adds.w	r3, r9, r9
 80055e2:	eb4a 040a 	adc.w	r4, sl, sl
 80055e6:	4699      	mov	r9, r3
 80055e8:	46a2      	mov	sl, r4
 80055ea:	eb19 0905 	adds.w	r9, r9, r5
 80055ee:	eb4a 0a06 	adc.w	sl, sl, r6
 80055f2:	f04f 0100 	mov.w	r1, #0
 80055f6:	f04f 0200 	mov.w	r2, #0
 80055fa:	ea4f 02ca 	mov.w	r2, sl, lsl #3
 80055fe:	ea42 7259 	orr.w	r2, r2, r9, lsr #29
 8005602:	ea4f 01c9 	mov.w	r1, r9, lsl #3
 8005606:	4689      	mov	r9, r1
 8005608:	4692      	mov	sl, r2
 800560a:	eb19 0005 	adds.w	r0, r9, r5
 800560e:	eb4a 0106 	adc.w	r1, sl, r6
 8005612:	687b      	ldr	r3, [r7, #4]
 8005614:	685b      	ldr	r3, [r3, #4]
 8005616:	461d      	mov	r5, r3
 8005618:	f04f 0600 	mov.w	r6, #0
 800561c:	196b      	adds	r3, r5, r5
 800561e:	eb46 0406 	adc.w	r4, r6, r6
 8005622:	461a      	mov	r2, r3
 8005624:	4623      	mov	r3, r4
 8005626:	f7fa fdd3 	bl	80001d0 <__aeabi_uldivmod>
 800562a:	4603      	mov	r3, r0
 800562c:	460c      	mov	r4, r1
 800562e:	461a      	mov	r2, r3
 8005630:	4b6a      	ldr	r3, [pc, #424]	; (80057dc <UART_SetConfig+0x384>)
 8005632:	fba3 1302 	umull	r1, r3, r3, r2
 8005636:	095b      	lsrs	r3, r3, #5
 8005638:	2164      	movs	r1, #100	; 0x64
 800563a:	fb01 f303 	mul.w	r3, r1, r3
 800563e:	1ad3      	subs	r3, r2, r3
 8005640:	00db      	lsls	r3, r3, #3
 8005642:	3332      	adds	r3, #50	; 0x32
 8005644:	4a65      	ldr	r2, [pc, #404]	; (80057dc <UART_SetConfig+0x384>)
 8005646:	fba2 2303 	umull	r2, r3, r2, r3
 800564a:	095b      	lsrs	r3, r3, #5
 800564c:	f003 0207 	and.w	r2, r3, #7
 8005650:	687b      	ldr	r3, [r7, #4]
 8005652:	681b      	ldr	r3, [r3, #0]
 8005654:	4442      	add	r2, r8
 8005656:	609a      	str	r2, [r3, #8]
 8005658:	e26f      	b.n	8005b3a <UART_SetConfig+0x6e2>
 800565a:	f7fe fe93 	bl	8004384 <HAL_RCC_GetPCLK1Freq>
 800565e:	60b8      	str	r0, [r7, #8]
 8005660:	68bb      	ldr	r3, [r7, #8]
 8005662:	461d      	mov	r5, r3
 8005664:	f04f 0600 	mov.w	r6, #0
 8005668:	46a8      	mov	r8, r5
 800566a:	46b1      	mov	r9, r6
 800566c:	eb18 0308 	adds.w	r3, r8, r8
 8005670:	eb49 0409 	adc.w	r4, r9, r9
 8005674:	4698      	mov	r8, r3
 8005676:	46a1      	mov	r9, r4
 8005678:	eb18 0805 	adds.w	r8, r8, r5
 800567c:	eb49 0906 	adc.w	r9, r9, r6
 8005680:	f04f 0100 	mov.w	r1, #0
 8005684:	f04f 0200 	mov.w	r2, #0
 8005688:	ea4f 02c9 	mov.w	r2, r9, lsl #3
 800568c:	ea42 7258 	orr.w	r2, r2, r8, lsr #29
 8005690:	ea4f 01c8 	mov.w	r1, r8, lsl #3
 8005694:	4688      	mov	r8, r1
 8005696:	4691      	mov	r9, r2
 8005698:	eb18 0005 	adds.w	r0, r8, r5
 800569c:	eb49 0106 	adc.w	r1, r9, r6
 80056a0:	687b      	ldr	r3, [r7, #4]
 80056a2:	685b      	ldr	r3, [r3, #4]
 80056a4:	461d      	mov	r5, r3
 80056a6:	f04f 0600 	mov.w	r6, #0
 80056aa:	196b      	adds	r3, r5, r5
 80056ac:	eb46 0406 	adc.w	r4, r6, r6
 80056b0:	461a      	mov	r2, r3
 80056b2:	4623      	mov	r3, r4
 80056b4:	f7fa fd8c 	bl	80001d0 <__aeabi_uldivmod>
 80056b8:	4603      	mov	r3, r0
 80056ba:	460c      	mov	r4, r1
 80056bc:	461a      	mov	r2, r3
 80056be:	4b47      	ldr	r3, [pc, #284]	; (80057dc <UART_SetConfig+0x384>)
 80056c0:	fba3 2302 	umull	r2, r3, r3, r2
 80056c4:	095b      	lsrs	r3, r3, #5
 80056c6:	ea4f 1803 	mov.w	r8, r3, lsl #4
 80056ca:	68bb      	ldr	r3, [r7, #8]
 80056cc:	461d      	mov	r5, r3
 80056ce:	f04f 0600 	mov.w	r6, #0
 80056d2:	46a9      	mov	r9, r5
 80056d4:	46b2      	mov	sl, r6
 80056d6:	eb19 0309 	adds.w	r3, r9, r9
 80056da:	eb4a 040a 	adc.w	r4, sl, sl
 80056de:	4699      	mov	r9, r3
 80056e0:	46a2      	mov	sl, r4
 80056e2:	eb19 0905 	adds.w	r9, r9, r5
 80056e6:	eb4a 0a06 	adc.w	sl, sl, r6
 80056ea:	f04f 0100 	mov.w	r1, #0
 80056ee:	f04f 0200 	mov.w	r2, #0
 80056f2:	ea4f 02ca 	mov.w	r2, sl, lsl #3
 80056f6:	ea42 7259 	orr.w	r2, r2, r9, lsr #29
 80056fa:	ea4f 01c9 	mov.w	r1, r9, lsl #3
 80056fe:	4689      	mov	r9, r1
 8005700:	4692      	mov	sl, r2
 8005702:	eb19 0005 	adds.w	r0, r9, r5
 8005706:	eb4a 0106 	adc.w	r1, sl, r6
 800570a:	687b      	ldr	r3, [r7, #4]
 800570c:	685b      	ldr	r3, [r3, #4]
 800570e:	461d      	mov	r5, r3
 8005710:	f04f 0600 	mov.w	r6, #0
 8005714:	196b      	adds	r3, r5, r5
 8005716:	eb46 0406 	adc.w	r4, r6, r6
 800571a:	461a      	mov	r2, r3
 800571c:	4623      	mov	r3, r4
 800571e:	f7fa fd57 	bl	80001d0 <__aeabi_uldivmod>
 8005722:	4603      	mov	r3, r0
 8005724:	460c      	mov	r4, r1
 8005726:	461a      	mov	r2, r3
 8005728:	4b2c      	ldr	r3, [pc, #176]	; (80057dc <UART_SetConfig+0x384>)
 800572a:	fba3 1302 	umull	r1, r3, r3, r2
 800572e:	095b      	lsrs	r3, r3, #5
 8005730:	2164      	movs	r1, #100	; 0x64
 8005732:	fb01 f303 	mul.w	r3, r1, r3
 8005736:	1ad3      	subs	r3, r2, r3
 8005738:	00db      	lsls	r3, r3, #3
 800573a:	3332      	adds	r3, #50	; 0x32
 800573c:	4a27      	ldr	r2, [pc, #156]	; (80057dc <UART_SetConfig+0x384>)
 800573e:	fba2 2303 	umull	r2, r3, r2, r3
 8005742:	095b      	lsrs	r3, r3, #5
 8005744:	005b      	lsls	r3, r3, #1
 8005746:	f403 73f8 	and.w	r3, r3, #496	; 0x1f0
 800574a:	4498      	add	r8, r3
 800574c:	68bb      	ldr	r3, [r7, #8]
 800574e:	461d      	mov	r5, r3
 8005750:	f04f 0600 	mov.w	r6, #0
 8005754:	46a9      	mov	r9, r5
 8005756:	46b2      	mov	sl, r6
 8005758:	eb19 0309 	adds.w	r3, r9, r9
 800575c:	eb4a 040a 	adc.w	r4, sl, sl
 8005760:	4699      	mov	r9, r3
 8005762:	46a2      	mov	sl, r4
 8005764:	eb19 0905 	adds.w	r9, r9, r5
 8005768:	eb4a 0a06 	adc.w	sl, sl, r6
 800576c:	f04f 0100 	mov.w	r1, #0
 8005770:	f04f 0200 	mov.w	r2, #0
 8005774:	ea4f 02ca 	mov.w	r2, sl, lsl #3
 8005778:	ea42 7259 	orr.w	r2, r2, r9, lsr #29
 800577c:	ea4f 01c9 	mov.w	r1, r9, lsl #3
 8005780:	4689      	mov	r9, r1
 8005782:	4692      	mov	sl, r2
 8005784:	eb19 0005 	adds.w	r0, r9, r5
 8005788:	eb4a 0106 	adc.w	r1, sl, r6
 800578c:	687b      	ldr	r3, [r7, #4]
 800578e:	685b      	ldr	r3, [r3, #4]
 8005790:	461d      	mov	r5, r3
 8005792:	f04f 0600 	mov.w	r6, #0
 8005796:	196b      	adds	r3, r5, r5
 8005798:	eb46 0406 	adc.w	r4, r6, r6
 800579c:	461a      	mov	r2, r3
 800579e:	4623      	mov	r3, r4
 80057a0:	f7fa fd16 	bl	80001d0 <__aeabi_uldivmod>
 80057a4:	4603      	mov	r3, r0
 80057a6:	460c      	mov	r4, r1
 80057a8:	461a      	mov	r2, r3
 80057aa:	4b0c      	ldr	r3, [pc, #48]	; (80057dc <UART_SetConfig+0x384>)
 80057ac:	fba3 1302 	umull	r1, r3, r3, r2
 80057b0:	095b      	lsrs	r3, r3, #5
 80057b2:	2164      	movs	r1, #100	; 0x64
 80057b4:	fb01 f303 	mul.w	r3, r1, r3
 80057b8:	1ad3      	subs	r3, r2, r3
 80057ba:	00db      	lsls	r3, r3, #3
 80057bc:	3332      	adds	r3, #50	; 0x32
 80057be:	4a07      	ldr	r2, [pc, #28]	; (80057dc <UART_SetConfig+0x384>)
 80057c0:	fba2 2303 	umull	r2, r3, r2, r3
 80057c4:	095b      	lsrs	r3, r3, #5
 80057c6:	f003 0207 	and.w	r2, r3, #7
 80057ca:	687b      	ldr	r3, [r7, #4]
 80057cc:	681b      	ldr	r3, [r3, #0]
 80057ce:	4442      	add	r2, r8
 80057d0:	609a      	str	r2, [r3, #8]
 80057d2:	e1b2      	b.n	8005b3a <UART_SetConfig+0x6e2>
 80057d4:	40011000 	.word	0x40011000
 80057d8:	40011400 	.word	0x40011400
 80057dc:	51eb851f 	.word	0x51eb851f
 80057e0:	687b      	ldr	r3, [r7, #4]
 80057e2:	681b      	ldr	r3, [r3, #0]
 80057e4:	4ad7      	ldr	r2, [pc, #860]	; (8005b44 <UART_SetConfig+0x6ec>)
 80057e6:	4293      	cmp	r3, r2
 80057e8:	d005      	beq.n	80057f6 <UART_SetConfig+0x39e>
 80057ea:	687b      	ldr	r3, [r7, #4]
 80057ec:	681b      	ldr	r3, [r3, #0]
 80057ee:	4ad6      	ldr	r2, [pc, #856]	; (8005b48 <UART_SetConfig+0x6f0>)
 80057f0:	4293      	cmp	r3, r2
 80057f2:	f040 80d1 	bne.w	8005998 <UART_SetConfig+0x540>
 80057f6:	f7fe fdd9 	bl	80043ac <HAL_RCC_GetPCLK2Freq>
 80057fa:	60b8      	str	r0, [r7, #8]
 80057fc:	68bb      	ldr	r3, [r7, #8]
 80057fe:	469a      	mov	sl, r3
 8005800:	f04f 0b00 	mov.w	fp, #0
 8005804:	46d0      	mov	r8, sl
 8005806:	46d9      	mov	r9, fp
 8005808:	eb18 0308 	adds.w	r3, r8, r8
 800580c:	eb49 0409 	adc.w	r4, r9, r9
 8005810:	4698      	mov	r8, r3
 8005812:	46a1      	mov	r9, r4
 8005814:	eb18 080a 	adds.w	r8, r8, sl
 8005818:	eb49 090b 	adc.w	r9, r9, fp
 800581c:	f04f 0100 	mov.w	r1, #0
 8005820:	f04f 0200 	mov.w	r2, #0
 8005824:	ea4f 02c9 	mov.w	r2, r9, lsl #3
 8005828:	ea42 7258 	orr.w	r2, r2, r8, lsr #29
 800582c:	ea4f 01c8 	mov.w	r1, r8, lsl #3
 8005830:	4688      	mov	r8, r1
 8005832:	4691      	mov	r9, r2
 8005834:	eb1a 0508 	adds.w	r5, sl, r8
 8005838:	eb4b 0609 	adc.w	r6, fp, r9
 800583c:	687b      	ldr	r3, [r7, #4]
 800583e:	685b      	ldr	r3, [r3, #4]
 8005840:	4619      	mov	r1, r3
 8005842:	f04f 0200 	mov.w	r2, #0
 8005846:	f04f 0300 	mov.w	r3, #0
 800584a:	f04f 0400 	mov.w	r4, #0
 800584e:	0094      	lsls	r4, r2, #2
 8005850:	ea44 7491 	orr.w	r4, r4, r1, lsr #30
 8005854:	008b      	lsls	r3, r1, #2
 8005856:	461a      	mov	r2, r3
 8005858:	4623      	mov	r3, r4
 800585a:	4628      	mov	r0, r5
 800585c:	4631      	mov	r1, r6
 800585e:	f7fa fcb7 	bl	80001d0 <__aeabi_uldivmod>
 8005862:	4603      	mov	r3, r0
 8005864:	460c      	mov	r4, r1
 8005866:	461a      	mov	r2, r3
 8005868:	4bb8      	ldr	r3, [pc, #736]	; (8005b4c <UART_SetConfig+0x6f4>)
 800586a:	fba3 2302 	umull	r2, r3, r3, r2
 800586e:	095b      	lsrs	r3, r3, #5
 8005870:	ea4f 1803 	mov.w	r8, r3, lsl #4
 8005874:	68bb      	ldr	r3, [r7, #8]
 8005876:	469b      	mov	fp, r3
 8005878:	f04f 0c00 	mov.w	ip, #0
 800587c:	46d9      	mov	r9, fp
 800587e:	46e2      	mov	sl, ip
 8005880:	eb19 0309 	adds.w	r3, r9, r9
 8005884:	eb4a 040a 	adc.w	r4, sl, sl
 8005888:	4699      	mov	r9, r3
 800588a:	46a2      	mov	sl, r4
 800588c:	eb19 090b 	adds.w	r9, r9, fp
 8005890:	eb4a 0a0c 	adc.w	sl, sl, ip
 8005894:	f04f 0100 	mov.w	r1, #0
 8005898:	f04f 0200 	mov.w	r2, #0
 800589c:	ea4f 02ca 	mov.w	r2, sl, lsl #3
 80058a0:	ea42 7259 	orr.w	r2, r2, r9, lsr #29
 80058a4:	ea4f 01c9 	mov.w	r1, r9, lsl #3
 80058a8:	4689      	mov	r9, r1
 80058aa:	4692      	mov	sl, r2
 80058ac:	eb1b 0509 	adds.w	r5, fp, r9
 80058b0:	eb4c 060a 	adc.w	r6, ip, sl
 80058b4:	687b      	ldr	r3, [r7, #4]
 80058b6:	685b      	ldr	r3, [r3, #4]
 80058b8:	4619      	mov	r1, r3
 80058ba:	f04f 0200 	mov.w	r2, #0
 80058be:	f04f 0300 	mov.w	r3, #0
 80058c2:	f04f 0400 	mov.w	r4, #0
 80058c6:	0094      	lsls	r4, r2, #2
 80058c8:	ea44 7491 	orr.w	r4, r4, r1, lsr #30
 80058cc:	008b      	lsls	r3, r1, #2
 80058ce:	461a      	mov	r2, r3
 80058d0:	4623      	mov	r3, r4
 80058d2:	4628      	mov	r0, r5
 80058d4:	4631      	mov	r1, r6
 80058d6:	f7fa fc7b 	bl	80001d0 <__aeabi_uldivmod>
 80058da:	4603      	mov	r3, r0
 80058dc:	460c      	mov	r4, r1
 80058de:	461a      	mov	r2, r3
 80058e0:	4b9a      	ldr	r3, [pc, #616]	; (8005b4c <UART_SetConfig+0x6f4>)
 80058e2:	fba3 1302 	umull	r1, r3, r3, r2
 80058e6:	095b      	lsrs	r3, r3, #5
 80058e8:	2164      	movs	r1, #100	; 0x64
 80058ea:	fb01 f303 	mul.w	r3, r1, r3
 80058ee:	1ad3      	subs	r3, r2, r3
 80058f0:	011b      	lsls	r3, r3, #4
 80058f2:	3332      	adds	r3, #50	; 0x32
 80058f4:	4a95      	ldr	r2, [pc, #596]	; (8005b4c <UART_SetConfig+0x6f4>)
 80058f6:	fba2 2303 	umull	r2, r3, r2, r3
 80058fa:	095b      	lsrs	r3, r3, #5
 80058fc:	f003 03f0 	and.w	r3, r3, #240	; 0xf0
 8005900:	4498      	add	r8, r3
 8005902:	68bb      	ldr	r3, [r7, #8]
 8005904:	469b      	mov	fp, r3
 8005906:	f04f 0c00 	mov.w	ip, #0
 800590a:	46d9      	mov	r9, fp
 800590c:	46e2      	mov	sl, ip
 800590e:	eb19 0309 	adds.w	r3, r9, r9
 8005912:	eb4a 040a 	adc.w	r4, sl, sl
 8005916:	4699      	mov	r9, r3
 8005918:	46a2      	mov	sl, r4
 800591a:	eb19 090b 	adds.w	r9, r9, fp
 800591e:	eb4a 0a0c 	adc.w	sl, sl, ip
 8005922:	f04f 0100 	mov.w	r1, #0
 8005926:	f04f 0200 	mov.w	r2, #0
 800592a:	ea4f 02ca 	mov.w	r2, sl, lsl #3
 800592e:	ea42 7259 	orr.w	r2, r2, r9, lsr #29
 8005932:	ea4f 01c9 	mov.w	r1, r9, lsl #3
 8005936:	4689      	mov	r9, r1
 8005938:	4692      	mov	sl, r2
 800593a:	eb1b 0509 	adds.w	r5, fp, r9
 800593e:	eb4c 060a 	adc.w	r6, ip, sl
 8005942:	687b      	ldr	r3, [r7, #4]
 8005944:	685b      	ldr	r3, [r3, #4]
 8005946:	4619      	mov	r1, r3
 8005948:	f04f 0200 	mov.w	r2, #0
 800594c:	f04f 0300 	mov.w	r3, #0
 8005950:	f04f 0400 	mov.w	r4, #0
 8005954:	0094      	lsls	r4, r2, #2
 8005956:	ea44 7491 	orr.w	r4, r4, r1, lsr #30
 800595a:	008b      	lsls	r3, r1, #2
 800595c:	461a      	mov	r2, r3
 800595e:	4623      	mov	r3, r4
 8005960:	4628      	mov	r0, r5
 8005962:	4631      	mov	r1, r6
 8005964:	f7fa fc34 	bl	80001d0 <__aeabi_uldivmod>
 8005968:	4603      	mov	r3, r0
 800596a:	460c      	mov	r4, r1
 800596c:	461a      	mov	r2, r3
 800596e:	4b77      	ldr	r3, [pc, #476]	; (8005b4c <UART_SetConfig+0x6f4>)
 8005970:	fba3 1302 	umull	r1, r3, r3, r2
 8005974:	095b      	lsrs	r3, r3, #5
 8005976:	2164      	movs	r1, #100	; 0x64
 8005978:	fb01 f303 	mul.w	r3, r1, r3
 800597c:	1ad3      	subs	r3, r2, r3
 800597e:	011b      	lsls	r3, r3, #4
 8005980:	3332      	adds	r3, #50	; 0x32
 8005982:	4a72      	ldr	r2, [pc, #456]	; (8005b4c <UART_SetConfig+0x6f4>)
 8005984:	fba2 2303 	umull	r2, r3, r2, r3
 8005988:	095b      	lsrs	r3, r3, #5
 800598a:	f003 020f 	and.w	r2, r3, #15
 800598e:	687b      	ldr	r3, [r7, #4]
 8005990:	681b      	ldr	r3, [r3, #0]
 8005992:	4442      	add	r2, r8
 8005994:	609a      	str	r2, [r3, #8]
 8005996:	e0d0      	b.n	8005b3a <UART_SetConfig+0x6e2>
 8005998:	f7fe fcf4 	bl	8004384 <HAL_RCC_GetPCLK1Freq>
 800599c:	60b8      	str	r0, [r7, #8]
 800599e:	68bb      	ldr	r3, [r7, #8]
 80059a0:	469a      	mov	sl, r3
 80059a2:	f04f 0b00 	mov.w	fp, #0
 80059a6:	46d0      	mov	r8, sl
 80059a8:	46d9      	mov	r9, fp
 80059aa:	eb18 0308 	adds.w	r3, r8, r8
 80059ae:	eb49 0409 	adc.w	r4, r9, r9
 80059b2:	4698      	mov	r8, r3
 80059b4:	46a1      	mov	r9, r4
 80059b6:	eb18 080a 	adds.w	r8, r8, sl
 80059ba:	eb49 090b 	adc.w	r9, r9, fp
 80059be:	f04f 0100 	mov.w	r1, #0
 80059c2:	f04f 0200 	mov.w	r2, #0
 80059c6:	ea4f 02c9 	mov.w	r2, r9, lsl #3
 80059ca:	ea42 7258 	orr.w	r2, r2, r8, lsr #29
 80059ce:	ea4f 01c8 	mov.w	r1, r8, lsl #3
 80059d2:	4688      	mov	r8, r1
 80059d4:	4691      	mov	r9, r2
 80059d6:	eb1a 0508 	adds.w	r5, sl, r8
 80059da:	eb4b 0609 	adc.w	r6, fp, r9
 80059de:	687b      	ldr	r3, [r7, #4]
 80059e0:	685b      	ldr	r3, [r3, #4]
 80059e2:	4619      	mov	r1, r3
 80059e4:	f04f 0200 	mov.w	r2, #0
 80059e8:	f04f 0300 	mov.w	r3, #0
 80059ec:	f04f 0400 	mov.w	r4, #0
 80059f0:	0094      	lsls	r4, r2, #2
 80059f2:	ea44 7491 	orr.w	r4, r4, r1, lsr #30
 80059f6:	008b      	lsls	r3, r1, #2
 80059f8:	461a      	mov	r2, r3
 80059fa:	4623      	mov	r3, r4
 80059fc:	4628      	mov	r0, r5
 80059fe:	4631      	mov	r1, r6
 8005a00:	f7fa fbe6 	bl	80001d0 <__aeabi_uldivmod>
 8005a04:	4603      	mov	r3, r0
 8005a06:	460c      	mov	r4, r1
 8005a08:	461a      	mov	r2, r3
 8005a0a:	4b50      	ldr	r3, [pc, #320]	; (8005b4c <UART_SetConfig+0x6f4>)
 8005a0c:	fba3 2302 	umull	r2, r3, r3, r2
 8005a10:	095b      	lsrs	r3, r3, #5
 8005a12:	ea4f 1803 	mov.w	r8, r3, lsl #4
 8005a16:	68bb      	ldr	r3, [r7, #8]
 8005a18:	469b      	mov	fp, r3
 8005a1a:	f04f 0c00 	mov.w	ip, #0
 8005a1e:	46d9      	mov	r9, fp
 8005a20:	46e2      	mov	sl, ip
 8005a22:	eb19 0309 	adds.w	r3, r9, r9
 8005a26:	eb4a 040a 	adc.w	r4, sl, sl
 8005a2a:	4699      	mov	r9, r3
 8005a2c:	46a2      	mov	sl, r4
 8005a2e:	eb19 090b 	adds.w	r9, r9, fp
 8005a32:	eb4a 0a0c 	adc.w	sl, sl, ip
 8005a36:	f04f 0100 	mov.w	r1, #0
 8005a3a:	f04f 0200 	mov.w	r2, #0
 8005a3e:	ea4f 02ca 	mov.w	r2, sl, lsl #3
 8005a42:	ea42 7259 	orr.w	r2, r2, r9, lsr #29
 8005a46:	ea4f 01c9 	mov.w	r1, r9, lsl #3
 8005a4a:	4689      	mov	r9, r1
 8005a4c:	4692      	mov	sl, r2
 8005a4e:	eb1b 0509 	adds.w	r5, fp, r9
 8005a52:	eb4c 060a 	adc.w	r6, ip, sl
 8005a56:	687b      	ldr	r3, [r7, #4]
 8005a58:	685b      	ldr	r3, [r3, #4]
 8005a5a:	4619      	mov	r1, r3
 8005a5c:	f04f 0200 	mov.w	r2, #0
 8005a60:	f04f 0300 	mov.w	r3, #0
 8005a64:	f04f 0400 	mov.w	r4, #0
 8005a68:	0094      	lsls	r4, r2, #2
 8005a6a:	ea44 7491 	orr.w	r4, r4, r1, lsr #30
 8005a6e:	008b      	lsls	r3, r1, #2
 8005a70:	461a      	mov	r2, r3
 8005a72:	4623      	mov	r3, r4
 8005a74:	4628      	mov	r0, r5
 8005a76:	4631      	mov	r1, r6
 8005a78:	f7fa fbaa 	bl	80001d0 <__aeabi_uldivmod>
 8005a7c:	4603      	mov	r3, r0
 8005a7e:	460c      	mov	r4, r1
 8005a80:	461a      	mov	r2, r3
 8005a82:	4b32      	ldr	r3, [pc, #200]	; (8005b4c <UART_SetConfig+0x6f4>)
 8005a84:	fba3 1302 	umull	r1, r3, r3, r2
 8005a88:	095b      	lsrs	r3, r3, #5
 8005a8a:	2164      	movs	r1, #100	; 0x64
 8005a8c:	fb01 f303 	mul.w	r3, r1, r3
 8005a90:	1ad3      	subs	r3, r2, r3
 8005a92:	011b      	lsls	r3, r3, #4
 8005a94:	3332      	adds	r3, #50	; 0x32
 8005a96:	4a2d      	ldr	r2, [pc, #180]	; (8005b4c <UART_SetConfig+0x6f4>)
 8005a98:	fba2 2303 	umull	r2, r3, r2, r3
 8005a9c:	095b      	lsrs	r3, r3, #5
 8005a9e:	f003 03f0 	and.w	r3, r3, #240	; 0xf0
 8005aa2:	4498      	add	r8, r3
 8005aa4:	68bb      	ldr	r3, [r7, #8]
 8005aa6:	469b      	mov	fp, r3
 8005aa8:	f04f 0c00 	mov.w	ip, #0
 8005aac:	46d9      	mov	r9, fp
 8005aae:	46e2      	mov	sl, ip
 8005ab0:	eb19 0309 	adds.w	r3, r9, r9
 8005ab4:	eb4a 040a 	adc.w	r4, sl, sl
 8005ab8:	4699      	mov	r9, r3
 8005aba:	46a2      	mov	sl, r4
 8005abc:	eb19 090b 	adds.w	r9, r9, fp
 8005ac0:	eb4a 0a0c 	adc.w	sl, sl, ip
 8005ac4:	f04f 0100 	mov.w	r1, #0
 8005ac8:	f04f 0200 	mov.w	r2, #0
 8005acc:	ea4f 02ca 	mov.w	r2, sl, lsl #3
 8005ad0:	ea42 7259 	orr.w	r2, r2, r9, lsr #29
 8005ad4:	ea4f 01c9 	mov.w	r1, r9, lsl #3
 8005ad8:	4689      	mov	r9, r1
 8005ada:	4692      	mov	sl, r2
 8005adc:	eb1b 0509 	adds.w	r5, fp, r9
 8005ae0:	eb4c 060a 	adc.w	r6, ip, sl
 8005ae4:	687b      	ldr	r3, [r7, #4]
 8005ae6:	685b      	ldr	r3, [r3, #4]
 8005ae8:	4619      	mov	r1, r3
 8005aea:	f04f 0200 	mov.w	r2, #0
 8005aee:	f04f 0300 	mov.w	r3, #0
 8005af2:	f04f 0400 	mov.w	r4, #0
 8005af6:	0094      	lsls	r4, r2, #2
 8005af8:	ea44 7491 	orr.w	r4, r4, r1, lsr #30
 8005afc:	008b      	lsls	r3, r1, #2
 8005afe:	461a      	mov	r2, r3
 8005b00:	4623      	mov	r3, r4
 8005b02:	4628      	mov	r0, r5
 8005b04:	4631      	mov	r1, r6
 8005b06:	f7fa fb63 	bl	80001d0 <__aeabi_uldivmod>
 8005b0a:	4603      	mov	r3, r0
 8005b0c:	460c      	mov	r4, r1
 8005b0e:	461a      	mov	r2, r3
 8005b10:	4b0e      	ldr	r3, [pc, #56]	; (8005b4c <UART_SetConfig+0x6f4>)
 8005b12:	fba3 1302 	umull	r1, r3, r3, r2
 8005b16:	095b      	lsrs	r3, r3, #5
 8005b18:	2164      	movs	r1, #100	; 0x64
 8005b1a:	fb01 f303 	mul.w	r3, r1, r3
 8005b1e:	1ad3      	subs	r3, r2, r3
 8005b20:	011b      	lsls	r3, r3, #4
 8005b22:	3332      	adds	r3, #50	; 0x32
 8005b24:	4a09      	ldr	r2, [pc, #36]	; (8005b4c <UART_SetConfig+0x6f4>)
 8005b26:	fba2 2303 	umull	r2, r3, r2, r3
 8005b2a:	095b      	lsrs	r3, r3, #5
 8005b2c:	f003 020f 	and.w	r2, r3, #15
 8005b30:	687b      	ldr	r3, [r7, #4]
 8005b32:	681b      	ldr	r3, [r3, #0]
 8005b34:	4442      	add	r2, r8
 8005b36:	609a      	str	r2, [r3, #8]
 8005b38:	e7ff      	b.n	8005b3a <UART_SetConfig+0x6e2>
 8005b3a:	bf00      	nop
 8005b3c:	3714      	adds	r7, #20
 8005b3e:	46bd      	mov	sp, r7
 8005b40:	e8bd 8ff0 	ldmia.w	sp!, {r4, r5, r6, r7, r8, r9, sl, fp, pc}
 8005b44:	40011000 	.word	0x40011000
 8005b48:	40011400 	.word	0x40011400
 8005b4c:	51eb851f 	.word	0x51eb851f

08005b50 <USB_CoreInit>:
 8005b50:	b084      	sub	sp, #16
 8005b52:	b580      	push	{r7, lr}
 8005b54:	b084      	sub	sp, #16
 8005b56:	af00      	add	r7, sp, #0
 8005b58:	6078      	str	r0, [r7, #4]
 8005b5a:	f107 001c 	add.w	r0, r7, #28
 8005b5e:	e880 000e 	stmia.w	r0, {r1, r2, r3}
 8005b62:	6b3b      	ldr	r3, [r7, #48]	; 0x30
 8005b64:	2b01      	cmp	r3, #1
 8005b66:	d122      	bne.n	8005bae <USB_CoreInit+0x5e>
 8005b68:	687b      	ldr	r3, [r7, #4]
 8005b6a:	6b9b      	ldr	r3, [r3, #56]	; 0x38
 8005b6c:	f423 3280 	bic.w	r2, r3, #65536	; 0x10000
 8005b70:	687b      	ldr	r3, [r7, #4]
 8005b72:	639a      	str	r2, [r3, #56]	; 0x38
 8005b74:	687b      	ldr	r3, [r7, #4]
 8005b76:	68db      	ldr	r3, [r3, #12]
 8005b78:	f423 0384 	bic.w	r3, r3, #4325376	; 0x420000
 8005b7c:	f023 0340 	bic.w	r3, r3, #64	; 0x40
 8005b80:	687a      	ldr	r2, [r7, #4]
 8005b82:	60d3      	str	r3, [r2, #12]
 8005b84:	687b      	ldr	r3, [r7, #4]
 8005b86:	68db      	ldr	r3, [r3, #12]
 8005b88:	f423 1240 	bic.w	r2, r3, #3145728	; 0x300000
 8005b8c:	687b      	ldr	r3, [r7, #4]
 8005b8e:	60da      	str	r2, [r3, #12]
 8005b90:	6cfb      	ldr	r3, [r7, #76]	; 0x4c
 8005b92:	2b01      	cmp	r3, #1
 8005b94:	d105      	bne.n	8005ba2 <USB_CoreInit+0x52>
 8005b96:	687b      	ldr	r3, [r7, #4]
 8005b98:	68db      	ldr	r3, [r3, #12]
 8005b9a:	f443 1280 	orr.w	r2, r3, #1048576	; 0x100000
 8005b9e:	687b      	ldr	r3, [r7, #4]
 8005ba0:	60da      	str	r2, [r3, #12]
 8005ba2:	6878      	ldr	r0, [r7, #4]
 8005ba4:	f000 fca0 	bl	80064e8 <USB_CoreReset>
 8005ba8:	4603      	mov	r3, r0
 8005baa:	73fb      	strb	r3, [r7, #15]
 8005bac:	e01a      	b.n	8005be4 <USB_CoreInit+0x94>
 8005bae:	687b      	ldr	r3, [r7, #4]
 8005bb0:	68db      	ldr	r3, [r3, #12]
 8005bb2:	f043 0240 	orr.w	r2, r3, #64	; 0x40
 8005bb6:	687b      	ldr	r3, [r7, #4]
 8005bb8:	60da      	str	r2, [r3, #12]
 8005bba:	6878      	ldr	r0, [r7, #4]
 8005bbc:	f000 fc94 	bl	80064e8 <USB_CoreReset>
 8005bc0:	4603      	mov	r3, r0
 8005bc2:	73fb      	strb	r3, [r7, #15]
 8005bc4:	6c3b      	ldr	r3, [r7, #64]	; 0x40
 8005bc6:	2b00      	cmp	r3, #0
 8005bc8:	d106      	bne.n	8005bd8 <USB_CoreInit+0x88>
 8005bca:	687b      	ldr	r3, [r7, #4]
 8005bcc:	6b9b      	ldr	r3, [r3, #56]	; 0x38
 8005bce:	f443 3280 	orr.w	r2, r3, #65536	; 0x10000
 8005bd2:	687b      	ldr	r3, [r7, #4]
 8005bd4:	639a      	str	r2, [r3, #56]	; 0x38
 8005bd6:	e005      	b.n	8005be4 <USB_CoreInit+0x94>
 8005bd8:	687b      	ldr	r3, [r7, #4]
 8005bda:	6b9b      	ldr	r3, [r3, #56]	; 0x38
 8005bdc:	f423 3280 	bic.w	r2, r3, #65536	; 0x10000
 8005be0:	687b      	ldr	r3, [r7, #4]
 8005be2:	639a      	str	r2, [r3, #56]	; 0x38
 8005be4:	6abb      	ldr	r3, [r7, #40]	; 0x28
 8005be6:	2b01      	cmp	r3, #1
 8005be8:	d10b      	bne.n	8005c02 <USB_CoreInit+0xb2>
 8005bea:	687b      	ldr	r3, [r7, #4]
 8005bec:	689b      	ldr	r3, [r3, #8]
 8005bee:	f043 0206 	orr.w	r2, r3, #6
 8005bf2:	687b      	ldr	r3, [r7, #4]
 8005bf4:	609a      	str	r2, [r3, #8]
 8005bf6:	687b      	ldr	r3, [r7, #4]
 8005bf8:	689b      	ldr	r3, [r3, #8]
 8005bfa:	f043 0220 	orr.w	r2, r3, #32
 8005bfe:	687b      	ldr	r3, [r7, #4]
 8005c00:	609a      	str	r2, [r3, #8]
 8005c02:	7bfb      	ldrb	r3, [r7, #15]
 8005c04:	4618      	mov	r0, r3
 8005c06:	3710      	adds	r7, #16
 8005c08:	46bd      	mov	sp, r7
 8005c0a:	e8bd 4080 	ldmia.w	sp!, {r7, lr}
 8005c0e:	b004      	add	sp, #16
 8005c10:	4770      	bx	lr
	...

08005c14 <USB_SetTurnaroundTime>:
 8005c14:	b480      	push	{r7}
 8005c16:	b087      	sub	sp, #28
 8005c18:	af00      	add	r7, sp, #0
 8005c1a:	60f8      	str	r0, [r7, #12]
 8005c1c:	60b9      	str	r1, [r7, #8]
 8005c1e:	4613      	mov	r3, r2
 8005c20:	71fb      	strb	r3, [r7, #7]
 8005c22:	79fb      	ldrb	r3, [r7, #7]
 8005c24:	2b02      	cmp	r3, #2
 8005c26:	d165      	bne.n	8005cf4 <USB_SetTurnaroundTime+0xe0>
 8005c28:	68bb      	ldr	r3, [r7, #8]
 8005c2a:	4a41      	ldr	r2, [pc, #260]	; (8005d30 <USB_SetTurnaroundTime+0x11c>)
 8005c2c:	4293      	cmp	r3, r2
 8005c2e:	d906      	bls.n	8005c3e <USB_SetTurnaroundTime+0x2a>
 8005c30:	68bb      	ldr	r3, [r7, #8]
 8005c32:	4a40      	ldr	r2, [pc, #256]	; (8005d34 <USB_SetTurnaroundTime+0x120>)
 8005c34:	4293      	cmp	r3, r2
 8005c36:	d802      	bhi.n	8005c3e <USB_SetTurnaroundTime+0x2a>
 8005c38:	230f      	movs	r3, #15
 8005c3a:	617b      	str	r3, [r7, #20]
 8005c3c:	e062      	b.n	8005d04 <USB_SetTurnaroundTime+0xf0>
 8005c3e:	68bb      	ldr	r3, [r7, #8]
 8005c40:	4a3c      	ldr	r2, [pc, #240]	; (8005d34 <USB_SetTurnaroundTime+0x120>)
 8005c42:	4293      	cmp	r3, r2
 8005c44:	d906      	bls.n	8005c54 <USB_SetTurnaroundTime+0x40>
 8005c46:	68bb      	ldr	r3, [r7, #8]
 8005c48:	4a3b      	ldr	r2, [pc, #236]	; (8005d38 <USB_SetTurnaroundTime+0x124>)
 8005c4a:	4293      	cmp	r3, r2
 8005c4c:	d802      	bhi.n	8005c54 <USB_SetTurnaroundTime+0x40>
 8005c4e:	230e      	movs	r3, #14
 8005c50:	617b      	str	r3, [r7, #20]
 8005c52:	e057      	b.n	8005d04 <USB_SetTurnaroundTime+0xf0>
 8005c54:	68bb      	ldr	r3, [r7, #8]
 8005c56:	4a38      	ldr	r2, [pc, #224]	; (8005d38 <USB_SetTurnaroundTime+0x124>)
 8005c58:	4293      	cmp	r3, r2
 8005c5a:	d906      	bls.n	8005c6a <USB_SetTurnaroundTime+0x56>
 8005c5c:	68bb      	ldr	r3, [r7, #8]
 8005c5e:	4a37      	ldr	r2, [pc, #220]	; (8005d3c <USB_SetTurnaroundTime+0x128>)
 8005c60:	4293      	cmp	r3, r2
 8005c62:	d802      	bhi.n	8005c6a <USB_SetTurnaroundTime+0x56>
 8005c64:	230d      	movs	r3, #13
 8005c66:	617b      	str	r3, [r7, #20]
 8005c68:	e04c      	b.n	8005d04 <USB_SetTurnaroundTime+0xf0>
 8005c6a:	68bb      	ldr	r3, [r7, #8]
 8005c6c:	4a33      	ldr	r2, [pc, #204]	; (8005d3c <USB_SetTurnaroundTime+0x128>)
 8005c6e:	4293      	cmp	r3, r2
 8005c70:	d906      	bls.n	8005c80 <USB_SetTurnaroundTime+0x6c>
 8005c72:	68bb      	ldr	r3, [r7, #8]
 8005c74:	4a32      	ldr	r2, [pc, #200]	; (8005d40 <USB_SetTurnaroundTime+0x12c>)
 8005c76:	4293      	cmp	r3, r2
 8005c78:	d802      	bhi.n	8005c80 <USB_SetTurnaroundTime+0x6c>
 8005c7a:	230c      	movs	r3, #12
 8005c7c:	617b      	str	r3, [r7, #20]
 8005c7e:	e041      	b.n	8005d04 <USB_SetTurnaroundTime+0xf0>
 8005c80:	68bb      	ldr	r3, [r7, #8]
 8005c82:	4a2f      	ldr	r2, [pc, #188]	; (8005d40 <USB_SetTurnaroundTime+0x12c>)
 8005c84:	4293      	cmp	r3, r2
 8005c86:	d906      	bls.n	8005c96 <USB_SetTurnaroundTime+0x82>
 8005c88:	68bb      	ldr	r3, [r7, #8]
 8005c8a:	4a2e      	ldr	r2, [pc, #184]	; (8005d44 <USB_SetTurnaroundTime+0x130>)
 8005c8c:	4293      	cmp	r3, r2
 8005c8e:	d802      	bhi.n	8005c96 <USB_SetTurnaroundTime+0x82>
 8005c90:	230b      	movs	r3, #11
 8005c92:	617b      	str	r3, [r7, #20]
 8005c94:	e036      	b.n	8005d04 <USB_SetTurnaroundTime+0xf0>
 8005c96:	68bb      	ldr	r3, [r7, #8]
 8005c98:	4a2a      	ldr	r2, [pc, #168]	; (8005d44 <USB_SetTurnaroundTime+0x130>)
 8005c9a:	4293      	cmp	r3, r2
 8005c9c:	d906      	bls.n	8005cac <USB_SetTurnaroundTime+0x98>
 8005c9e:	68bb      	ldr	r3, [r7, #8]
 8005ca0:	4a29      	ldr	r2, [pc, #164]	; (8005d48 <USB_SetTurnaroundTime+0x134>)
 8005ca2:	4293      	cmp	r3, r2
 8005ca4:	d802      	bhi.n	8005cac <USB_SetTurnaroundTime+0x98>
 8005ca6:	230a      	movs	r3, #10
 8005ca8:	617b      	str	r3, [r7, #20]
 8005caa:	e02b      	b.n	8005d04 <USB_SetTurnaroundTime+0xf0>
 8005cac:	68bb      	ldr	r3, [r7, #8]
 8005cae:	4a26      	ldr	r2, [pc, #152]	; (8005d48 <USB_SetTurnaroundTime+0x134>)
 8005cb0:	4293      	cmp	r3, r2
 8005cb2:	d906      	bls.n	8005cc2 <USB_SetTurnaroundTime+0xae>
 8005cb4:	68bb      	ldr	r3, [r7, #8]
 8005cb6:	4a25      	ldr	r2, [pc, #148]	; (8005d4c <USB_SetTurnaroundTime+0x138>)
 8005cb8:	4293      	cmp	r3, r2
 8005cba:	d802      	bhi.n	8005cc2 <USB_SetTurnaroundTime+0xae>
 8005cbc:	2309      	movs	r3, #9
 8005cbe:	617b      	str	r3, [r7, #20]
 8005cc0:	e020      	b.n	8005d04 <USB_SetTurnaroundTime+0xf0>
 8005cc2:	68bb      	ldr	r3, [r7, #8]
 8005cc4:	4a21      	ldr	r2, [pc, #132]	; (8005d4c <USB_SetTurnaroundTime+0x138>)
 8005cc6:	4293      	cmp	r3, r2
 8005cc8:	d906      	bls.n	8005cd8 <USB_SetTurnaroundTime+0xc4>
 8005cca:	68bb      	ldr	r3, [r7, #8]
 8005ccc:	4a20      	ldr	r2, [pc, #128]	; (8005d50 <USB_SetTurnaroundTime+0x13c>)
 8005cce:	4293      	cmp	r3, r2
 8005cd0:	d802      	bhi.n	8005cd8 <USB_SetTurnaroundTime+0xc4>
 8005cd2:	2308      	movs	r3, #8
 8005cd4:	617b      	str	r3, [r7, #20]
 8005cd6:	e015      	b.n	8005d04 <USB_SetTurnaroundTime+0xf0>
 8005cd8:	68bb      	ldr	r3, [r7, #8]
 8005cda:	4a1d      	ldr	r2, [pc, #116]	; (8005d50 <USB_SetTurnaroundTime+0x13c>)
 8005cdc:	4293      	cmp	r3, r2
 8005cde:	d906      	bls.n	8005cee <USB_SetTurnaroundTime+0xda>
 8005ce0:	68bb      	ldr	r3, [r7, #8]
 8005ce2:	4a1c      	ldr	r2, [pc, #112]	; (8005d54 <USB_SetTurnaroundTime+0x140>)
 8005ce4:	4293      	cmp	r3, r2
 8005ce6:	d802      	bhi.n	8005cee <USB_SetTurnaroundTime+0xda>
 8005ce8:	2307      	movs	r3, #7
 8005cea:	617b      	str	r3, [r7, #20]
 8005cec:	e00a      	b.n	8005d04 <USB_SetTurnaroundTime+0xf0>
 8005cee:	2306      	movs	r3, #6
 8005cf0:	617b      	str	r3, [r7, #20]
 8005cf2:	e007      	b.n	8005d04 <USB_SetTurnaroundTime+0xf0>
 8005cf4:	79fb      	ldrb	r3, [r7, #7]
 8005cf6:	2b00      	cmp	r3, #0
 8005cf8:	d102      	bne.n	8005d00 <USB_SetTurnaroundTime+0xec>
 8005cfa:	2309      	movs	r3, #9
 8005cfc:	617b      	str	r3, [r7, #20]
 8005cfe:	e001      	b.n	8005d04 <USB_SetTurnaroundTime+0xf0>
 8005d00:	2309      	movs	r3, #9
 8005d02:	617b      	str	r3, [r7, #20]
 8005d04:	68fb      	ldr	r3, [r7, #12]
 8005d06:	68db      	ldr	r3, [r3, #12]
 8005d08:	f423 5270 	bic.w	r2, r3, #15360	; 0x3c00
 8005d0c:	68fb      	ldr	r3, [r7, #12]
 8005d0e:	60da      	str	r2, [r3, #12]
 8005d10:	68fb      	ldr	r3, [r7, #12]
 8005d12:	68da      	ldr	r2, [r3, #12]
 8005d14:	697b      	ldr	r3, [r7, #20]
 8005d16:	029b      	lsls	r3, r3, #10
 8005d18:	f403 5370 	and.w	r3, r3, #15360	; 0x3c00
 8005d1c:	431a      	orrs	r2, r3
 8005d1e:	68fb      	ldr	r3, [r7, #12]
 8005d20:	60da      	str	r2, [r3, #12]
 8005d22:	2300      	movs	r3, #0
 8005d24:	4618      	mov	r0, r3
 8005d26:	371c      	adds	r7, #28
 8005d28:	46bd      	mov	sp, r7
 8005d2a:	f85d 7b04 	ldr.w	r7, [sp], #4
 8005d2e:	4770      	bx	lr
 8005d30:	00d8acbf 	.word	0x00d8acbf
 8005d34:	00e4e1bf 	.word	0x00e4e1bf
 8005d38:	00f423ff 	.word	0x00f423ff
 8005d3c:	0106737f 	.word	0x0106737f
 8005d40:	011a499f 	.word	0x011a499f
 8005d44:	01312cff 	.word	0x01312cff
 8005d48:	014ca43f 	.word	0x014ca43f
 8005d4c:	016e35ff 	.word	0x016e35ff
 8005d50:	01a6ab1f 	.word	0x01a6ab1f
 8005d54:	01e847ff 	.word	0x01e847ff

08005d58 <USB_DisableGlobalInt>:
 8005d58:	b480      	push	{r7}
 8005d5a:	b083      	sub	sp, #12
 8005d5c:	af00      	add	r7, sp, #0
 8005d5e:	6078      	str	r0, [r7, #4]
 8005d60:	687b      	ldr	r3, [r7, #4]
 8005d62:	689b      	ldr	r3, [r3, #8]
 8005d64:	f023 0201 	bic.w	r2, r3, #1
 8005d68:	687b      	ldr	r3, [r7, #4]
 8005d6a:	609a      	str	r2, [r3, #8]
 8005d6c:	2300      	movs	r3, #0
 8005d6e:	4618      	mov	r0, r3
 8005d70:	370c      	adds	r7, #12
 8005d72:	46bd      	mov	sp, r7
 8005d74:	f85d 7b04 	ldr.w	r7, [sp], #4
 8005d78:	4770      	bx	lr

08005d7a <USB_SetCurrentMode>:
 8005d7a:	b580      	push	{r7, lr}
 8005d7c:	b082      	sub	sp, #8
 8005d7e:	af00      	add	r7, sp, #0
 8005d80:	6078      	str	r0, [r7, #4]
 8005d82:	460b      	mov	r3, r1
 8005d84:	70fb      	strb	r3, [r7, #3]
 8005d86:	687b      	ldr	r3, [r7, #4]
 8005d88:	68db      	ldr	r3, [r3, #12]
 8005d8a:	f023 42c0 	bic.w	r2, r3, #1610612736	; 0x60000000
 8005d8e:	687b      	ldr	r3, [r7, #4]
 8005d90:	60da      	str	r2, [r3, #12]
 8005d92:	78fb      	ldrb	r3, [r7, #3]
 8005d94:	2b01      	cmp	r3, #1
 8005d96:	d106      	bne.n	8005da6 <USB_SetCurrentMode+0x2c>
 8005d98:	687b      	ldr	r3, [r7, #4]
 8005d9a:	68db      	ldr	r3, [r3, #12]
 8005d9c:	f043 5200 	orr.w	r2, r3, #536870912	; 0x20000000
 8005da0:	687b      	ldr	r3, [r7, #4]
 8005da2:	60da      	str	r2, [r3, #12]
 8005da4:	e00b      	b.n	8005dbe <USB_SetCurrentMode+0x44>
 8005da6:	78fb      	ldrb	r3, [r7, #3]
 8005da8:	2b00      	cmp	r3, #0
 8005daa:	d106      	bne.n	8005dba <USB_SetCurrentMode+0x40>
 8005dac:	687b      	ldr	r3, [r7, #4]
 8005dae:	68db      	ldr	r3, [r3, #12]
 8005db0:	f043 4280 	orr.w	r2, r3, #1073741824	; 0x40000000
 8005db4:	687b      	ldr	r3, [r7, #4]
 8005db6:	60da      	str	r2, [r3, #12]
 8005db8:	e001      	b.n	8005dbe <USB_SetCurrentMode+0x44>
 8005dba:	2301      	movs	r3, #1
 8005dbc:	e003      	b.n	8005dc6 <USB_SetCurrentMode+0x4c>
 8005dbe:	2032      	movs	r0, #50	; 0x32
 8005dc0:	f7fc f924 	bl	800200c <HAL_Delay>
 8005dc4:	2300      	movs	r3, #0
 8005dc6:	4618      	mov	r0, r3
 8005dc8:	3708      	adds	r7, #8
 8005dca:	46bd      	mov	sp, r7
 8005dcc:	bd80      	pop	{r7, pc}
	...

08005dd0 <USB_DevInit>:
 8005dd0:	b084      	sub	sp, #16
 8005dd2:	b580      	push	{r7, lr}
 8005dd4:	b086      	sub	sp, #24
 8005dd6:	af00      	add	r7, sp, #0
 8005dd8:	6078      	str	r0, [r7, #4]
 8005dda:	f107 0024 	add.w	r0, r7, #36	; 0x24
 8005dde:	e880 000e 	stmia.w	r0, {r1, r2, r3}
 8005de2:	2300      	movs	r3, #0
 8005de4:	75fb      	strb	r3, [r7, #23]
 8005de6:	687b      	ldr	r3, [r7, #4]
 8005de8:	60fb      	str	r3, [r7, #12]
 8005dea:	2300      	movs	r3, #0
 8005dec:	613b      	str	r3, [r7, #16]
 8005dee:	e009      	b.n	8005e04 <USB_DevInit+0x34>
 8005df0:	687a      	ldr	r2, [r7, #4]
 8005df2:	693b      	ldr	r3, [r7, #16]
 8005df4:	3340      	adds	r3, #64	; 0x40
 8005df6:	009b      	lsls	r3, r3, #2
 8005df8:	4413      	add	r3, r2
 8005dfa:	2200      	movs	r2, #0
 8005dfc:	605a      	str	r2, [r3, #4]
 8005dfe:	693b      	ldr	r3, [r7, #16]
 8005e00:	3301      	adds	r3, #1
 8005e02:	613b      	str	r3, [r7, #16]
 8005e04:	693b      	ldr	r3, [r7, #16]
 8005e06:	2b0e      	cmp	r3, #14
 8005e08:	d9f2      	bls.n	8005df0 <USB_DevInit+0x20>
 8005e0a:	6cfb      	ldr	r3, [r7, #76]	; 0x4c
 8005e0c:	2b00      	cmp	r3, #0
 8005e0e:	d11c      	bne.n	8005e4a <USB_DevInit+0x7a>
 8005e10:	68fb      	ldr	r3, [r7, #12]
 8005e12:	f503 6300 	add.w	r3, r3, #2048	; 0x800
 8005e16:	685b      	ldr	r3, [r3, #4]
 8005e18:	68fa      	ldr	r2, [r7, #12]
 8005e1a:	f502 6200 	add.w	r2, r2, #2048	; 0x800
 8005e1e:	f043 0302 	orr.w	r3, r3, #2
 8005e22:	6053      	str	r3, [r2, #4]
 8005e24:	687b      	ldr	r3, [r7, #4]
 8005e26:	6b9b      	ldr	r3, [r3, #56]	; 0x38
 8005e28:	f443 1200 	orr.w	r2, r3, #2097152	; 0x200000
 8005e2c:	687b      	ldr	r3, [r7, #4]
 8005e2e:	639a      	str	r2, [r3, #56]	; 0x38
 8005e30:	687b      	ldr	r3, [r7, #4]
 8005e32:	6b9b      	ldr	r3, [r3, #56]	; 0x38
 8005e34:	f423 2200 	bic.w	r2, r3, #524288	; 0x80000
 8005e38:	687b      	ldr	r3, [r7, #4]
 8005e3a:	639a      	str	r2, [r3, #56]	; 0x38
 8005e3c:	687b      	ldr	r3, [r7, #4]
 8005e3e:	6b9b      	ldr	r3, [r3, #56]	; 0x38
 8005e40:	f423 2280 	bic.w	r2, r3, #262144	; 0x40000
 8005e44:	687b      	ldr	r3, [r7, #4]
 8005e46:	639a      	str	r2, [r3, #56]	; 0x38
 8005e48:	e00b      	b.n	8005e62 <USB_DevInit+0x92>
 8005e4a:	687b      	ldr	r3, [r7, #4]
 8005e4c:	6b9b      	ldr	r3, [r3, #56]	; 0x38
 8005e4e:	f423 1200 	bic.w	r2, r3, #2097152	; 0x200000
 8005e52:	687b      	ldr	r3, [r7, #4]
 8005e54:	639a      	str	r2, [r3, #56]	; 0x38
 8005e56:	687b      	ldr	r3, [r7, #4]
 8005e58:	6b9b      	ldr	r3, [r3, #56]	; 0x38
 8005e5a:	f443 2200 	orr.w	r2, r3, #524288	; 0x80000
 8005e5e:	687b      	ldr	r3, [r7, #4]
 8005e60:	639a      	str	r2, [r3, #56]	; 0x38
 8005e62:	68fb      	ldr	r3, [r7, #12]
 8005e64:	f503 6360 	add.w	r3, r3, #3584	; 0xe00
 8005e68:	461a      	mov	r2, r3
 8005e6a:	2300      	movs	r3, #0
 8005e6c:	6013      	str	r3, [r2, #0]
 8005e6e:	68fb      	ldr	r3, [r7, #12]
 8005e70:	f503 6300 	add.w	r3, r3, #2048	; 0x800
 8005e74:	4619      	mov	r1, r3
 8005e76:	68fb      	ldr	r3, [r7, #12]
 8005e78:	f503 6300 	add.w	r3, r3, #2048	; 0x800
 8005e7c:	461a      	mov	r2, r3
 8005e7e:	680b      	ldr	r3, [r1, #0]
 8005e80:	6013      	str	r3, [r2, #0]
 8005e82:	6bbb      	ldr	r3, [r7, #56]	; 0x38
 8005e84:	2b01      	cmp	r3, #1
 8005e86:	d10c      	bne.n	8005ea2 <USB_DevInit+0xd2>
 8005e88:	6afb      	ldr	r3, [r7, #44]	; 0x2c
 8005e8a:	2b00      	cmp	r3, #0
 8005e8c:	d104      	bne.n	8005e98 <USB_DevInit+0xc8>
 8005e8e:	2100      	movs	r1, #0
 8005e90:	6878      	ldr	r0, [r7, #4]
 8005e92:	f000 f949 	bl	8006128 <USB_SetDevSpeed>
 8005e96:	e008      	b.n	8005eaa <USB_DevInit+0xda>
 8005e98:	2101      	movs	r1, #1
 8005e9a:	6878      	ldr	r0, [r7, #4]
 8005e9c:	f000 f944 	bl	8006128 <USB_SetDevSpeed>
 8005ea0:	e003      	b.n	8005eaa <USB_DevInit+0xda>
 8005ea2:	2103      	movs	r1, #3
 8005ea4:	6878      	ldr	r0, [r7, #4]
 8005ea6:	f000 f93f 	bl	8006128 <USB_SetDevSpeed>
 8005eaa:	2110      	movs	r1, #16
 8005eac:	6878      	ldr	r0, [r7, #4]
 8005eae:	f000 f8f3 	bl	8006098 <USB_FlushTxFifo>
 8005eb2:	4603      	mov	r3, r0
 8005eb4:	2b00      	cmp	r3, #0
 8005eb6:	d001      	beq.n	8005ebc <USB_DevInit+0xec>
 8005eb8:	2301      	movs	r3, #1
 8005eba:	75fb      	strb	r3, [r7, #23]
 8005ebc:	6878      	ldr	r0, [r7, #4]
 8005ebe:	f000 f911 	bl	80060e4 <USB_FlushRxFifo>
 8005ec2:	4603      	mov	r3, r0
 8005ec4:	2b00      	cmp	r3, #0
 8005ec6:	d001      	beq.n	8005ecc <USB_DevInit+0xfc>
 8005ec8:	2301      	movs	r3, #1
 8005eca:	75fb      	strb	r3, [r7, #23]
 8005ecc:	68fb      	ldr	r3, [r7, #12]
 8005ece:	f503 6300 	add.w	r3, r3, #2048	; 0x800
 8005ed2:	461a      	mov	r2, r3
 8005ed4:	2300      	movs	r3, #0
 8005ed6:	6113      	str	r3, [r2, #16]
 8005ed8:	68fb      	ldr	r3, [r7, #12]
 8005eda:	f503 6300 	add.w	r3, r3, #2048	; 0x800
 8005ede:	461a      	mov	r2, r3
 8005ee0:	2300      	movs	r3, #0
 8005ee2:	6153      	str	r3, [r2, #20]
 8005ee4:	68fb      	ldr	r3, [r7, #12]
 8005ee6:	f503 6300 	add.w	r3, r3, #2048	; 0x800
 8005eea:	461a      	mov	r2, r3
 8005eec:	2300      	movs	r3, #0
 8005eee:	61d3      	str	r3, [r2, #28]
 8005ef0:	2300      	movs	r3, #0
 8005ef2:	613b      	str	r3, [r7, #16]
 8005ef4:	e043      	b.n	8005f7e <USB_DevInit+0x1ae>
 8005ef6:	693b      	ldr	r3, [r7, #16]
 8005ef8:	015a      	lsls	r2, r3, #5
 8005efa:	68fb      	ldr	r3, [r7, #12]
 8005efc:	4413      	add	r3, r2
 8005efe:	f503 6310 	add.w	r3, r3, #2304	; 0x900
 8005f02:	681b      	ldr	r3, [r3, #0]
 8005f04:	f003 4300 	and.w	r3, r3, #2147483648	; 0x80000000
 8005f08:	f1b3 4f00 	cmp.w	r3, #2147483648	; 0x80000000
 8005f0c:	d118      	bne.n	8005f40 <USB_DevInit+0x170>
 8005f0e:	693b      	ldr	r3, [r7, #16]
 8005f10:	2b00      	cmp	r3, #0
 8005f12:	d10a      	bne.n	8005f2a <USB_DevInit+0x15a>
 8005f14:	693b      	ldr	r3, [r7, #16]
 8005f16:	015a      	lsls	r2, r3, #5
 8005f18:	68fb      	ldr	r3, [r7, #12]
 8005f1a:	4413      	add	r3, r2
 8005f1c:	f503 6310 	add.w	r3, r3, #2304	; 0x900
 8005f20:	461a      	mov	r2, r3
 8005f22:	f04f 6300 	mov.w	r3, #134217728	; 0x8000000
 8005f26:	6013      	str	r3, [r2, #0]
 8005f28:	e013      	b.n	8005f52 <USB_DevInit+0x182>
 8005f2a:	693b      	ldr	r3, [r7, #16]
 8005f2c:	015a      	lsls	r2, r3, #5
 8005f2e:	68fb      	ldr	r3, [r7, #12]
 8005f30:	4413      	add	r3, r2
 8005f32:	f503 6310 	add.w	r3, r3, #2304	; 0x900
 8005f36:	461a      	mov	r2, r3
 8005f38:	f04f 4390 	mov.w	r3, #1207959552	; 0x48000000
 8005f3c:	6013      	str	r3, [r2, #0]
 8005f3e:	e008      	b.n	8005f52 <USB_DevInit+0x182>
 8005f40:	693b      	ldr	r3, [r7, #16]
 8005f42:	015a      	lsls	r2, r3, #5
 8005f44:	68fb      	ldr	r3, [r7, #12]
 8005f46:	4413      	add	r3, r2
 8005f48:	f503 6310 	add.w	r3, r3, #2304	; 0x900
 8005f4c:	461a      	mov	r2, r3
 8005f4e:	2300      	movs	r3, #0
 8005f50:	6013      	str	r3, [r2, #0]
 8005f52:	693b      	ldr	r3, [r7, #16]
 8005f54:	015a      	lsls	r2, r3, #5
 8005f56:	68fb      	ldr	r3, [r7, #12]
 8005f58:	4413      	add	r3, r2
 8005f5a:	f503 6310 	add.w	r3, r3, #2304	; 0x900
 8005f5e:	461a      	mov	r2, r3
 8005f60:	2300      	movs	r3, #0
 8005f62:	6113      	str	r3, [r2, #16]
 8005f64:	693b      	ldr	r3, [r7, #16]
 8005f66:	015a      	lsls	r2, r3, #5
 8005f68:	68fb      	ldr	r3, [r7, #12]
 8005f6a:	4413      	add	r3, r2
 8005f6c:	f503 6310 	add.w	r3, r3, #2304	; 0x900
 8005f70:	461a      	mov	r2, r3
 8005f72:	f64f 337f 	movw	r3, #64383	; 0xfb7f
 8005f76:	6093      	str	r3, [r2, #8]
 8005f78:	693b      	ldr	r3, [r7, #16]
 8005f7a:	3301      	adds	r3, #1
 8005f7c:	613b      	str	r3, [r7, #16]
 8005f7e:	6a7b      	ldr	r3, [r7, #36]	; 0x24
 8005f80:	693a      	ldr	r2, [r7, #16]
 8005f82:	429a      	cmp	r2, r3
 8005f84:	d3b7      	bcc.n	8005ef6 <USB_DevInit+0x126>
 8005f86:	2300      	movs	r3, #0
 8005f88:	613b      	str	r3, [r7, #16]
 8005f8a:	e043      	b.n	8006014 <USB_DevInit+0x244>
 8005f8c:	693b      	ldr	r3, [r7, #16]
 8005f8e:	015a      	lsls	r2, r3, #5
 8005f90:	68fb      	ldr	r3, [r7, #12]
 8005f92:	4413      	add	r3, r2
 8005f94:	f503 6330 	add.w	r3, r3, #2816	; 0xb00
 8005f98:	681b      	ldr	r3, [r3, #0]
 8005f9a:	f003 4300 	and.w	r3, r3, #2147483648	; 0x80000000
 8005f9e:	f1b3 4f00 	cmp.w	r3, #2147483648	; 0x80000000
 8005fa2:	d118      	bne.n	8005fd6 <USB_DevInit+0x206>
 8005fa4:	693b      	ldr	r3, [r7, #16]
 8005fa6:	2b00      	cmp	r3, #0
 8005fa8:	d10a      	bne.n	8005fc0 <USB_DevInit+0x1f0>
 8005faa:	693b      	ldr	r3, [r7, #16]
 8005fac:	015a      	lsls	r2, r3, #5
 8005fae:	68fb      	ldr	r3, [r7, #12]
 8005fb0:	4413      	add	r3, r2
 8005fb2:	f503 6330 	add.w	r3, r3, #2816	; 0xb00
 8005fb6:	461a      	mov	r2, r3
 8005fb8:	f04f 6300 	mov.w	r3, #134217728	; 0x8000000
 8005fbc:	6013      	str	r3, [r2, #0]
 8005fbe:	e013      	b.n	8005fe8 <USB_DevInit+0x218>
 8005fc0:	693b      	ldr	r3, [r7, #16]
 8005fc2:	015a      	lsls	r2, r3, #5
 8005fc4:	68fb      	ldr	r3, [r7, #12]
 8005fc6:	4413      	add	r3, r2
 8005fc8:	f503 6330 	add.w	r3, r3, #2816	; 0xb00
 8005fcc:	461a      	mov	r2, r3
 8005fce:	f04f 4390 	mov.w	r3, #1207959552	; 0x48000000
 8005fd2:	6013      	str	r3, [r2, #0]
 8005fd4:	e008      	b.n	8005fe8 <USB_DevInit+0x218>
 8005fd6:	693b      	ldr	r3, [r7, #16]
 8005fd8:	015a      	lsls	r2, r3, #5
 8005fda:	68fb      	ldr	r3, [r7, #12]
 8005fdc:	4413      	add	r3, r2
 8005fde:	f503 6330 	add.w	r3, r3, #2816	; 0xb00
 8005fe2:	461a      	mov	r2, r3
 8005fe4:	2300      	movs	r3, #0
 8005fe6:	6013      	str	r3, [r2, #0]
 8005fe8:	693b      	ldr	r3, [r7, #16]
 8005fea:	015a      	lsls	r2, r3, #5
 8005fec:	68fb      	ldr	r3, [r7, #12]
 8005fee:	4413      	add	r3, r2
 8005ff0:	f503 6330 	add.w	r3, r3, #2816	; 0xb00
 8005ff4:	461a      	mov	r2, r3
 8005ff6:	2300      	movs	r3, #0
 8005ff8:	6113      	str	r3, [r2, #16]
 8005ffa:	693b      	ldr	r3, [r7, #16]
 8005ffc:	015a      	lsls	r2, r3, #5
 8005ffe:	68fb      	ldr	r3, [r7, #12]
 8006000:	4413      	add	r3, r2
 8006002:	f503 6330 	add.w	r3, r3, #2816	; 0xb00
 8006006:	461a      	mov	r2, r3
 8006008:	f64f 337f 	movw	r3, #64383	; 0xfb7f
 800600c:	6093      	str	r3, [r2, #8]
 800600e:	693b      	ldr	r3, [r7, #16]
 8006010:	3301      	adds	r3, #1
 8006012:	613b      	str	r3, [r7, #16]
 8006014:	6a7b      	ldr	r3, [r7, #36]	; 0x24
 8006016:	693a      	ldr	r2, [r7, #16]
 8006018:	429a      	cmp	r2, r3
 800601a:	d3b7      	bcc.n	8005f8c <USB_DevInit+0x1bc>
 800601c:	68fb      	ldr	r3, [r7, #12]
 800601e:	f503 6300 	add.w	r3, r3, #2048	; 0x800
 8006022:	691b      	ldr	r3, [r3, #16]
 8006024:	68fa      	ldr	r2, [r7, #12]
 8006026:	f502 6200 	add.w	r2, r2, #2048	; 0x800
 800602a:	f423 7380 	bic.w	r3, r3, #256	; 0x100
 800602e:	6113      	str	r3, [r2, #16]
 8006030:	687b      	ldr	r3, [r7, #4]
 8006032:	2200      	movs	r2, #0
 8006034:	619a      	str	r2, [r3, #24]
 8006036:	687b      	ldr	r3, [r7, #4]
 8006038:	f06f 4280 	mvn.w	r2, #1073741824	; 0x40000000
 800603c:	615a      	str	r2, [r3, #20]
 800603e:	6b3b      	ldr	r3, [r7, #48]	; 0x30
 8006040:	2b00      	cmp	r3, #0
 8006042:	d105      	bne.n	8006050 <USB_DevInit+0x280>
 8006044:	687b      	ldr	r3, [r7, #4]
 8006046:	699b      	ldr	r3, [r3, #24]
 8006048:	f043 0210 	orr.w	r2, r3, #16
 800604c:	687b      	ldr	r3, [r7, #4]
 800604e:	619a      	str	r2, [r3, #24]
 8006050:	687b      	ldr	r3, [r7, #4]
 8006052:	699a      	ldr	r2, [r3, #24]
 8006054:	4b0f      	ldr	r3, [pc, #60]	; (8006094 <USB_DevInit+0x2c4>)
 8006056:	4313      	orrs	r3, r2
 8006058:	687a      	ldr	r2, [r7, #4]
 800605a:	6193      	str	r3, [r2, #24]
 800605c:	6bfb      	ldr	r3, [r7, #60]	; 0x3c
 800605e:	2b00      	cmp	r3, #0
 8006060:	d005      	beq.n	800606e <USB_DevInit+0x29e>
 8006062:	687b      	ldr	r3, [r7, #4]
 8006064:	699b      	ldr	r3, [r3, #24]
 8006066:	f043 0208 	orr.w	r2, r3, #8
 800606a:	687b      	ldr	r3, [r7, #4]
 800606c:	619a      	str	r2, [r3, #24]
 800606e:	6cfb      	ldr	r3, [r7, #76]	; 0x4c
 8006070:	2b01      	cmp	r3, #1
 8006072:	d107      	bne.n	8006084 <USB_DevInit+0x2b4>
 8006074:	687b      	ldr	r3, [r7, #4]
 8006076:	699b      	ldr	r3, [r3, #24]
 8006078:	f043 4380 	orr.w	r3, r3, #1073741824	; 0x40000000
 800607c:	f043 0304 	orr.w	r3, r3, #4
 8006080:	687a      	ldr	r2, [r7, #4]
 8006082:	6193      	str	r3, [r2, #24]
 8006084:	7dfb      	ldrb	r3, [r7, #23]
 8006086:	4618      	mov	r0, r3
 8006088:	3718      	adds	r7, #24
 800608a:	46bd      	mov	sp, r7
 800608c:	e8bd 4080 	ldmia.w	sp!, {r7, lr}
 8006090:	b004      	add	sp, #16
 8006092:	4770      	bx	lr
 8006094:	803c3800 	.word	0x803c3800

08006098 <USB_FlushTxFifo>:
 8006098:	b480      	push	{r7}
 800609a:	b085      	sub	sp, #20
 800609c:	af00      	add	r7, sp, #0
 800609e:	6078      	str	r0, [r7, #4]
 80060a0:	6039      	str	r1, [r7, #0]
 80060a2:	2300      	movs	r3, #0
 80060a4:	60fb      	str	r3, [r7, #12]
 80060a6:	683b      	ldr	r3, [r7, #0]
 80060a8:	019b      	lsls	r3, r3, #6
 80060aa:	f043 0220 	orr.w	r2, r3, #32
 80060ae:	687b      	ldr	r3, [r7, #4]
 80060b0:	611a      	str	r2, [r3, #16]
 80060b2:	68fb      	ldr	r3, [r7, #12]
 80060b4:	3301      	adds	r3, #1
 80060b6:	60fb      	str	r3, [r7, #12]
 80060b8:	68fb      	ldr	r3, [r7, #12]
 80060ba:	4a09      	ldr	r2, [pc, #36]	; (80060e0 <USB_FlushTxFifo+0x48>)
 80060bc:	4293      	cmp	r3, r2
 80060be:	d901      	bls.n	80060c4 <USB_FlushTxFifo+0x2c>
 80060c0:	2303      	movs	r3, #3
 80060c2:	e006      	b.n	80060d2 <USB_FlushTxFifo+0x3a>
 80060c4:	687b      	ldr	r3, [r7, #4]
 80060c6:	691b      	ldr	r3, [r3, #16]
 80060c8:	f003 0320 	and.w	r3, r3, #32
 80060cc:	2b20      	cmp	r3, #32
 80060ce:	d0f0      	beq.n	80060b2 <USB_FlushTxFifo+0x1a>
 80060d0:	2300      	movs	r3, #0
 80060d2:	4618      	mov	r0, r3
 80060d4:	3714      	adds	r7, #20
 80060d6:	46bd      	mov	sp, r7
 80060d8:	f85d 7b04 	ldr.w	r7, [sp], #4
 80060dc:	4770      	bx	lr
 80060de:	bf00      	nop
 80060e0:	00030d40 	.word	0x00030d40

080060e4 <USB_FlushRxFifo>:
 80060e4:	b480      	push	{r7}
 80060e6:	b085      	sub	sp, #20
 80060e8:	af00      	add	r7, sp, #0
 80060ea:	6078      	str	r0, [r7, #4]
 80060ec:	2300      	movs	r3, #0
 80060ee:	60fb      	str	r3, [r7, #12]
 80060f0:	687b      	ldr	r3, [r7, #4]
 80060f2:	2210      	movs	r2, #16
 80060f4:	611a      	str	r2, [r3, #16]
 80060f6:	68fb      	ldr	r3, [r7, #12]
 80060f8:	3301      	adds	r3, #1
 80060fa:	60fb      	str	r3, [r7, #12]
 80060fc:	68fb      	ldr	r3, [r7, #12]
 80060fe:	4a09      	ldr	r2, [pc, #36]	; (8006124 <USB_FlushRxFifo+0x40>)
 8006100:	4293      	cmp	r3, r2
 8006102:	d901      	bls.n	8006108 <USB_FlushRxFifo+0x24>
 8006104:	2303      	movs	r3, #3
 8006106:	e006      	b.n	8006116 <USB_FlushRxFifo+0x32>
 8006108:	687b      	ldr	r3, [r7, #4]
 800610a:	691b      	ldr	r3, [r3, #16]
 800610c:	f003 0310 	and.w	r3, r3, #16
 8006110:	2b10      	cmp	r3, #16
 8006112:	d0f0      	beq.n	80060f6 <USB_FlushRxFifo+0x12>
 8006114:	2300      	movs	r3, #0
 8006116:	4618      	mov	r0, r3
 8006118:	3714      	adds	r7, #20
 800611a:	46bd      	mov	sp, r7
 800611c:	f85d 7b04 	ldr.w	r7, [sp], #4
 8006120:	4770      	bx	lr
 8006122:	bf00      	nop
 8006124:	00030d40 	.word	0x00030d40

08006128 <USB_SetDevSpeed>:
 8006128:	b480      	push	{r7}
 800612a:	b085      	sub	sp, #20
 800612c:	af00      	add	r7, sp, #0
 800612e:	6078      	str	r0, [r7, #4]
 8006130:	460b      	mov	r3, r1
 8006132:	70fb      	strb	r3, [r7, #3]
 8006134:	687b      	ldr	r3, [r7, #4]
 8006136:	60fb      	str	r3, [r7, #12]
 8006138:	68fb      	ldr	r3, [r7, #12]
 800613a:	f503 6300 	add.w	r3, r3, #2048	; 0x800
 800613e:	681a      	ldr	r2, [r3, #0]
 8006140:	78fb      	ldrb	r3, [r7, #3]
 8006142:	68f9      	ldr	r1, [r7, #12]
 8006144:	f501 6100 	add.w	r1, r1, #2048	; 0x800
 8006148:	4313      	orrs	r3, r2
 800614a:	600b      	str	r3, [r1, #0]
 800614c:	2300      	movs	r3, #0
 800614e:	4618      	mov	r0, r3
 8006150:	3714      	adds	r7, #20
 8006152:	46bd      	mov	sp, r7
 8006154:	f85d 7b04 	ldr.w	r7, [sp], #4
 8006158:	4770      	bx	lr

0800615a <USB_GetDevSpeed>:
 800615a:	b480      	push	{r7}
 800615c:	b087      	sub	sp, #28
 800615e:	af00      	add	r7, sp, #0
 8006160:	6078      	str	r0, [r7, #4]
 8006162:	687b      	ldr	r3, [r7, #4]
 8006164:	613b      	str	r3, [r7, #16]
 8006166:	693b      	ldr	r3, [r7, #16]
 8006168:	f503 6300 	add.w	r3, r3, #2048	; 0x800
 800616c:	689b      	ldr	r3, [r3, #8]
 800616e:	f003 0306 	and.w	r3, r3, #6
 8006172:	60fb      	str	r3, [r7, #12]
 8006174:	68fb      	ldr	r3, [r7, #12]
 8006176:	2b00      	cmp	r3, #0
 8006178:	d102      	bne.n	8006180 <USB_GetDevSpeed+0x26>
 800617a:	2300      	movs	r3, #0
 800617c:	75fb      	strb	r3, [r7, #23]
 800617e:	e00a      	b.n	8006196 <USB_GetDevSpeed+0x3c>
 8006180:	68fb      	ldr	r3, [r7, #12]
 8006182:	2b02      	cmp	r3, #2
 8006184:	d002      	beq.n	800618c <USB_GetDevSpeed+0x32>
 8006186:	68fb      	ldr	r3, [r7, #12]
 8006188:	2b06      	cmp	r3, #6
 800618a:	d102      	bne.n	8006192 <USB_GetDevSpeed+0x38>
 800618c:	2302      	movs	r3, #2
 800618e:	75fb      	strb	r3, [r7, #23]
 8006190:	e001      	b.n	8006196 <USB_GetDevSpeed+0x3c>
 8006192:	230f      	movs	r3, #15
 8006194:	75fb      	strb	r3, [r7, #23]
 8006196:	7dfb      	ldrb	r3, [r7, #23]
 8006198:	4618      	mov	r0, r3
 800619a:	371c      	adds	r7, #28
 800619c:	46bd      	mov	sp, r7
 800619e:	f85d 7b04 	ldr.w	r7, [sp], #4
 80061a2:	4770      	bx	lr

080061a4 <USB_WritePacket>:
 80061a4:	b480      	push	{r7}
 80061a6:	b089      	sub	sp, #36	; 0x24
 80061a8:	af00      	add	r7, sp, #0
 80061aa:	60f8      	str	r0, [r7, #12]
 80061ac:	60b9      	str	r1, [r7, #8]
 80061ae:	4611      	mov	r1, r2
 80061b0:	461a      	mov	r2, r3
 80061b2:	460b      	mov	r3, r1
 80061b4:	71fb      	strb	r3, [r7, #7]
 80061b6:	4613      	mov	r3, r2
 80061b8:	80bb      	strh	r3, [r7, #4]
 80061ba:	68fb      	ldr	r3, [r7, #12]
 80061bc:	617b      	str	r3, [r7, #20]
 80061be:	68bb      	ldr	r3, [r7, #8]
 80061c0:	61fb      	str	r3, [r7, #28]
 80061c2:	f897 3028 	ldrb.w	r3, [r7, #40]	; 0x28
 80061c6:	2b00      	cmp	r3, #0
 80061c8:	d11a      	bne.n	8006200 <USB_WritePacket+0x5c>
 80061ca:	88bb      	ldrh	r3, [r7, #4]
 80061cc:	3303      	adds	r3, #3
 80061ce:	089b      	lsrs	r3, r3, #2
 80061d0:	613b      	str	r3, [r7, #16]
 80061d2:	2300      	movs	r3, #0
 80061d4:	61bb      	str	r3, [r7, #24]
 80061d6:	e00f      	b.n	80061f8 <USB_WritePacket+0x54>
 80061d8:	79fb      	ldrb	r3, [r7, #7]
 80061da:	031a      	lsls	r2, r3, #12
 80061dc:	697b      	ldr	r3, [r7, #20]
 80061de:	4413      	add	r3, r2
 80061e0:	f503 5380 	add.w	r3, r3, #4096	; 0x1000
 80061e4:	461a      	mov	r2, r3
 80061e6:	69fb      	ldr	r3, [r7, #28]
 80061e8:	681b      	ldr	r3, [r3, #0]
 80061ea:	6013      	str	r3, [r2, #0]
 80061ec:	69fb      	ldr	r3, [r7, #28]
 80061ee:	3304      	adds	r3, #4
 80061f0:	61fb      	str	r3, [r7, #28]
 80061f2:	69bb      	ldr	r3, [r7, #24]
 80061f4:	3301      	adds	r3, #1
 80061f6:	61bb      	str	r3, [r7, #24]
 80061f8:	69ba      	ldr	r2, [r7, #24]
 80061fa:	693b      	ldr	r3, [r7, #16]
 80061fc:	429a      	cmp	r2, r3
 80061fe:	d3eb      	bcc.n	80061d8 <USB_WritePacket+0x34>
 8006200:	2300      	movs	r3, #0
 8006202:	4618      	mov	r0, r3
 8006204:	3724      	adds	r7, #36	; 0x24
 8006206:	46bd      	mov	sp, r7
 8006208:	f85d 7b04 	ldr.w	r7, [sp], #4
 800620c:	4770      	bx	lr

0800620e <USB_ReadPacket>:
 800620e:	b480      	push	{r7}
 8006210:	b089      	sub	sp, #36	; 0x24
 8006212:	af00      	add	r7, sp, #0
 8006214:	60f8      	str	r0, [r7, #12]
 8006216:	60b9      	str	r1, [r7, #8]
 8006218:	4613      	mov	r3, r2
 800621a:	80fb      	strh	r3, [r7, #6]
 800621c:	68fb      	ldr	r3, [r7, #12]
 800621e:	617b      	str	r3, [r7, #20]
 8006220:	68bb      	ldr	r3, [r7, #8]
 8006222:	61fb      	str	r3, [r7, #28]
 8006224:	88fb      	ldrh	r3, [r7, #6]
 8006226:	3303      	adds	r3, #3
 8006228:	089b      	lsrs	r3, r3, #2
 800622a:	613b      	str	r3, [r7, #16]
 800622c:	2300      	movs	r3, #0
 800622e:	61bb      	str	r3, [r7, #24]
 8006230:	e00b      	b.n	800624a <USB_ReadPacket+0x3c>
 8006232:	697b      	ldr	r3, [r7, #20]
 8006234:	f503 5380 	add.w	r3, r3, #4096	; 0x1000
 8006238:	681a      	ldr	r2, [r3, #0]
 800623a:	69fb      	ldr	r3, [r7, #28]
 800623c:	601a      	str	r2, [r3, #0]
 800623e:	69fb      	ldr	r3, [r7, #28]
 8006240:	3304      	adds	r3, #4
 8006242:	61fb      	str	r3, [r7, #28]
 8006244:	69bb      	ldr	r3, [r7, #24]
 8006246:	3301      	adds	r3, #1
 8006248:	61bb      	str	r3, [r7, #24]
 800624a:	69ba      	ldr	r2, [r7, #24]
 800624c:	693b      	ldr	r3, [r7, #16]
 800624e:	429a      	cmp	r2, r3
 8006250:	d3ef      	bcc.n	8006232 <USB_ReadPacket+0x24>
 8006252:	69fb      	ldr	r3, [r7, #28]
 8006254:	4618      	mov	r0, r3
 8006256:	3724      	adds	r7, #36	; 0x24
 8006258:	46bd      	mov	sp, r7
 800625a:	f85d 7b04 	ldr.w	r7, [sp], #4
 800625e:	4770      	bx	lr

08006260 <USB_DevDisconnect>:
 8006260:	b480      	push	{r7}
 8006262:	b085      	sub	sp, #20
 8006264:	af00      	add	r7, sp, #0
 8006266:	6078      	str	r0, [r7, #4]
 8006268:	687b      	ldr	r3, [r7, #4]
 800626a:	60fb      	str	r3, [r7, #12]
 800626c:	68fb      	ldr	r3, [r7, #12]
 800626e:	f503 6360 	add.w	r3, r3, #3584	; 0xe00
 8006272:	681b      	ldr	r3, [r3, #0]
 8006274:	68fa      	ldr	r2, [r7, #12]
 8006276:	f502 6260 	add.w	r2, r2, #3584	; 0xe00
 800627a:	f023 0303 	bic.w	r3, r3, #3
 800627e:	6013      	str	r3, [r2, #0]
 8006280:	68fb      	ldr	r3, [r7, #12]
 8006282:	f503 6300 	add.w	r3, r3, #2048	; 0x800
 8006286:	685b      	ldr	r3, [r3, #4]
 8006288:	68fa      	ldr	r2, [r7, #12]
 800628a:	f502 6200 	add.w	r2, r2, #2048	; 0x800
 800628e:	f043 0302 	orr.w	r3, r3, #2
 8006292:	6053      	str	r3, [r2, #4]
 8006294:	2300      	movs	r3, #0
 8006296:	4618      	mov	r0, r3
 8006298:	3714      	adds	r7, #20
 800629a:	46bd      	mov	sp, r7
 800629c:	f85d 7b04 	ldr.w	r7, [sp], #4
 80062a0:	4770      	bx	lr

080062a2 <USB_ReadInterrupts>:
 80062a2:	b480      	push	{r7}
 80062a4:	b085      	sub	sp, #20
 80062a6:	af00      	add	r7, sp, #0
 80062a8:	6078      	str	r0, [r7, #4]
 80062aa:	687b      	ldr	r3, [r7, #4]
 80062ac:	695b      	ldr	r3, [r3, #20]
 80062ae:	60fb      	str	r3, [r7, #12]
 80062b0:	687b      	ldr	r3, [r7, #4]
 80062b2:	699b      	ldr	r3, [r3, #24]
 80062b4:	68fa      	ldr	r2, [r7, #12]
 80062b6:	4013      	ands	r3, r2
 80062b8:	60fb      	str	r3, [r7, #12]
 80062ba:	68fb      	ldr	r3, [r7, #12]
 80062bc:	4618      	mov	r0, r3
 80062be:	3714      	adds	r7, #20
 80062c0:	46bd      	mov	sp, r7
 80062c2:	f85d 7b04 	ldr.w	r7, [sp], #4
 80062c6:	4770      	bx	lr

080062c8 <USB_ReadDevAllOutEpInterrupt>:
 80062c8:	b480      	push	{r7}
 80062ca:	b085      	sub	sp, #20
 80062cc:	af00      	add	r7, sp, #0
 80062ce:	6078      	str	r0, [r7, #4]
 80062d0:	687b      	ldr	r3, [r7, #4]
 80062d2:	60fb      	str	r3, [r7, #12]
 80062d4:	68fb      	ldr	r3, [r7, #12]
 80062d6:	f503 6300 	add.w	r3, r3, #2048	; 0x800
 80062da:	699b      	ldr	r3, [r3, #24]
 80062dc:	60bb      	str	r3, [r7, #8]
 80062de:	68fb      	ldr	r3, [r7, #12]
 80062e0:	f503 6300 	add.w	r3, r3, #2048	; 0x800
 80062e4:	69db      	ldr	r3, [r3, #28]
 80062e6:	68ba      	ldr	r2, [r7, #8]
 80062e8:	4013      	ands	r3, r2
 80062ea:	60bb      	str	r3, [r7, #8]
 80062ec:	68bb      	ldr	r3, [r7, #8]
 80062ee:	0c1b      	lsrs	r3, r3, #16
 80062f0:	4618      	mov	r0, r3
 80062f2:	3714      	adds	r7, #20
 80062f4:	46bd      	mov	sp, r7
 80062f6:	f85d 7b04 	ldr.w	r7, [sp], #4
 80062fa:	4770      	bx	lr

080062fc <USB_ReadDevAllInEpInterrupt>:
 80062fc:	b480      	push	{r7}
 80062fe:	b085      	sub	sp, #20
 8006300:	af00      	add	r7, sp, #0
 8006302:	6078      	str	r0, [r7, #4]
 8006304:	687b      	ldr	r3, [r7, #4]
 8006306:	60fb      	str	r3, [r7, #12]
 8006308:	68fb      	ldr	r3, [r7, #12]
 800630a:	f503 6300 	add.w	r3, r3, #2048	; 0x800
 800630e:	699b      	ldr	r3, [r3, #24]
 8006310:	60bb      	str	r3, [r7, #8]
 8006312:	68fb      	ldr	r3, [r7, #12]
 8006314:	f503 6300 	add.w	r3, r3, #2048	; 0x800
 8006318:	69db      	ldr	r3, [r3, #28]
 800631a:	68ba      	ldr	r2, [r7, #8]
 800631c:	4013      	ands	r3, r2
 800631e:	60bb      	str	r3, [r7, #8]
 8006320:	68bb      	ldr	r3, [r7, #8]
 8006322:	b29b      	uxth	r3, r3
 8006324:	4618      	mov	r0, r3
 8006326:	3714      	adds	r7, #20
 8006328:	46bd      	mov	sp, r7
 800632a:	f85d 7b04 	ldr.w	r7, [sp], #4
 800632e:	4770      	bx	lr

08006330 <USB_ReadDevOutEPInterrupt>:
 8006330:	b480      	push	{r7}
 8006332:	b085      	sub	sp, #20
 8006334:	af00      	add	r7, sp, #0
 8006336:	6078      	str	r0, [r7, #4]
 8006338:	460b      	mov	r3, r1
 800633a:	70fb      	strb	r3, [r7, #3]
 800633c:	687b      	ldr	r3, [r7, #4]
 800633e:	60fb      	str	r3, [r7, #12]
 8006340:	78fb      	ldrb	r3, [r7, #3]
 8006342:	015a      	lsls	r2, r3, #5
 8006344:	68fb      	ldr	r3, [r7, #12]
 8006346:	4413      	add	r3, r2
 8006348:	f503 6330 	add.w	r3, r3, #2816	; 0xb00
 800634c:	689b      	ldr	r3, [r3, #8]
 800634e:	60bb      	str	r3, [r7, #8]
 8006350:	68fb      	ldr	r3, [r7, #12]
 8006352:	f503 6300 	add.w	r3, r3, #2048	; 0x800
 8006356:	695b      	ldr	r3, [r3, #20]
 8006358:	68ba      	ldr	r2, [r7, #8]
 800635a:	4013      	ands	r3, r2
 800635c:	60bb      	str	r3, [r7, #8]
 800635e:	68bb      	ldr	r3, [r7, #8]
 8006360:	4618      	mov	r0, r3
 8006362:	3714      	adds	r7, #20
 8006364:	46bd      	mov	sp, r7
 8006366:	f85d 7b04 	ldr.w	r7, [sp], #4
 800636a:	4770      	bx	lr

0800636c <USB_ReadDevInEPInterrupt>:
 800636c:	b480      	push	{r7}
 800636e:	b087      	sub	sp, #28
 8006370:	af00      	add	r7, sp, #0
 8006372:	6078      	str	r0, [r7, #4]
 8006374:	460b      	mov	r3, r1
 8006376:	70fb      	strb	r3, [r7, #3]
 8006378:	687b      	ldr	r3, [r7, #4]
 800637a:	617b      	str	r3, [r7, #20]
 800637c:	697b      	ldr	r3, [r7, #20]
 800637e:	f503 6300 	add.w	r3, r3, #2048	; 0x800
 8006382:	691b      	ldr	r3, [r3, #16]
 8006384:	613b      	str	r3, [r7, #16]
 8006386:	697b      	ldr	r3, [r7, #20]
 8006388:	f503 6300 	add.w	r3, r3, #2048	; 0x800
 800638c:	6b5b      	ldr	r3, [r3, #52]	; 0x34
 800638e:	60fb      	str	r3, [r7, #12]
 8006390:	78fb      	ldrb	r3, [r7, #3]
 8006392:	f003 030f 	and.w	r3, r3, #15
 8006396:	68fa      	ldr	r2, [r7, #12]
 8006398:	fa22 f303 	lsr.w	r3, r2, r3
 800639c:	01db      	lsls	r3, r3, #7
 800639e:	b2db      	uxtb	r3, r3
 80063a0:	693a      	ldr	r2, [r7, #16]
 80063a2:	4313      	orrs	r3, r2
 80063a4:	613b      	str	r3, [r7, #16]
 80063a6:	78fb      	ldrb	r3, [r7, #3]
 80063a8:	015a      	lsls	r2, r3, #5
 80063aa:	697b      	ldr	r3, [r7, #20]
 80063ac:	4413      	add	r3, r2
 80063ae:	f503 6310 	add.w	r3, r3, #2304	; 0x900
 80063b2:	689b      	ldr	r3, [r3, #8]
 80063b4:	693a      	ldr	r2, [r7, #16]
 80063b6:	4013      	ands	r3, r2
 80063b8:	60bb      	str	r3, [r7, #8]
 80063ba:	68bb      	ldr	r3, [r7, #8]
 80063bc:	4618      	mov	r0, r3
 80063be:	371c      	adds	r7, #28
 80063c0:	46bd      	mov	sp, r7
 80063c2:	f85d 7b04 	ldr.w	r7, [sp], #4
 80063c6:	4770      	bx	lr

080063c8 <USB_GetMode>:
 80063c8:	b480      	push	{r7}
 80063ca:	b083      	sub	sp, #12
 80063cc:	af00      	add	r7, sp, #0
 80063ce:	6078      	str	r0, [r7, #4]
 80063d0:	687b      	ldr	r3, [r7, #4]
 80063d2:	695b      	ldr	r3, [r3, #20]
 80063d4:	f003 0301 	and.w	r3, r3, #1
 80063d8:	4618      	mov	r0, r3
 80063da:	370c      	adds	r7, #12
 80063dc:	46bd      	mov	sp, r7
 80063de:	f85d 7b04 	ldr.w	r7, [sp], #4
 80063e2:	4770      	bx	lr

080063e4 <USB_ActivateSetup>:
 80063e4:	b480      	push	{r7}
 80063e6:	b085      	sub	sp, #20
 80063e8:	af00      	add	r7, sp, #0
 80063ea:	6078      	str	r0, [r7, #4]
 80063ec:	687b      	ldr	r3, [r7, #4]
 80063ee:	60fb      	str	r3, [r7, #12]
 80063f0:	68fb      	ldr	r3, [r7, #12]
 80063f2:	f503 6310 	add.w	r3, r3, #2304	; 0x900
 80063f6:	681b      	ldr	r3, [r3, #0]
 80063f8:	68fa      	ldr	r2, [r7, #12]
 80063fa:	f502 6210 	add.w	r2, r2, #2304	; 0x900
 80063fe:	f423 63ff 	bic.w	r3, r3, #2040	; 0x7f8
 8006402:	f023 0307 	bic.w	r3, r3, #7
 8006406:	6013      	str	r3, [r2, #0]
 8006408:	68fb      	ldr	r3, [r7, #12]
 800640a:	f503 6300 	add.w	r3, r3, #2048	; 0x800
 800640e:	685b      	ldr	r3, [r3, #4]
 8006410:	68fa      	ldr	r2, [r7, #12]
 8006412:	f502 6200 	add.w	r2, r2, #2048	; 0x800
 8006416:	f443 7380 	orr.w	r3, r3, #256	; 0x100
 800641a:	6053      	str	r3, [r2, #4]
 800641c:	2300      	movs	r3, #0
 800641e:	4618      	mov	r0, r3
 8006420:	3714      	adds	r7, #20
 8006422:	46bd      	mov	sp, r7
 8006424:	f85d 7b04 	ldr.w	r7, [sp], #4
 8006428:	4770      	bx	lr
	...

0800642c <USB_EP0_OutStart>:
 800642c:	b480      	push	{r7}
 800642e:	b087      	sub	sp, #28
 8006430:	af00      	add	r7, sp, #0
 8006432:	60f8      	str	r0, [r7, #12]
 8006434:	460b      	mov	r3, r1
 8006436:	607a      	str	r2, [r7, #4]
 8006438:	72fb      	strb	r3, [r7, #11]
 800643a:	68fb      	ldr	r3, [r7, #12]
 800643c:	617b      	str	r3, [r7, #20]
 800643e:	68fb      	ldr	r3, [r7, #12]
 8006440:	333c      	adds	r3, #60	; 0x3c
 8006442:	3304      	adds	r3, #4
 8006444:	681b      	ldr	r3, [r3, #0]
 8006446:	613b      	str	r3, [r7, #16]
 8006448:	693b      	ldr	r3, [r7, #16]
 800644a:	4a26      	ldr	r2, [pc, #152]	; (80064e4 <USB_EP0_OutStart+0xb8>)
 800644c:	4293      	cmp	r3, r2
 800644e:	d90a      	bls.n	8006466 <USB_EP0_OutStart+0x3a>
 8006450:	697b      	ldr	r3, [r7, #20]
 8006452:	f503 6330 	add.w	r3, r3, #2816	; 0xb00
 8006456:	681b      	ldr	r3, [r3, #0]
 8006458:	f003 4300 	and.w	r3, r3, #2147483648	; 0x80000000
 800645c:	f1b3 4f00 	cmp.w	r3, #2147483648	; 0x80000000
 8006460:	d101      	bne.n	8006466 <USB_EP0_OutStart+0x3a>
 8006462:	2300      	movs	r3, #0
 8006464:	e037      	b.n	80064d6 <USB_EP0_OutStart+0xaa>
 8006466:	697b      	ldr	r3, [r7, #20]
 8006468:	f503 6330 	add.w	r3, r3, #2816	; 0xb00
 800646c:	461a      	mov	r2, r3
 800646e:	2300      	movs	r3, #0
 8006470:	6113      	str	r3, [r2, #16]
 8006472:	697b      	ldr	r3, [r7, #20]
 8006474:	f503 6330 	add.w	r3, r3, #2816	; 0xb00
 8006478:	691b      	ldr	r3, [r3, #16]
 800647a:	697a      	ldr	r2, [r7, #20]
 800647c:	f502 6230 	add.w	r2, r2, #2816	; 0xb00
 8006480:	f443 2300 	orr.w	r3, r3, #524288	; 0x80000
 8006484:	6113      	str	r3, [r2, #16]
 8006486:	697b      	ldr	r3, [r7, #20]
 8006488:	f503 6330 	add.w	r3, r3, #2816	; 0xb00
 800648c:	691b      	ldr	r3, [r3, #16]
 800648e:	697a      	ldr	r2, [r7, #20]
 8006490:	f502 6230 	add.w	r2, r2, #2816	; 0xb00
 8006494:	f043 0318 	orr.w	r3, r3, #24
 8006498:	6113      	str	r3, [r2, #16]
 800649a:	697b      	ldr	r3, [r7, #20]
 800649c:	f503 6330 	add.w	r3, r3, #2816	; 0xb00
 80064a0:	691b      	ldr	r3, [r3, #16]
 80064a2:	697a      	ldr	r2, [r7, #20]
 80064a4:	f502 6230 	add.w	r2, r2, #2816	; 0xb00
 80064a8:	f043 43c0 	orr.w	r3, r3, #1610612736	; 0x60000000
 80064ac:	6113      	str	r3, [r2, #16]
 80064ae:	7afb      	ldrb	r3, [r7, #11]
 80064b0:	2b01      	cmp	r3, #1
 80064b2:	d10f      	bne.n	80064d4 <USB_EP0_OutStart+0xa8>
 80064b4:	697b      	ldr	r3, [r7, #20]
 80064b6:	f503 6330 	add.w	r3, r3, #2816	; 0xb00
 80064ba:	461a      	mov	r2, r3
 80064bc:	687b      	ldr	r3, [r7, #4]
 80064be:	6153      	str	r3, [r2, #20]
 80064c0:	697b      	ldr	r3, [r7, #20]
 80064c2:	f503 6330 	add.w	r3, r3, #2816	; 0xb00
 80064c6:	681b      	ldr	r3, [r3, #0]
 80064c8:	697a      	ldr	r2, [r7, #20]
 80064ca:	f502 6230 	add.w	r2, r2, #2816	; 0xb00
 80064ce:	f043 2380 	orr.w	r3, r3, #2147516416	; 0x80008000
 80064d2:	6013      	str	r3, [r2, #0]
 80064d4:	2300      	movs	r3, #0
 80064d6:	4618      	mov	r0, r3
 80064d8:	371c      	adds	r7, #28
 80064da:	46bd      	mov	sp, r7
 80064dc:	f85d 7b04 	ldr.w	r7, [sp], #4
 80064e0:	4770      	bx	lr
 80064e2:	bf00      	nop
 80064e4:	4f54300a 	.word	0x4f54300a

080064e8 <USB_CoreReset>:
 80064e8:	b480      	push	{r7}
 80064ea:	b085      	sub	sp, #20
 80064ec:	af00      	add	r7, sp, #0
 80064ee:	6078      	str	r0, [r7, #4]
 80064f0:	2300      	movs	r3, #0
 80064f2:	60fb      	str	r3, [r7, #12]
 80064f4:	68fb      	ldr	r3, [r7, #12]
 80064f6:	3301      	adds	r3, #1
 80064f8:	60fb      	str	r3, [r7, #12]
 80064fa:	68fb      	ldr	r3, [r7, #12]
 80064fc:	4a13      	ldr	r2, [pc, #76]	; (800654c <USB_CoreReset+0x64>)
 80064fe:	4293      	cmp	r3, r2
 8006500:	d901      	bls.n	8006506 <USB_CoreReset+0x1e>
 8006502:	2303      	movs	r3, #3
 8006504:	e01b      	b.n	800653e <USB_CoreReset+0x56>
 8006506:	687b      	ldr	r3, [r7, #4]
 8006508:	691b      	ldr	r3, [r3, #16]
 800650a:	2b00      	cmp	r3, #0
 800650c:	daf2      	bge.n	80064f4 <USB_CoreReset+0xc>
 800650e:	2300      	movs	r3, #0
 8006510:	60fb      	str	r3, [r7, #12]
 8006512:	687b      	ldr	r3, [r7, #4]
 8006514:	691b      	ldr	r3, [r3, #16]
 8006516:	f043 0201 	orr.w	r2, r3, #1
 800651a:	687b      	ldr	r3, [r7, #4]
 800651c:	611a      	str	r2, [r3, #16]
 800651e:	68fb      	ldr	r3, [r7, #12]
 8006520:	3301      	adds	r3, #1
 8006522:	60fb      	str	r3, [r7, #12]
 8006524:	68fb      	ldr	r3, [r7, #12]
 8006526:	4a09      	ldr	r2, [pc, #36]	; (800654c <USB_CoreReset+0x64>)
 8006528:	4293      	cmp	r3, r2
 800652a:	d901      	bls.n	8006530 <USB_CoreReset+0x48>
 800652c:	2303      	movs	r3, #3
 800652e:	e006      	b.n	800653e <USB_CoreReset+0x56>
 8006530:	687b      	ldr	r3, [r7, #4]
 8006532:	691b      	ldr	r3, [r3, #16]
 8006534:	f003 0301 	and.w	r3, r3, #1
 8006538:	2b01      	cmp	r3, #1
 800653a:	d0f0      	beq.n	800651e <USB_CoreReset+0x36>
 800653c:	2300      	movs	r3, #0
 800653e:	4618      	mov	r0, r3
 8006540:	3714      	adds	r7, #20
 8006542:	46bd      	mov	sp, r7
 8006544:	f85d 7b04 	ldr.w	r7, [sp], #4
 8006548:	4770      	bx	lr
 800654a:	bf00      	nop
 800654c:	00030d40 	.word	0x00030d40

08006550 <SVC_Setup>:
 8006550:	b480      	push	{r7}
 8006552:	af00      	add	r7, sp, #0
 8006554:	bf00      	nop
 8006556:	46bd      	mov	sp, r7
 8006558:	f85d 7b04 	ldr.w	r7, [sp], #4
 800655c:	4770      	bx	lr
	...

08006560 <osKernelInitialize>:
 8006560:	b480      	push	{r7}
 8006562:	b085      	sub	sp, #20
 8006564:	af00      	add	r7, sp, #0
 8006566:	f3ef 8305 	mrs	r3, IPSR
 800656a:	60bb      	str	r3, [r7, #8]
 800656c:	68bb      	ldr	r3, [r7, #8]
 800656e:	2b00      	cmp	r3, #0
 8006570:	d10f      	bne.n	8006592 <osKernelInitialize+0x32>
 8006572:	f3ef 8310 	mrs	r3, PRIMASK
 8006576:	607b      	str	r3, [r7, #4]
 8006578:	687b      	ldr	r3, [r7, #4]
 800657a:	2b00      	cmp	r3, #0
 800657c:	d105      	bne.n	800658a <osKernelInitialize+0x2a>
 800657e:	f3ef 8311 	mrs	r3, BASEPRI
 8006582:	603b      	str	r3, [r7, #0]
 8006584:	683b      	ldr	r3, [r7, #0]
 8006586:	2b00      	cmp	r3, #0
 8006588:	d007      	beq.n	800659a <osKernelInitialize+0x3a>
 800658a:	4b0e      	ldr	r3, [pc, #56]	; (80065c4 <osKernelInitialize+0x64>)
 800658c:	681b      	ldr	r3, [r3, #0]
 800658e:	2b02      	cmp	r3, #2
 8006590:	d103      	bne.n	800659a <osKernelInitialize+0x3a>
 8006592:	f06f 0305 	mvn.w	r3, #5
 8006596:	60fb      	str	r3, [r7, #12]
 8006598:	e00c      	b.n	80065b4 <osKernelInitialize+0x54>
 800659a:	4b0a      	ldr	r3, [pc, #40]	; (80065c4 <osKernelInitialize+0x64>)
 800659c:	681b      	ldr	r3, [r3, #0]
 800659e:	2b00      	cmp	r3, #0
 80065a0:	d105      	bne.n	80065ae <osKernelInitialize+0x4e>
 80065a2:	4b08      	ldr	r3, [pc, #32]	; (80065c4 <osKernelInitialize+0x64>)
 80065a4:	2201      	movs	r2, #1
 80065a6:	601a      	str	r2, [r3, #0]
 80065a8:	2300      	movs	r3, #0
 80065aa:	60fb      	str	r3, [r7, #12]
 80065ac:	e002      	b.n	80065b4 <osKernelInitialize+0x54>
 80065ae:	f04f 33ff 	mov.w	r3, #4294967295
 80065b2:	60fb      	str	r3, [r7, #12]
 80065b4:	68fb      	ldr	r3, [r7, #12]
 80065b6:	4618      	mov	r0, r3
 80065b8:	3714      	adds	r7, #20
 80065ba:	46bd      	mov	sp, r7
 80065bc:	f85d 7b04 	ldr.w	r7, [sp], #4
 80065c0:	4770      	bx	lr
 80065c2:	bf00      	nop
 80065c4:	2000002c 	.word	0x2000002c

080065c8 <osKernelStart>:
 80065c8:	b580      	push	{r7, lr}
 80065ca:	b084      	sub	sp, #16
 80065cc:	af00      	add	r7, sp, #0
 80065ce:	f3ef 8305 	mrs	r3, IPSR
 80065d2:	60bb      	str	r3, [r7, #8]
 80065d4:	68bb      	ldr	r3, [r7, #8]
 80065d6:	2b00      	cmp	r3, #0
 80065d8:	d10f      	bne.n	80065fa <osKernelStart+0x32>
 80065da:	f3ef 8310 	mrs	r3, PRIMASK
 80065de:	607b      	str	r3, [r7, #4]
 80065e0:	687b      	ldr	r3, [r7, #4]
 80065e2:	2b00      	cmp	r3, #0
 80065e4:	d105      	bne.n	80065f2 <osKernelStart+0x2a>
 80065e6:	f3ef 8311 	mrs	r3, BASEPRI
 80065ea:	603b      	str	r3, [r7, #0]
 80065ec:	683b      	ldr	r3, [r7, #0]
 80065ee:	2b00      	cmp	r3, #0
 80065f0:	d007      	beq.n	8006602 <osKernelStart+0x3a>
 80065f2:	4b0f      	ldr	r3, [pc, #60]	; (8006630 <osKernelStart+0x68>)
 80065f4:	681b      	ldr	r3, [r3, #0]
 80065f6:	2b02      	cmp	r3, #2
 80065f8:	d103      	bne.n	8006602 <osKernelStart+0x3a>
 80065fa:	f06f 0305 	mvn.w	r3, #5
 80065fe:	60fb      	str	r3, [r7, #12]
 8006600:	e010      	b.n	8006624 <osKernelStart+0x5c>
 8006602:	4b0b      	ldr	r3, [pc, #44]	; (8006630 <osKernelStart+0x68>)
 8006604:	681b      	ldr	r3, [r3, #0]
 8006606:	2b01      	cmp	r3, #1
 8006608:	d109      	bne.n	800661e <osKernelStart+0x56>
 800660a:	f7ff ffa1 	bl	8006550 <SVC_Setup>
 800660e:	4b08      	ldr	r3, [pc, #32]	; (8006630 <osKernelStart+0x68>)
 8006610:	2202      	movs	r2, #2
 8006612:	601a      	str	r2, [r3, #0]
 8006614:	f001 f872 	bl	80076fc <vTaskStartScheduler>
 8006618:	2300      	movs	r3, #0
 800661a:	60fb      	str	r3, [r7, #12]
 800661c:	e002      	b.n	8006624 <osKernelStart+0x5c>
 800661e:	f04f 33ff 	mov.w	r3, #4294967295
 8006622:	60fb      	str	r3, [r7, #12]
 8006624:	68fb      	ldr	r3, [r7, #12]
 8006626:	4618      	mov	r0, r3
 8006628:	3710      	adds	r7, #16
 800662a:	46bd      	mov	sp, r7
 800662c:	bd80      	pop	{r7, pc}
 800662e:	bf00      	nop
 8006630:	2000002c 	.word	0x2000002c

08006634 <osThreadNew>:
 8006634:	b580      	push	{r7, lr}
 8006636:	b090      	sub	sp, #64	; 0x40
 8006638:	af04      	add	r7, sp, #16
 800663a:	60f8      	str	r0, [r7, #12]
 800663c:	60b9      	str	r1, [r7, #8]
 800663e:	607a      	str	r2, [r7, #4]
 8006640:	2300      	movs	r3, #0
 8006642:	613b      	str	r3, [r7, #16]
 8006644:	f3ef 8305 	mrs	r3, IPSR
 8006648:	61fb      	str	r3, [r7, #28]
 800664a:	69fb      	ldr	r3, [r7, #28]
 800664c:	2b00      	cmp	r3, #0
 800664e:	f040 808f 	bne.w	8006770 <osThreadNew+0x13c>
 8006652:	f3ef 8310 	mrs	r3, PRIMASK
 8006656:	61bb      	str	r3, [r7, #24]
 8006658:	69bb      	ldr	r3, [r7, #24]
 800665a:	2b00      	cmp	r3, #0
 800665c:	d105      	bne.n	800666a <osThreadNew+0x36>
 800665e:	f3ef 8311 	mrs	r3, BASEPRI
 8006662:	617b      	str	r3, [r7, #20]
 8006664:	697b      	ldr	r3, [r7, #20]
 8006666:	2b00      	cmp	r3, #0
 8006668:	d003      	beq.n	8006672 <osThreadNew+0x3e>
 800666a:	4b44      	ldr	r3, [pc, #272]	; (800677c <osThreadNew+0x148>)
 800666c:	681b      	ldr	r3, [r3, #0]
 800666e:	2b02      	cmp	r3, #2
 8006670:	d07e      	beq.n	8006770 <osThreadNew+0x13c>
 8006672:	68fb      	ldr	r3, [r7, #12]
 8006674:	2b00      	cmp	r3, #0
 8006676:	d07b      	beq.n	8006770 <osThreadNew+0x13c>
 8006678:	2380      	movs	r3, #128	; 0x80
 800667a:	62bb      	str	r3, [r7, #40]	; 0x28
 800667c:	2318      	movs	r3, #24
 800667e:	627b      	str	r3, [r7, #36]	; 0x24
 8006680:	2300      	movs	r3, #0
 8006682:	62fb      	str	r3, [r7, #44]	; 0x2c
 8006684:	f04f 33ff 	mov.w	r3, #4294967295
 8006688:	623b      	str	r3, [r7, #32]
 800668a:	687b      	ldr	r3, [r7, #4]
 800668c:	2b00      	cmp	r3, #0
 800668e:	d045      	beq.n	800671c <osThreadNew+0xe8>
 8006690:	687b      	ldr	r3, [r7, #4]
 8006692:	681b      	ldr	r3, [r3, #0]
 8006694:	2b00      	cmp	r3, #0
 8006696:	d002      	beq.n	800669e <osThreadNew+0x6a>
 8006698:	687b      	ldr	r3, [r7, #4]
 800669a:	681b      	ldr	r3, [r3, #0]
 800669c:	62fb      	str	r3, [r7, #44]	; 0x2c
 800669e:	687b      	ldr	r3, [r7, #4]
 80066a0:	699b      	ldr	r3, [r3, #24]
 80066a2:	2b00      	cmp	r3, #0
 80066a4:	d002      	beq.n	80066ac <osThreadNew+0x78>
 80066a6:	687b      	ldr	r3, [r7, #4]
 80066a8:	699b      	ldr	r3, [r3, #24]
 80066aa:	627b      	str	r3, [r7, #36]	; 0x24
 80066ac:	6a7b      	ldr	r3, [r7, #36]	; 0x24
 80066ae:	2b00      	cmp	r3, #0
 80066b0:	d008      	beq.n	80066c4 <osThreadNew+0x90>
 80066b2:	6a7b      	ldr	r3, [r7, #36]	; 0x24
 80066b4:	2b38      	cmp	r3, #56	; 0x38
 80066b6:	d805      	bhi.n	80066c4 <osThreadNew+0x90>
 80066b8:	687b      	ldr	r3, [r7, #4]
 80066ba:	685b      	ldr	r3, [r3, #4]
 80066bc:	f003 0301 	and.w	r3, r3, #1
 80066c0:	2b00      	cmp	r3, #0
 80066c2:	d001      	beq.n	80066c8 <osThreadNew+0x94>
 80066c4:	2300      	movs	r3, #0
 80066c6:	e054      	b.n	8006772 <osThreadNew+0x13e>
 80066c8:	687b      	ldr	r3, [r7, #4]
 80066ca:	695b      	ldr	r3, [r3, #20]
 80066cc:	2b00      	cmp	r3, #0
 80066ce:	d003      	beq.n	80066d8 <osThreadNew+0xa4>
 80066d0:	687b      	ldr	r3, [r7, #4]
 80066d2:	695b      	ldr	r3, [r3, #20]
 80066d4:	089b      	lsrs	r3, r3, #2
 80066d6:	62bb      	str	r3, [r7, #40]	; 0x28
 80066d8:	687b      	ldr	r3, [r7, #4]
 80066da:	689b      	ldr	r3, [r3, #8]
 80066dc:	2b00      	cmp	r3, #0
 80066de:	d00e      	beq.n	80066fe <osThreadNew+0xca>
 80066e0:	687b      	ldr	r3, [r7, #4]
 80066e2:	68db      	ldr	r3, [r3, #12]
 80066e4:	2b5f      	cmp	r3, #95	; 0x5f
 80066e6:	d90a      	bls.n	80066fe <osThreadNew+0xca>
 80066e8:	687b      	ldr	r3, [r7, #4]
 80066ea:	691b      	ldr	r3, [r3, #16]
 80066ec:	2b00      	cmp	r3, #0
 80066ee:	d006      	beq.n	80066fe <osThreadNew+0xca>
 80066f0:	687b      	ldr	r3, [r7, #4]
 80066f2:	695b      	ldr	r3, [r3, #20]
 80066f4:	2b00      	cmp	r3, #0
 80066f6:	d002      	beq.n	80066fe <osThreadNew+0xca>
 80066f8:	2301      	movs	r3, #1
 80066fa:	623b      	str	r3, [r7, #32]
 80066fc:	e010      	b.n	8006720 <osThreadNew+0xec>
 80066fe:	687b      	ldr	r3, [r7, #4]
 8006700:	689b      	ldr	r3, [r3, #8]
 8006702:	2b00      	cmp	r3, #0
 8006704:	d10c      	bne.n	8006720 <osThreadNew+0xec>
 8006706:	687b      	ldr	r3, [r7, #4]
 8006708:	68db      	ldr	r3, [r3, #12]
 800670a:	2b00      	cmp	r3, #0
 800670c:	d108      	bne.n	8006720 <osThreadNew+0xec>
 800670e:	687b      	ldr	r3, [r7, #4]
 8006710:	691b      	ldr	r3, [r3, #16]
 8006712:	2b00      	cmp	r3, #0
 8006714:	d104      	bne.n	8006720 <osThreadNew+0xec>
 8006716:	2300      	movs	r3, #0
 8006718:	623b      	str	r3, [r7, #32]
 800671a:	e001      	b.n	8006720 <osThreadNew+0xec>
 800671c:	2300      	movs	r3, #0
 800671e:	623b      	str	r3, [r7, #32]
 8006720:	6a3b      	ldr	r3, [r7, #32]
 8006722:	2b01      	cmp	r3, #1
 8006724:	d110      	bne.n	8006748 <osThreadNew+0x114>
 8006726:	687b      	ldr	r3, [r7, #4]
 8006728:	691b      	ldr	r3, [r3, #16]
 800672a:	687a      	ldr	r2, [r7, #4]
 800672c:	6892      	ldr	r2, [r2, #8]
 800672e:	9202      	str	r2, [sp, #8]
 8006730:	9301      	str	r3, [sp, #4]
 8006732:	6a7b      	ldr	r3, [r7, #36]	; 0x24
 8006734:	9300      	str	r3, [sp, #0]
 8006736:	68bb      	ldr	r3, [r7, #8]
 8006738:	6aba      	ldr	r2, [r7, #40]	; 0x28
 800673a:	6af9      	ldr	r1, [r7, #44]	; 0x2c
 800673c:	68f8      	ldr	r0, [r7, #12]
 800673e:	f000 fe09 	bl	8007354 <xTaskCreateStatic>
 8006742:	4603      	mov	r3, r0
 8006744:	613b      	str	r3, [r7, #16]
 8006746:	e013      	b.n	8006770 <osThreadNew+0x13c>
 8006748:	6a3b      	ldr	r3, [r7, #32]
 800674a:	2b00      	cmp	r3, #0
 800674c:	d110      	bne.n	8006770 <osThreadNew+0x13c>
 800674e:	6abb      	ldr	r3, [r7, #40]	; 0x28
 8006750:	b29a      	uxth	r2, r3
 8006752:	f107 0310 	add.w	r3, r7, #16
 8006756:	9301      	str	r3, [sp, #4]
 8006758:	6a7b      	ldr	r3, [r7, #36]	; 0x24
 800675a:	9300      	str	r3, [sp, #0]
 800675c:	68bb      	ldr	r3, [r7, #8]
 800675e:	6af9      	ldr	r1, [r7, #44]	; 0x2c
 8006760:	68f8      	ldr	r0, [r7, #12]
 8006762:	f000 fe51 	bl	8007408 <xTaskCreate>
 8006766:	4603      	mov	r3, r0
 8006768:	2b01      	cmp	r3, #1
 800676a:	d001      	beq.n	8006770 <osThreadNew+0x13c>
 800676c:	2300      	movs	r3, #0
 800676e:	613b      	str	r3, [r7, #16]
 8006770:	693b      	ldr	r3, [r7, #16]
 8006772:	4618      	mov	r0, r3
 8006774:	3730      	adds	r7, #48	; 0x30
 8006776:	46bd      	mov	sp, r7
 8006778:	bd80      	pop	{r7, pc}
 800677a:	bf00      	nop
 800677c:	2000002c 	.word	0x2000002c

08006780 <osDelay>:
 8006780:	b580      	push	{r7, lr}
 8006782:	b086      	sub	sp, #24
 8006784:	af00      	add	r7, sp, #0
 8006786:	6078      	str	r0, [r7, #4]
 8006788:	f3ef 8305 	mrs	r3, IPSR
 800678c:	613b      	str	r3, [r7, #16]
 800678e:	693b      	ldr	r3, [r7, #16]
 8006790:	2b00      	cmp	r3, #0
 8006792:	d10f      	bne.n	80067b4 <osDelay+0x34>
 8006794:	f3ef 8310 	mrs	r3, PRIMASK
 8006798:	60fb      	str	r3, [r7, #12]
 800679a:	68fb      	ldr	r3, [r7, #12]
 800679c:	2b00      	cmp	r3, #0
 800679e:	d105      	bne.n	80067ac <osDelay+0x2c>
 80067a0:	f3ef 8311 	mrs	r3, BASEPRI
 80067a4:	60bb      	str	r3, [r7, #8]
 80067a6:	68bb      	ldr	r3, [r7, #8]
 80067a8:	2b00      	cmp	r3, #0
 80067aa:	d007      	beq.n	80067bc <osDelay+0x3c>
 80067ac:	4b0a      	ldr	r3, [pc, #40]	; (80067d8 <osDelay+0x58>)
 80067ae:	681b      	ldr	r3, [r3, #0]
 80067b0:	2b02      	cmp	r3, #2
 80067b2:	d103      	bne.n	80067bc <osDelay+0x3c>
 80067b4:	f06f 0305 	mvn.w	r3, #5
 80067b8:	617b      	str	r3, [r7, #20]
 80067ba:	e007      	b.n	80067cc <osDelay+0x4c>
 80067bc:	2300      	movs	r3, #0
 80067be:	617b      	str	r3, [r7, #20]
 80067c0:	687b      	ldr	r3, [r7, #4]
 80067c2:	2b00      	cmp	r3, #0
 80067c4:	d002      	beq.n	80067cc <osDelay+0x4c>
 80067c6:	6878      	ldr	r0, [r7, #4]
 80067c8:	f000 ff64 	bl	8007694 <vTaskDelay>
 80067cc:	697b      	ldr	r3, [r7, #20]
 80067ce:	4618      	mov	r0, r3
 80067d0:	3718      	adds	r7, #24
 80067d2:	46bd      	mov	sp, r7
 80067d4:	bd80      	pop	{r7, pc}
 80067d6:	bf00      	nop
 80067d8:	2000002c 	.word	0x2000002c

080067dc <vApplicationGetIdleTaskMemory>:
 80067dc:	b480      	push	{r7}
 80067de:	b085      	sub	sp, #20
 80067e0:	af00      	add	r7, sp, #0
 80067e2:	60f8      	str	r0, [r7, #12]
 80067e4:	60b9      	str	r1, [r7, #8]
 80067e6:	607a      	str	r2, [r7, #4]
 80067e8:	68fb      	ldr	r3, [r7, #12]
 80067ea:	4a07      	ldr	r2, [pc, #28]	; (8006808 <vApplicationGetIdleTaskMemory+0x2c>)
 80067ec:	601a      	str	r2, [r3, #0]
 80067ee:	68bb      	ldr	r3, [r7, #8]
 80067f0:	4a06      	ldr	r2, [pc, #24]	; (800680c <vApplicationGetIdleTaskMemory+0x30>)
 80067f2:	601a      	str	r2, [r3, #0]
 80067f4:	687b      	ldr	r3, [r7, #4]
 80067f6:	2280      	movs	r2, #128	; 0x80
 80067f8:	601a      	str	r2, [r3, #0]
 80067fa:	bf00      	nop
 80067fc:	3714      	adds	r7, #20
 80067fe:	46bd      	mov	sp, r7
 8006800:	f85d 7b04 	ldr.w	r7, [sp], #4
 8006804:	4770      	bx	lr
 8006806:	bf00      	nop
 8006808:	20000030 	.word	0x20000030
 800680c:	20000090 	.word	0x20000090

08006810 <vApplicationGetTimerTaskMemory>:
 8006810:	b480      	push	{r7}
 8006812:	b085      	sub	sp, #20
 8006814:	af00      	add	r7, sp, #0
 8006816:	60f8      	str	r0, [r7, #12]
 8006818:	60b9      	str	r1, [r7, #8]
 800681a:	607a      	str	r2, [r7, #4]
 800681c:	68fb      	ldr	r3, [r7, #12]
 800681e:	4a07      	ldr	r2, [pc, #28]	; (800683c <vApplicationGetTimerTaskMemory+0x2c>)
 8006820:	601a      	str	r2, [r3, #0]
 8006822:	68bb      	ldr	r3, [r7, #8]
 8006824:	4a06      	ldr	r2, [pc, #24]	; (8006840 <vApplicationGetTimerTaskMemory+0x30>)
 8006826:	601a      	str	r2, [r3, #0]
 8006828:	687b      	ldr	r3, [r7, #4]
 800682a:	f44f 7280 	mov.w	r2, #256	; 0x100
 800682e:	601a      	str	r2, [r3, #0]
 8006830:	bf00      	nop
 8006832:	3714      	adds	r7, #20
 8006834:	46bd      	mov	sp, r7
 8006836:	f85d 7b04 	ldr.w	r7, [sp], #4
 800683a:	4770      	bx	lr
 800683c:	20000290 	.word	0x20000290
 8006840:	200002f0 	.word	0x200002f0

08006844 <vListInitialise>:
 8006844:	b480      	push	{r7}
 8006846:	b083      	sub	sp, #12
 8006848:	af00      	add	r7, sp, #0
 800684a:	6078      	str	r0, [r7, #4]
 800684c:	687b      	ldr	r3, [r7, #4]
 800684e:	f103 0208 	add.w	r2, r3, #8
 8006852:	687b      	ldr	r3, [r7, #4]
 8006854:	605a      	str	r2, [r3, #4]
 8006856:	687b      	ldr	r3, [r7, #4]
 8006858:	f04f 32ff 	mov.w	r2, #4294967295
 800685c:	609a      	str	r2, [r3, #8]
 800685e:	687b      	ldr	r3, [r7, #4]
 8006860:	f103 0208 	add.w	r2, r3, #8
 8006864:	687b      	ldr	r3, [r7, #4]
 8006866:	60da      	str	r2, [r3, #12]
 8006868:	687b      	ldr	r3, [r7, #4]
 800686a:	f103 0208 	add.w	r2, r3, #8
 800686e:	687b      	ldr	r3, [r7, #4]
 8006870:	611a      	str	r2, [r3, #16]
 8006872:	687b      	ldr	r3, [r7, #4]
 8006874:	2200      	movs	r2, #0
 8006876:	601a      	str	r2, [r3, #0]
 8006878:	bf00      	nop
 800687a:	370c      	adds	r7, #12
 800687c:	46bd      	mov	sp, r7
 800687e:	f85d 7b04 	ldr.w	r7, [sp], #4
 8006882:	4770      	bx	lr

08006884 <vListInitialiseItem>:
 8006884:	b480      	push	{r7}
 8006886:	b083      	sub	sp, #12
 8006888:	af00      	add	r7, sp, #0
 800688a:	6078      	str	r0, [r7, #4]
 800688c:	687b      	ldr	r3, [r7, #4]
 800688e:	2200      	movs	r2, #0
 8006890:	611a      	str	r2, [r3, #16]
 8006892:	bf00      	nop
 8006894:	370c      	adds	r7, #12
 8006896:	46bd      	mov	sp, r7
 8006898:	f85d 7b04 	ldr.w	r7, [sp], #4
 800689c:	4770      	bx	lr

0800689e <vListInsertEnd>:
 800689e:	b480      	push	{r7}
 80068a0:	b085      	sub	sp, #20
 80068a2:	af00      	add	r7, sp, #0
 80068a4:	6078      	str	r0, [r7, #4]
 80068a6:	6039      	str	r1, [r7, #0]
 80068a8:	687b      	ldr	r3, [r7, #4]
 80068aa:	685b      	ldr	r3, [r3, #4]
 80068ac:	60fb      	str	r3, [r7, #12]
 80068ae:	683b      	ldr	r3, [r7, #0]
 80068b0:	68fa      	ldr	r2, [r7, #12]
 80068b2:	605a      	str	r2, [r3, #4]
 80068b4:	68fb      	ldr	r3, [r7, #12]
 80068b6:	689a      	ldr	r2, [r3, #8]
 80068b8:	683b      	ldr	r3, [r7, #0]
 80068ba:	609a      	str	r2, [r3, #8]
 80068bc:	68fb      	ldr	r3, [r7, #12]
 80068be:	689b      	ldr	r3, [r3, #8]
 80068c0:	683a      	ldr	r2, [r7, #0]
 80068c2:	605a      	str	r2, [r3, #4]
 80068c4:	68fb      	ldr	r3, [r7, #12]
 80068c6:	683a      	ldr	r2, [r7, #0]
 80068c8:	609a      	str	r2, [r3, #8]
 80068ca:	683b      	ldr	r3, [r7, #0]
 80068cc:	687a      	ldr	r2, [r7, #4]
 80068ce:	611a      	str	r2, [r3, #16]
 80068d0:	687b      	ldr	r3, [r7, #4]
 80068d2:	681b      	ldr	r3, [r3, #0]
 80068d4:	1c5a      	adds	r2, r3, #1
 80068d6:	687b      	ldr	r3, [r7, #4]
 80068d8:	601a      	str	r2, [r3, #0]
 80068da:	bf00      	nop
 80068dc:	3714      	adds	r7, #20
 80068de:	46bd      	mov	sp, r7
 80068e0:	f85d 7b04 	ldr.w	r7, [sp], #4
 80068e4:	4770      	bx	lr

080068e6 <vListInsert>:
 80068e6:	b480      	push	{r7}
 80068e8:	b085      	sub	sp, #20
 80068ea:	af00      	add	r7, sp, #0
 80068ec:	6078      	str	r0, [r7, #4]
 80068ee:	6039      	str	r1, [r7, #0]
 80068f0:	683b      	ldr	r3, [r7, #0]
 80068f2:	681b      	ldr	r3, [r3, #0]
 80068f4:	60bb      	str	r3, [r7, #8]
 80068f6:	68bb      	ldr	r3, [r7, #8]
 80068f8:	f1b3 3fff 	cmp.w	r3, #4294967295
 80068fc:	d103      	bne.n	8006906 <vListInsert+0x20>
 80068fe:	687b      	ldr	r3, [r7, #4]
 8006900:	691b      	ldr	r3, [r3, #16]
 8006902:	60fb      	str	r3, [r7, #12]
 8006904:	e00c      	b.n	8006920 <vListInsert+0x3a>
 8006906:	687b      	ldr	r3, [r7, #4]
 8006908:	3308      	adds	r3, #8
 800690a:	60fb      	str	r3, [r7, #12]
 800690c:	e002      	b.n	8006914 <vListInsert+0x2e>
 800690e:	68fb      	ldr	r3, [r7, #12]
 8006910:	685b      	ldr	r3, [r3, #4]
 8006912:	60fb      	str	r3, [r7, #12]
 8006914:	68fb      	ldr	r3, [r7, #12]
 8006916:	685b      	ldr	r3, [r3, #4]
 8006918:	681b      	ldr	r3, [r3, #0]
 800691a:	68ba      	ldr	r2, [r7, #8]
 800691c:	429a      	cmp	r2, r3
 800691e:	d2f6      	bcs.n	800690e <vListInsert+0x28>
 8006920:	68fb      	ldr	r3, [r7, #12]
 8006922:	685a      	ldr	r2, [r3, #4]
 8006924:	683b      	ldr	r3, [r7, #0]
 8006926:	605a      	str	r2, [r3, #4]
 8006928:	683b      	ldr	r3, [r7, #0]
 800692a:	685b      	ldr	r3, [r3, #4]
 800692c:	683a      	ldr	r2, [r7, #0]
 800692e:	609a      	str	r2, [r3, #8]
 8006930:	683b      	ldr	r3, [r7, #0]
 8006932:	68fa      	ldr	r2, [r7, #12]
 8006934:	609a      	str	r2, [r3, #8]
 8006936:	68fb      	ldr	r3, [r7, #12]
 8006938:	683a      	ldr	r2, [r7, #0]
 800693a:	605a      	str	r2, [r3, #4]
 800693c:	683b      	ldr	r3, [r7, #0]
 800693e:	687a      	ldr	r2, [r7, #4]
 8006940:	611a      	str	r2, [r3, #16]
 8006942:	687b      	ldr	r3, [r7, #4]
 8006944:	681b      	ldr	r3, [r3, #0]
 8006946:	1c5a      	adds	r2, r3, #1
 8006948:	687b      	ldr	r3, [r7, #4]
 800694a:	601a      	str	r2, [r3, #0]
 800694c:	bf00      	nop
 800694e:	3714      	adds	r7, #20
 8006950:	46bd      	mov	sp, r7
 8006952:	f85d 7b04 	ldr.w	r7, [sp], #4
 8006956:	4770      	bx	lr

08006958 <uxListRemove>:
 8006958:	b480      	push	{r7}
 800695a:	b085      	sub	sp, #20
 800695c:	af00      	add	r7, sp, #0
 800695e:	6078      	str	r0, [r7, #4]
 8006960:	687b      	ldr	r3, [r7, #4]
 8006962:	691b      	ldr	r3, [r3, #16]
 8006964:	60fb      	str	r3, [r7, #12]
 8006966:	687b      	ldr	r3, [r7, #4]
 8006968:	685b      	ldr	r3, [r3, #4]
 800696a:	687a      	ldr	r2, [r7, #4]
 800696c:	6892      	ldr	r2, [r2, #8]
 800696e:	609a      	str	r2, [r3, #8]
 8006970:	687b      	ldr	r3, [r7, #4]
 8006972:	689b      	ldr	r3, [r3, #8]
 8006974:	687a      	ldr	r2, [r7, #4]
 8006976:	6852      	ldr	r2, [r2, #4]
 8006978:	605a      	str	r2, [r3, #4]
 800697a:	68fb      	ldr	r3, [r7, #12]
 800697c:	685b      	ldr	r3, [r3, #4]
 800697e:	687a      	ldr	r2, [r7, #4]
 8006980:	429a      	cmp	r2, r3
 8006982:	d103      	bne.n	800698c <uxListRemove+0x34>
 8006984:	687b      	ldr	r3, [r7, #4]
 8006986:	689a      	ldr	r2, [r3, #8]
 8006988:	68fb      	ldr	r3, [r7, #12]
 800698a:	605a      	str	r2, [r3, #4]
 800698c:	687b      	ldr	r3, [r7, #4]
 800698e:	2200      	movs	r2, #0
 8006990:	611a      	str	r2, [r3, #16]
 8006992:	68fb      	ldr	r3, [r7, #12]
 8006994:	681b      	ldr	r3, [r3, #0]
 8006996:	1e5a      	subs	r2, r3, #1
 8006998:	68fb      	ldr	r3, [r7, #12]
 800699a:	601a      	str	r2, [r3, #0]
 800699c:	68fb      	ldr	r3, [r7, #12]
 800699e:	681b      	ldr	r3, [r3, #0]
 80069a0:	4618      	mov	r0, r3
 80069a2:	3714      	adds	r7, #20
 80069a4:	46bd      	mov	sp, r7
 80069a6:	f85d 7b04 	ldr.w	r7, [sp], #4
 80069aa:	4770      	bx	lr

080069ac <xQueueGenericReset>:
 80069ac:	b580      	push	{r7, lr}
 80069ae:	b084      	sub	sp, #16
 80069b0:	af00      	add	r7, sp, #0
 80069b2:	6078      	str	r0, [r7, #4]
 80069b4:	6039      	str	r1, [r7, #0]
 80069b6:	687b      	ldr	r3, [r7, #4]
 80069b8:	60fb      	str	r3, [r7, #12]
 80069ba:	68fb      	ldr	r3, [r7, #12]
 80069bc:	2b00      	cmp	r3, #0
 80069be:	d109      	bne.n	80069d4 <xQueueGenericReset+0x28>
 80069c0:	f04f 0350 	mov.w	r3, #80	; 0x50
 80069c4:	f383 8811 	msr	BASEPRI, r3
 80069c8:	f3bf 8f6f 	isb	sy
 80069cc:	f3bf 8f4f 	dsb	sy
 80069d0:	60bb      	str	r3, [r7, #8]
 80069d2:	e7fe      	b.n	80069d2 <xQueueGenericReset+0x26>
 80069d4:	f002 f812 	bl	80089fc <vPortEnterCritical>
 80069d8:	68fb      	ldr	r3, [r7, #12]
 80069da:	681a      	ldr	r2, [r3, #0]
 80069dc:	68fb      	ldr	r3, [r7, #12]
 80069de:	6bdb      	ldr	r3, [r3, #60]	; 0x3c
 80069e0:	68f9      	ldr	r1, [r7, #12]
 80069e2:	6c09      	ldr	r1, [r1, #64]	; 0x40
 80069e4:	fb01 f303 	mul.w	r3, r1, r3
 80069e8:	441a      	add	r2, r3
 80069ea:	68fb      	ldr	r3, [r7, #12]
 80069ec:	609a      	str	r2, [r3, #8]
 80069ee:	68fb      	ldr	r3, [r7, #12]
 80069f0:	2200      	movs	r2, #0
 80069f2:	639a      	str	r2, [r3, #56]	; 0x38
 80069f4:	68fb      	ldr	r3, [r7, #12]
 80069f6:	681a      	ldr	r2, [r3, #0]
 80069f8:	68fb      	ldr	r3, [r7, #12]
 80069fa:	605a      	str	r2, [r3, #4]
 80069fc:	68fb      	ldr	r3, [r7, #12]
 80069fe:	681a      	ldr	r2, [r3, #0]
 8006a00:	68fb      	ldr	r3, [r7, #12]
 8006a02:	6bdb      	ldr	r3, [r3, #60]	; 0x3c
 8006a04:	3b01      	subs	r3, #1
 8006a06:	68f9      	ldr	r1, [r7, #12]
 8006a08:	6c09      	ldr	r1, [r1, #64]	; 0x40
 8006a0a:	fb01 f303 	mul.w	r3, r1, r3
 8006a0e:	441a      	add	r2, r3
 8006a10:	68fb      	ldr	r3, [r7, #12]
 8006a12:	60da      	str	r2, [r3, #12]
 8006a14:	68fb      	ldr	r3, [r7, #12]
 8006a16:	22ff      	movs	r2, #255	; 0xff
 8006a18:	f883 2044 	strb.w	r2, [r3, #68]	; 0x44
 8006a1c:	68fb      	ldr	r3, [r7, #12]
 8006a1e:	22ff      	movs	r2, #255	; 0xff
 8006a20:	f883 2045 	strb.w	r2, [r3, #69]	; 0x45
 8006a24:	683b      	ldr	r3, [r7, #0]
 8006a26:	2b00      	cmp	r3, #0
 8006a28:	d114      	bne.n	8006a54 <xQueueGenericReset+0xa8>
 8006a2a:	68fb      	ldr	r3, [r7, #12]
 8006a2c:	691b      	ldr	r3, [r3, #16]
 8006a2e:	2b00      	cmp	r3, #0
 8006a30:	d01a      	beq.n	8006a68 <xQueueGenericReset+0xbc>
 8006a32:	68fb      	ldr	r3, [r7, #12]
 8006a34:	3310      	adds	r3, #16
 8006a36:	4618      	mov	r0, r3
 8006a38:	f001 f8e0 	bl	8007bfc <xTaskRemoveFromEventList>
 8006a3c:	4603      	mov	r3, r0
 8006a3e:	2b00      	cmp	r3, #0
 8006a40:	d012      	beq.n	8006a68 <xQueueGenericReset+0xbc>
 8006a42:	4b0d      	ldr	r3, [pc, #52]	; (8006a78 <xQueueGenericReset+0xcc>)
 8006a44:	f04f 5280 	mov.w	r2, #268435456	; 0x10000000
 8006a48:	601a      	str	r2, [r3, #0]
 8006a4a:	f3bf 8f4f 	dsb	sy
 8006a4e:	f3bf 8f6f 	isb	sy
 8006a52:	e009      	b.n	8006a68 <xQueueGenericReset+0xbc>
 8006a54:	68fb      	ldr	r3, [r7, #12]
 8006a56:	3310      	adds	r3, #16
 8006a58:	4618      	mov	r0, r3
 8006a5a:	f7ff fef3 	bl	8006844 <vListInitialise>
 8006a5e:	68fb      	ldr	r3, [r7, #12]
 8006a60:	3324      	adds	r3, #36	; 0x24
 8006a62:	4618      	mov	r0, r3
 8006a64:	f7ff feee 	bl	8006844 <vListInitialise>
 8006a68:	f001 fff6 	bl	8008a58 <vPortExitCritical>
 8006a6c:	2301      	movs	r3, #1
 8006a6e:	4618      	mov	r0, r3
 8006a70:	3710      	adds	r7, #16
 8006a72:	46bd      	mov	sp, r7
 8006a74:	bd80      	pop	{r7, pc}
 8006a76:	bf00      	nop
 8006a78:	e000ed04 	.word	0xe000ed04

08006a7c <xQueueGenericCreateStatic>:
 8006a7c:	b580      	push	{r7, lr}
 8006a7e:	b08e      	sub	sp, #56	; 0x38
 8006a80:	af02      	add	r7, sp, #8
 8006a82:	60f8      	str	r0, [r7, #12]
 8006a84:	60b9      	str	r1, [r7, #8]
 8006a86:	607a      	str	r2, [r7, #4]
 8006a88:	603b      	str	r3, [r7, #0]
 8006a8a:	68fb      	ldr	r3, [r7, #12]
 8006a8c:	2b00      	cmp	r3, #0
 8006a8e:	d109      	bne.n	8006aa4 <xQueueGenericCreateStatic+0x28>
 8006a90:	f04f 0350 	mov.w	r3, #80	; 0x50
 8006a94:	f383 8811 	msr	BASEPRI, r3
 8006a98:	f3bf 8f6f 	isb	sy
 8006a9c:	f3bf 8f4f 	dsb	sy
 8006aa0:	62bb      	str	r3, [r7, #40]	; 0x28
 8006aa2:	e7fe      	b.n	8006aa2 <xQueueGenericCreateStatic+0x26>
 8006aa4:	683b      	ldr	r3, [r7, #0]
 8006aa6:	2b00      	cmp	r3, #0
 8006aa8:	d109      	bne.n	8006abe <xQueueGenericCreateStatic+0x42>
 8006aaa:	f04f 0350 	mov.w	r3, #80	; 0x50
 8006aae:	f383 8811 	msr	BASEPRI, r3
 8006ab2:	f3bf 8f6f 	isb	sy
 8006ab6:	f3bf 8f4f 	dsb	sy
 8006aba:	627b      	str	r3, [r7, #36]	; 0x24
 8006abc:	e7fe      	b.n	8006abc <xQueueGenericCreateStatic+0x40>
 8006abe:	687b      	ldr	r3, [r7, #4]
 8006ac0:	2b00      	cmp	r3, #0
 8006ac2:	d002      	beq.n	8006aca <xQueueGenericCreateStatic+0x4e>
 8006ac4:	68bb      	ldr	r3, [r7, #8]
 8006ac6:	2b00      	cmp	r3, #0
 8006ac8:	d001      	beq.n	8006ace <xQueueGenericCreateStatic+0x52>
 8006aca:	2301      	movs	r3, #1
 8006acc:	e000      	b.n	8006ad0 <xQueueGenericCreateStatic+0x54>
 8006ace:	2300      	movs	r3, #0
 8006ad0:	2b00      	cmp	r3, #0
 8006ad2:	d109      	bne.n	8006ae8 <xQueueGenericCreateStatic+0x6c>
 8006ad4:	f04f 0350 	mov.w	r3, #80	; 0x50
 8006ad8:	f383 8811 	msr	BASEPRI, r3
 8006adc:	f3bf 8f6f 	isb	sy
 8006ae0:	f3bf 8f4f 	dsb	sy
 8006ae4:	623b      	str	r3, [r7, #32]
 8006ae6:	e7fe      	b.n	8006ae6 <xQueueGenericCreateStatic+0x6a>
 8006ae8:	687b      	ldr	r3, [r7, #4]
 8006aea:	2b00      	cmp	r3, #0
 8006aec:	d102      	bne.n	8006af4 <xQueueGenericCreateStatic+0x78>
 8006aee:	68bb      	ldr	r3, [r7, #8]
 8006af0:	2b00      	cmp	r3, #0
 8006af2:	d101      	bne.n	8006af8 <xQueueGenericCreateStatic+0x7c>
 8006af4:	2301      	movs	r3, #1
 8006af6:	e000      	b.n	8006afa <xQueueGenericCreateStatic+0x7e>
 8006af8:	2300      	movs	r3, #0
 8006afa:	2b00      	cmp	r3, #0
 8006afc:	d109      	bne.n	8006b12 <xQueueGenericCreateStatic+0x96>
 8006afe:	f04f 0350 	mov.w	r3, #80	; 0x50
 8006b02:	f383 8811 	msr	BASEPRI, r3
 8006b06:	f3bf 8f6f 	isb	sy
 8006b0a:	f3bf 8f4f 	dsb	sy
 8006b0e:	61fb      	str	r3, [r7, #28]
 8006b10:	e7fe      	b.n	8006b10 <xQueueGenericCreateStatic+0x94>
 8006b12:	2350      	movs	r3, #80	; 0x50
 8006b14:	617b      	str	r3, [r7, #20]
 8006b16:	697b      	ldr	r3, [r7, #20]
 8006b18:	2b50      	cmp	r3, #80	; 0x50
 8006b1a:	d009      	beq.n	8006b30 <xQueueGenericCreateStatic+0xb4>
 8006b1c:	f04f 0350 	mov.w	r3, #80	; 0x50
 8006b20:	f383 8811 	msr	BASEPRI, r3
 8006b24:	f3bf 8f6f 	isb	sy
 8006b28:	f3bf 8f4f 	dsb	sy
 8006b2c:	61bb      	str	r3, [r7, #24]
 8006b2e:	e7fe      	b.n	8006b2e <xQueueGenericCreateStatic+0xb2>
 8006b30:	697b      	ldr	r3, [r7, #20]
 8006b32:	683b      	ldr	r3, [r7, #0]
 8006b34:	62fb      	str	r3, [r7, #44]	; 0x2c
 8006b36:	6afb      	ldr	r3, [r7, #44]	; 0x2c
 8006b38:	2b00      	cmp	r3, #0
 8006b3a:	d00d      	beq.n	8006b58 <xQueueGenericCreateStatic+0xdc>
 8006b3c:	6afb      	ldr	r3, [r7, #44]	; 0x2c
 8006b3e:	2201      	movs	r2, #1
 8006b40:	f883 2046 	strb.w	r2, [r3, #70]	; 0x46
 8006b44:	f897 2038 	ldrb.w	r2, [r7, #56]	; 0x38
 8006b48:	6afb      	ldr	r3, [r7, #44]	; 0x2c
 8006b4a:	9300      	str	r3, [sp, #0]
 8006b4c:	4613      	mov	r3, r2
 8006b4e:	687a      	ldr	r2, [r7, #4]
 8006b50:	68b9      	ldr	r1, [r7, #8]
 8006b52:	68f8      	ldr	r0, [r7, #12]
 8006b54:	f000 f805 	bl	8006b62 <prvInitialiseNewQueue>
 8006b58:	6afb      	ldr	r3, [r7, #44]	; 0x2c
 8006b5a:	4618      	mov	r0, r3
 8006b5c:	3730      	adds	r7, #48	; 0x30
 8006b5e:	46bd      	mov	sp, r7
 8006b60:	bd80      	pop	{r7, pc}

08006b62 <prvInitialiseNewQueue>:
 8006b62:	b580      	push	{r7, lr}
 8006b64:	b084      	sub	sp, #16
 8006b66:	af00      	add	r7, sp, #0
 8006b68:	60f8      	str	r0, [r7, #12]
 8006b6a:	60b9      	str	r1, [r7, #8]
 8006b6c:	607a      	str	r2, [r7, #4]
 8006b6e:	70fb      	strb	r3, [r7, #3]
 8006b70:	68bb      	ldr	r3, [r7, #8]
 8006b72:	2b00      	cmp	r3, #0
 8006b74:	d103      	bne.n	8006b7e <prvInitialiseNewQueue+0x1c>
 8006b76:	69bb      	ldr	r3, [r7, #24]
 8006b78:	69ba      	ldr	r2, [r7, #24]
 8006b7a:	601a      	str	r2, [r3, #0]
 8006b7c:	e002      	b.n	8006b84 <prvInitialiseNewQueue+0x22>
 8006b7e:	69bb      	ldr	r3, [r7, #24]
 8006b80:	687a      	ldr	r2, [r7, #4]
 8006b82:	601a      	str	r2, [r3, #0]
 8006b84:	69bb      	ldr	r3, [r7, #24]
 8006b86:	68fa      	ldr	r2, [r7, #12]
 8006b88:	63da      	str	r2, [r3, #60]	; 0x3c
 8006b8a:	69bb      	ldr	r3, [r7, #24]
 8006b8c:	68ba      	ldr	r2, [r7, #8]
 8006b8e:	641a      	str	r2, [r3, #64]	; 0x40
 8006b90:	2101      	movs	r1, #1
 8006b92:	69b8      	ldr	r0, [r7, #24]
 8006b94:	f7ff ff0a 	bl	80069ac <xQueueGenericReset>
 8006b98:	69bb      	ldr	r3, [r7, #24]
 8006b9a:	78fa      	ldrb	r2, [r7, #3]
 8006b9c:	f883 204c 	strb.w	r2, [r3, #76]	; 0x4c
 8006ba0:	bf00      	nop
 8006ba2:	3710      	adds	r7, #16
 8006ba4:	46bd      	mov	sp, r7
 8006ba6:	bd80      	pop	{r7, pc}

08006ba8 <xQueueGenericSend>:
 8006ba8:	b580      	push	{r7, lr}
 8006baa:	b08e      	sub	sp, #56	; 0x38
 8006bac:	af00      	add	r7, sp, #0
 8006bae:	60f8      	str	r0, [r7, #12]
 8006bb0:	60b9      	str	r1, [r7, #8]
 8006bb2:	607a      	str	r2, [r7, #4]
 8006bb4:	603b      	str	r3, [r7, #0]
 8006bb6:	2300      	movs	r3, #0
 8006bb8:	637b      	str	r3, [r7, #52]	; 0x34
 8006bba:	68fb      	ldr	r3, [r7, #12]
 8006bbc:	633b      	str	r3, [r7, #48]	; 0x30
 8006bbe:	6b3b      	ldr	r3, [r7, #48]	; 0x30
 8006bc0:	2b00      	cmp	r3, #0
 8006bc2:	d109      	bne.n	8006bd8 <xQueueGenericSend+0x30>
 8006bc4:	f04f 0350 	mov.w	r3, #80	; 0x50
 8006bc8:	f383 8811 	msr	BASEPRI, r3
 8006bcc:	f3bf 8f6f 	isb	sy
 8006bd0:	f3bf 8f4f 	dsb	sy
 8006bd4:	62bb      	str	r3, [r7, #40]	; 0x28
 8006bd6:	e7fe      	b.n	8006bd6 <xQueueGenericSend+0x2e>
 8006bd8:	68bb      	ldr	r3, [r7, #8]
 8006bda:	2b00      	cmp	r3, #0
 8006bdc:	d103      	bne.n	8006be6 <xQueueGenericSend+0x3e>
 8006bde:	6b3b      	ldr	r3, [r7, #48]	; 0x30
 8006be0:	6c1b      	ldr	r3, [r3, #64]	; 0x40
 8006be2:	2b00      	cmp	r3, #0
 8006be4:	d101      	bne.n	8006bea <xQueueGenericSend+0x42>
 8006be6:	2301      	movs	r3, #1
 8006be8:	e000      	b.n	8006bec <xQueueGenericSend+0x44>
 8006bea:	2300      	movs	r3, #0
 8006bec:	2b00      	cmp	r3, #0
 8006bee:	d109      	bne.n	8006c04 <xQueueGenericSend+0x5c>
 8006bf0:	f04f 0350 	mov.w	r3, #80	; 0x50
 8006bf4:	f383 8811 	msr	BASEPRI, r3
 8006bf8:	f3bf 8f6f 	isb	sy
 8006bfc:	f3bf 8f4f 	dsb	sy
 8006c00:	627b      	str	r3, [r7, #36]	; 0x24
 8006c02:	e7fe      	b.n	8006c02 <xQueueGenericSend+0x5a>
 8006c04:	683b      	ldr	r3, [r7, #0]
 8006c06:	2b02      	cmp	r3, #2
 8006c08:	d103      	bne.n	8006c12 <xQueueGenericSend+0x6a>
 8006c0a:	6b3b      	ldr	r3, [r7, #48]	; 0x30
 8006c0c:	6bdb      	ldr	r3, [r3, #60]	; 0x3c
 8006c0e:	2b01      	cmp	r3, #1
 8006c10:	d101      	bne.n	8006c16 <xQueueGenericSend+0x6e>
 8006c12:	2301      	movs	r3, #1
 8006c14:	e000      	b.n	8006c18 <xQueueGenericSend+0x70>
 8006c16:	2300      	movs	r3, #0
 8006c18:	2b00      	cmp	r3, #0
 8006c1a:	d109      	bne.n	8006c30 <xQueueGenericSend+0x88>
 8006c1c:	f04f 0350 	mov.w	r3, #80	; 0x50
 8006c20:	f383 8811 	msr	BASEPRI, r3
 8006c24:	f3bf 8f6f 	isb	sy
 8006c28:	f3bf 8f4f 	dsb	sy
 8006c2c:	623b      	str	r3, [r7, #32]
 8006c2e:	e7fe      	b.n	8006c2e <xQueueGenericSend+0x86>
 8006c30:	f001 f99a 	bl	8007f68 <xTaskGetSchedulerState>
 8006c34:	4603      	mov	r3, r0
 8006c36:	2b00      	cmp	r3, #0
 8006c38:	d102      	bne.n	8006c40 <xQueueGenericSend+0x98>
 8006c3a:	687b      	ldr	r3, [r7, #4]
 8006c3c:	2b00      	cmp	r3, #0
 8006c3e:	d101      	bne.n	8006c44 <xQueueGenericSend+0x9c>
 8006c40:	2301      	movs	r3, #1
 8006c42:	e000      	b.n	8006c46 <xQueueGenericSend+0x9e>
 8006c44:	2300      	movs	r3, #0
 8006c46:	2b00      	cmp	r3, #0
 8006c48:	d109      	bne.n	8006c5e <xQueueGenericSend+0xb6>
 8006c4a:	f04f 0350 	mov.w	r3, #80	; 0x50
 8006c4e:	f383 8811 	msr	BASEPRI, r3
 8006c52:	f3bf 8f6f 	isb	sy
 8006c56:	f3bf 8f4f 	dsb	sy
 8006c5a:	61fb      	str	r3, [r7, #28]
 8006c5c:	e7fe      	b.n	8006c5c <xQueueGenericSend+0xb4>
 8006c5e:	f001 fecd 	bl	80089fc <vPortEnterCritical>
 8006c62:	6b3b      	ldr	r3, [r7, #48]	; 0x30
 8006c64:	6b9a      	ldr	r2, [r3, #56]	; 0x38
 8006c66:	6b3b      	ldr	r3, [r7, #48]	; 0x30
 8006c68:	6bdb      	ldr	r3, [r3, #60]	; 0x3c
 8006c6a:	429a      	cmp	r2, r3
 8006c6c:	d302      	bcc.n	8006c74 <xQueueGenericSend+0xcc>
 8006c6e:	683b      	ldr	r3, [r7, #0]
 8006c70:	2b02      	cmp	r3, #2
 8006c72:	d129      	bne.n	8006cc8 <xQueueGenericSend+0x120>
 8006c74:	683a      	ldr	r2, [r7, #0]
 8006c76:	68b9      	ldr	r1, [r7, #8]
 8006c78:	6b38      	ldr	r0, [r7, #48]	; 0x30
 8006c7a:	f000 f9ff 	bl	800707c <prvCopyDataToQueue>
 8006c7e:	62f8      	str	r0, [r7, #44]	; 0x2c
 8006c80:	6b3b      	ldr	r3, [r7, #48]	; 0x30
 8006c82:	6a5b      	ldr	r3, [r3, #36]	; 0x24
 8006c84:	2b00      	cmp	r3, #0
 8006c86:	d010      	beq.n	8006caa <xQueueGenericSend+0x102>
 8006c88:	6b3b      	ldr	r3, [r7, #48]	; 0x30
 8006c8a:	3324      	adds	r3, #36	; 0x24
 8006c8c:	4618      	mov	r0, r3
 8006c8e:	f000 ffb5 	bl	8007bfc <xTaskRemoveFromEventList>
 8006c92:	4603      	mov	r3, r0
 8006c94:	2b00      	cmp	r3, #0
 8006c96:	d013      	beq.n	8006cc0 <xQueueGenericSend+0x118>
 8006c98:	4b3f      	ldr	r3, [pc, #252]	; (8006d98 <xQueueGenericSend+0x1f0>)
 8006c9a:	f04f 5280 	mov.w	r2, #268435456	; 0x10000000
 8006c9e:	601a      	str	r2, [r3, #0]
 8006ca0:	f3bf 8f4f 	dsb	sy
 8006ca4:	f3bf 8f6f 	isb	sy
 8006ca8:	e00a      	b.n	8006cc0 <xQueueGenericSend+0x118>
 8006caa:	6afb      	ldr	r3, [r7, #44]	; 0x2c
 8006cac:	2b00      	cmp	r3, #0
 8006cae:	d007      	beq.n	8006cc0 <xQueueGenericSend+0x118>
 8006cb0:	4b39      	ldr	r3, [pc, #228]	; (8006d98 <xQueueGenericSend+0x1f0>)
 8006cb2:	f04f 5280 	mov.w	r2, #268435456	; 0x10000000
 8006cb6:	601a      	str	r2, [r3, #0]
 8006cb8:	f3bf 8f4f 	dsb	sy
 8006cbc:	f3bf 8f6f 	isb	sy
 8006cc0:	f001 feca 	bl	8008a58 <vPortExitCritical>
 8006cc4:	2301      	movs	r3, #1
 8006cc6:	e063      	b.n	8006d90 <xQueueGenericSend+0x1e8>
 8006cc8:	687b      	ldr	r3, [r7, #4]
 8006cca:	2b00      	cmp	r3, #0
 8006ccc:	d103      	bne.n	8006cd6 <xQueueGenericSend+0x12e>
 8006cce:	f001 fec3 	bl	8008a58 <vPortExitCritical>
 8006cd2:	2300      	movs	r3, #0
 8006cd4:	e05c      	b.n	8006d90 <xQueueGenericSend+0x1e8>
 8006cd6:	6b7b      	ldr	r3, [r7, #52]	; 0x34
 8006cd8:	2b00      	cmp	r3, #0
 8006cda:	d106      	bne.n	8006cea <xQueueGenericSend+0x142>
 8006cdc:	f107 0314 	add.w	r3, r7, #20
 8006ce0:	4618      	mov	r0, r3
 8006ce2:	f000 ffed 	bl	8007cc0 <vTaskInternalSetTimeOutState>
 8006ce6:	2301      	movs	r3, #1
 8006ce8:	637b      	str	r3, [r7, #52]	; 0x34
 8006cea:	f001 feb5 	bl	8008a58 <vPortExitCritical>
 8006cee:	f000 fd69 	bl	80077c4 <vTaskSuspendAll>
 8006cf2:	f001 fe83 	bl	80089fc <vPortEnterCritical>
 8006cf6:	6b3b      	ldr	r3, [r7, #48]	; 0x30
 8006cf8:	f893 3044 	ldrb.w	r3, [r3, #68]	; 0x44
 8006cfc:	b25b      	sxtb	r3, r3
 8006cfe:	f1b3 3fff 	cmp.w	r3, #4294967295
 8006d02:	d103      	bne.n	8006d0c <xQueueGenericSend+0x164>
 8006d04:	6b3b      	ldr	r3, [r7, #48]	; 0x30
 8006d06:	2200      	movs	r2, #0
 8006d08:	f883 2044 	strb.w	r2, [r3, #68]	; 0x44
 8006d0c:	6b3b      	ldr	r3, [r7, #48]	; 0x30
 8006d0e:	f893 3045 	ldrb.w	r3, [r3, #69]	; 0x45
 8006d12:	b25b      	sxtb	r3, r3
 8006d14:	f1b3 3fff 	cmp.w	r3, #4294967295
 8006d18:	d103      	bne.n	8006d22 <xQueueGenericSend+0x17a>
 8006d1a:	6b3b      	ldr	r3, [r7, #48]	; 0x30
 8006d1c:	2200      	movs	r2, #0
 8006d1e:	f883 2045 	strb.w	r2, [r3, #69]	; 0x45
 8006d22:	f001 fe99 	bl	8008a58 <vPortExitCritical>
 8006d26:	1d3a      	adds	r2, r7, #4
 8006d28:	f107 0314 	add.w	r3, r7, #20
 8006d2c:	4611      	mov	r1, r2
 8006d2e:	4618      	mov	r0, r3
 8006d30:	f000 ffdc 	bl	8007cec <xTaskCheckForTimeOut>
 8006d34:	4603      	mov	r3, r0
 8006d36:	2b00      	cmp	r3, #0
 8006d38:	d124      	bne.n	8006d84 <xQueueGenericSend+0x1dc>
 8006d3a:	6b38      	ldr	r0, [r7, #48]	; 0x30
 8006d3c:	f000 fa96 	bl	800726c <prvIsQueueFull>
 8006d40:	4603      	mov	r3, r0
 8006d42:	2b00      	cmp	r3, #0
 8006d44:	d018      	beq.n	8006d78 <xQueueGenericSend+0x1d0>
 8006d46:	6b3b      	ldr	r3, [r7, #48]	; 0x30
 8006d48:	3310      	adds	r3, #16
 8006d4a:	687a      	ldr	r2, [r7, #4]
 8006d4c:	4611      	mov	r1, r2
 8006d4e:	4618      	mov	r0, r3
 8006d50:	f000 ff06 	bl	8007b60 <vTaskPlaceOnEventList>
 8006d54:	6b38      	ldr	r0, [r7, #48]	; 0x30
 8006d56:	f000 fa21 	bl	800719c <prvUnlockQueue>
 8006d5a:	f000 fd41 	bl	80077e0 <xTaskResumeAll>
 8006d5e:	4603      	mov	r3, r0
 8006d60:	2b00      	cmp	r3, #0
 8006d62:	f47f af7c 	bne.w	8006c5e <xQueueGenericSend+0xb6>
 8006d66:	4b0c      	ldr	r3, [pc, #48]	; (8006d98 <xQueueGenericSend+0x1f0>)
 8006d68:	f04f 5280 	mov.w	r2, #268435456	; 0x10000000
 8006d6c:	601a      	str	r2, [r3, #0]
 8006d6e:	f3bf 8f4f 	dsb	sy
 8006d72:	f3bf 8f6f 	isb	sy
 8006d76:	e772      	b.n	8006c5e <xQueueGenericSend+0xb6>
 8006d78:	6b38      	ldr	r0, [r7, #48]	; 0x30
 8006d7a:	f000 fa0f 	bl	800719c <prvUnlockQueue>
 8006d7e:	f000 fd2f 	bl	80077e0 <xTaskResumeAll>
 8006d82:	e76c      	b.n	8006c5e <xQueueGenericSend+0xb6>
 8006d84:	6b38      	ldr	r0, [r7, #48]	; 0x30
 8006d86:	f000 fa09 	bl	800719c <prvUnlockQueue>
 8006d8a:	f000 fd29 	bl	80077e0 <xTaskResumeAll>
 8006d8e:	2300      	movs	r3, #0
 8006d90:	4618      	mov	r0, r3
 8006d92:	3738      	adds	r7, #56	; 0x38
 8006d94:	46bd      	mov	sp, r7
 8006d96:	bd80      	pop	{r7, pc}
 8006d98:	e000ed04 	.word	0xe000ed04

08006d9c <xQueueGenericSendFromISR>:
 8006d9c:	b580      	push	{r7, lr}
 8006d9e:	b08e      	sub	sp, #56	; 0x38
 8006da0:	af00      	add	r7, sp, #0
 8006da2:	60f8      	str	r0, [r7, #12]
 8006da4:	60b9      	str	r1, [r7, #8]
 8006da6:	607a      	str	r2, [r7, #4]
 8006da8:	603b      	str	r3, [r7, #0]
 8006daa:	68fb      	ldr	r3, [r7, #12]
 8006dac:	633b      	str	r3, [r7, #48]	; 0x30
 8006dae:	6b3b      	ldr	r3, [r7, #48]	; 0x30
 8006db0:	2b00      	cmp	r3, #0
 8006db2:	d109      	bne.n	8006dc8 <xQueueGenericSendFromISR+0x2c>
 8006db4:	f04f 0350 	mov.w	r3, #80	; 0x50
 8006db8:	f383 8811 	msr	BASEPRI, r3
 8006dbc:	f3bf 8f6f 	isb	sy
 8006dc0:	f3bf 8f4f 	dsb	sy
 8006dc4:	627b      	str	r3, [r7, #36]	; 0x24
 8006dc6:	e7fe      	b.n	8006dc6 <xQueueGenericSendFromISR+0x2a>
 8006dc8:	68bb      	ldr	r3, [r7, #8]
 8006dca:	2b00      	cmp	r3, #0
 8006dcc:	d103      	bne.n	8006dd6 <xQueueGenericSendFromISR+0x3a>
 8006dce:	6b3b      	ldr	r3, [r7, #48]	; 0x30
 8006dd0:	6c1b      	ldr	r3, [r3, #64]	; 0x40
 8006dd2:	2b00      	cmp	r3, #0
 8006dd4:	d101      	bne.n	8006dda <xQueueGenericSendFromISR+0x3e>
 8006dd6:	2301      	movs	r3, #1
 8006dd8:	e000      	b.n	8006ddc <xQueueGenericSendFromISR+0x40>
 8006dda:	2300      	movs	r3, #0
 8006ddc:	2b00      	cmp	r3, #0
 8006dde:	d109      	bne.n	8006df4 <xQueueGenericSendFromISR+0x58>
 8006de0:	f04f 0350 	mov.w	r3, #80	; 0x50
 8006de4:	f383 8811 	msr	BASEPRI, r3
 8006de8:	f3bf 8f6f 	isb	sy
 8006dec:	f3bf 8f4f 	dsb	sy
 8006df0:	623b      	str	r3, [r7, #32]
 8006df2:	e7fe      	b.n	8006df2 <xQueueGenericSendFromISR+0x56>
 8006df4:	683b      	ldr	r3, [r7, #0]
 8006df6:	2b02      	cmp	r3, #2
 8006df8:	d103      	bne.n	8006e02 <xQueueGenericSendFromISR+0x66>
 8006dfa:	6b3b      	ldr	r3, [r7, #48]	; 0x30
 8006dfc:	6bdb      	ldr	r3, [r3, #60]	; 0x3c
 8006dfe:	2b01      	cmp	r3, #1
 8006e00:	d101      	bne.n	8006e06 <xQueueGenericSendFromISR+0x6a>
 8006e02:	2301      	movs	r3, #1
 8006e04:	e000      	b.n	8006e08 <xQueueGenericSendFromISR+0x6c>
 8006e06:	2300      	movs	r3, #0
 8006e08:	2b00      	cmp	r3, #0
 8006e0a:	d109      	bne.n	8006e20 <xQueueGenericSendFromISR+0x84>
 8006e0c:	f04f 0350 	mov.w	r3, #80	; 0x50
 8006e10:	f383 8811 	msr	BASEPRI, r3
 8006e14:	f3bf 8f6f 	isb	sy
 8006e18:	f3bf 8f4f 	dsb	sy
 8006e1c:	61fb      	str	r3, [r7, #28]
 8006e1e:	e7fe      	b.n	8006e1e <xQueueGenericSendFromISR+0x82>
 8006e20:	f001 fec8 	bl	8008bb4 <vPortValidateInterruptPriority>
 8006e24:	f3ef 8211 	mrs	r2, BASEPRI
 8006e28:	f04f 0350 	mov.w	r3, #80	; 0x50
 8006e2c:	f383 8811 	msr	BASEPRI, r3
 8006e30:	f3bf 8f6f 	isb	sy
 8006e34:	f3bf 8f4f 	dsb	sy
 8006e38:	61ba      	str	r2, [r7, #24]
 8006e3a:	617b      	str	r3, [r7, #20]
 8006e3c:	69bb      	ldr	r3, [r7, #24]
 8006e3e:	62fb      	str	r3, [r7, #44]	; 0x2c
 8006e40:	6b3b      	ldr	r3, [r7, #48]	; 0x30
 8006e42:	6b9a      	ldr	r2, [r3, #56]	; 0x38
 8006e44:	6b3b      	ldr	r3, [r7, #48]	; 0x30
 8006e46:	6bdb      	ldr	r3, [r3, #60]	; 0x3c
 8006e48:	429a      	cmp	r2, r3
 8006e4a:	d302      	bcc.n	8006e52 <xQueueGenericSendFromISR+0xb6>
 8006e4c:	683b      	ldr	r3, [r7, #0]
 8006e4e:	2b02      	cmp	r3, #2
 8006e50:	d12c      	bne.n	8006eac <xQueueGenericSendFromISR+0x110>
 8006e52:	6b3b      	ldr	r3, [r7, #48]	; 0x30
 8006e54:	f893 3045 	ldrb.w	r3, [r3, #69]	; 0x45
 8006e58:	f887 302b 	strb.w	r3, [r7, #43]	; 0x2b
 8006e5c:	683a      	ldr	r2, [r7, #0]
 8006e5e:	68b9      	ldr	r1, [r7, #8]
 8006e60:	6b38      	ldr	r0, [r7, #48]	; 0x30
 8006e62:	f000 f90b 	bl	800707c <prvCopyDataToQueue>
 8006e66:	f997 302b 	ldrsb.w	r3, [r7, #43]	; 0x2b
 8006e6a:	f1b3 3fff 	cmp.w	r3, #4294967295
 8006e6e:	d112      	bne.n	8006e96 <xQueueGenericSendFromISR+0xfa>
 8006e70:	6b3b      	ldr	r3, [r7, #48]	; 0x30
 8006e72:	6a5b      	ldr	r3, [r3, #36]	; 0x24
 8006e74:	2b00      	cmp	r3, #0
 8006e76:	d016      	beq.n	8006ea6 <xQueueGenericSendFromISR+0x10a>
 8006e78:	6b3b      	ldr	r3, [r7, #48]	; 0x30
 8006e7a:	3324      	adds	r3, #36	; 0x24
 8006e7c:	4618      	mov	r0, r3
 8006e7e:	f000 febd 	bl	8007bfc <xTaskRemoveFromEventList>
 8006e82:	4603      	mov	r3, r0
 8006e84:	2b00      	cmp	r3, #0
 8006e86:	d00e      	beq.n	8006ea6 <xQueueGenericSendFromISR+0x10a>
 8006e88:	687b      	ldr	r3, [r7, #4]
 8006e8a:	2b00      	cmp	r3, #0
 8006e8c:	d00b      	beq.n	8006ea6 <xQueueGenericSendFromISR+0x10a>
 8006e8e:	687b      	ldr	r3, [r7, #4]
 8006e90:	2201      	movs	r2, #1
 8006e92:	601a      	str	r2, [r3, #0]
 8006e94:	e007      	b.n	8006ea6 <xQueueGenericSendFromISR+0x10a>
 8006e96:	f897 302b 	ldrb.w	r3, [r7, #43]	; 0x2b
 8006e9a:	3301      	adds	r3, #1
 8006e9c:	b2db      	uxtb	r3, r3
 8006e9e:	b25a      	sxtb	r2, r3
 8006ea0:	6b3b      	ldr	r3, [r7, #48]	; 0x30
 8006ea2:	f883 2045 	strb.w	r2, [r3, #69]	; 0x45
 8006ea6:	2301      	movs	r3, #1
 8006ea8:	637b      	str	r3, [r7, #52]	; 0x34
 8006eaa:	e001      	b.n	8006eb0 <xQueueGenericSendFromISR+0x114>
 8006eac:	2300      	movs	r3, #0
 8006eae:	637b      	str	r3, [r7, #52]	; 0x34
 8006eb0:	6afb      	ldr	r3, [r7, #44]	; 0x2c
 8006eb2:	613b      	str	r3, [r7, #16]
 8006eb4:	693b      	ldr	r3, [r7, #16]
 8006eb6:	f383 8811 	msr	BASEPRI, r3
 8006eba:	6b7b      	ldr	r3, [r7, #52]	; 0x34
 8006ebc:	4618      	mov	r0, r3
 8006ebe:	3738      	adds	r7, #56	; 0x38
 8006ec0:	46bd      	mov	sp, r7
 8006ec2:	bd80      	pop	{r7, pc}

08006ec4 <xQueueReceive>:
 8006ec4:	b580      	push	{r7, lr}
 8006ec6:	b08c      	sub	sp, #48	; 0x30
 8006ec8:	af00      	add	r7, sp, #0
 8006eca:	60f8      	str	r0, [r7, #12]
 8006ecc:	60b9      	str	r1, [r7, #8]
 8006ece:	607a      	str	r2, [r7, #4]
 8006ed0:	2300      	movs	r3, #0
 8006ed2:	62fb      	str	r3, [r7, #44]	; 0x2c
 8006ed4:	68fb      	ldr	r3, [r7, #12]
 8006ed6:	62bb      	str	r3, [r7, #40]	; 0x28
 8006ed8:	6abb      	ldr	r3, [r7, #40]	; 0x28
 8006eda:	2b00      	cmp	r3, #0
 8006edc:	d109      	bne.n	8006ef2 <xQueueReceive+0x2e>
 8006ede:	f04f 0350 	mov.w	r3, #80	; 0x50
 8006ee2:	f383 8811 	msr	BASEPRI, r3
 8006ee6:	f3bf 8f6f 	isb	sy
 8006eea:	f3bf 8f4f 	dsb	sy
 8006eee:	623b      	str	r3, [r7, #32]
 8006ef0:	e7fe      	b.n	8006ef0 <xQueueReceive+0x2c>
 8006ef2:	68bb      	ldr	r3, [r7, #8]
 8006ef4:	2b00      	cmp	r3, #0
 8006ef6:	d103      	bne.n	8006f00 <xQueueReceive+0x3c>
 8006ef8:	6abb      	ldr	r3, [r7, #40]	; 0x28
 8006efa:	6c1b      	ldr	r3, [r3, #64]	; 0x40
 8006efc:	2b00      	cmp	r3, #0
 8006efe:	d101      	bne.n	8006f04 <xQueueReceive+0x40>
 8006f00:	2301      	movs	r3, #1
 8006f02:	e000      	b.n	8006f06 <xQueueReceive+0x42>
 8006f04:	2300      	movs	r3, #0
 8006f06:	2b00      	cmp	r3, #0
 8006f08:	d109      	bne.n	8006f1e <xQueueReceive+0x5a>
 8006f0a:	f04f 0350 	mov.w	r3, #80	; 0x50
 8006f0e:	f383 8811 	msr	BASEPRI, r3
 8006f12:	f3bf 8f6f 	isb	sy
 8006f16:	f3bf 8f4f 	dsb	sy
 8006f1a:	61fb      	str	r3, [r7, #28]
 8006f1c:	e7fe      	b.n	8006f1c <xQueueReceive+0x58>
 8006f1e:	f001 f823 	bl	8007f68 <xTaskGetSchedulerState>
 8006f22:	4603      	mov	r3, r0
 8006f24:	2b00      	cmp	r3, #0
 8006f26:	d102      	bne.n	8006f2e <xQueueReceive+0x6a>
 8006f28:	687b      	ldr	r3, [r7, #4]
 8006f2a:	2b00      	cmp	r3, #0
 8006f2c:	d101      	bne.n	8006f32 <xQueueReceive+0x6e>
 8006f2e:	2301      	movs	r3, #1
 8006f30:	e000      	b.n	8006f34 <xQueueReceive+0x70>
 8006f32:	2300      	movs	r3, #0
 8006f34:	2b00      	cmp	r3, #0
 8006f36:	d109      	bne.n	8006f4c <xQueueReceive+0x88>
 8006f38:	f04f 0350 	mov.w	r3, #80	; 0x50
 8006f3c:	f383 8811 	msr	BASEPRI, r3
 8006f40:	f3bf 8f6f 	isb	sy
 8006f44:	f3bf 8f4f 	dsb	sy
 8006f48:	61bb      	str	r3, [r7, #24]
 8006f4a:	e7fe      	b.n	8006f4a <xQueueReceive+0x86>
 8006f4c:	f001 fd56 	bl	80089fc <vPortEnterCritical>
 8006f50:	6abb      	ldr	r3, [r7, #40]	; 0x28
 8006f52:	6b9b      	ldr	r3, [r3, #56]	; 0x38
 8006f54:	627b      	str	r3, [r7, #36]	; 0x24
 8006f56:	6a7b      	ldr	r3, [r7, #36]	; 0x24
 8006f58:	2b00      	cmp	r3, #0
 8006f5a:	d01f      	beq.n	8006f9c <xQueueReceive+0xd8>
 8006f5c:	68b9      	ldr	r1, [r7, #8]
 8006f5e:	6ab8      	ldr	r0, [r7, #40]	; 0x28
 8006f60:	f000 f8f6 	bl	8007150 <prvCopyDataFromQueue>
 8006f64:	6a7b      	ldr	r3, [r7, #36]	; 0x24
 8006f66:	1e5a      	subs	r2, r3, #1
 8006f68:	6abb      	ldr	r3, [r7, #40]	; 0x28
 8006f6a:	639a      	str	r2, [r3, #56]	; 0x38
 8006f6c:	6abb      	ldr	r3, [r7, #40]	; 0x28
 8006f6e:	691b      	ldr	r3, [r3, #16]
 8006f70:	2b00      	cmp	r3, #0
 8006f72:	d00f      	beq.n	8006f94 <xQueueReceive+0xd0>
 8006f74:	6abb      	ldr	r3, [r7, #40]	; 0x28
 8006f76:	3310      	adds	r3, #16
 8006f78:	4618      	mov	r0, r3
 8006f7a:	f000 fe3f 	bl	8007bfc <xTaskRemoveFromEventList>
 8006f7e:	4603      	mov	r3, r0
 8006f80:	2b00      	cmp	r3, #0
 8006f82:	d007      	beq.n	8006f94 <xQueueReceive+0xd0>
 8006f84:	4b3c      	ldr	r3, [pc, #240]	; (8007078 <xQueueReceive+0x1b4>)
 8006f86:	f04f 5280 	mov.w	r2, #268435456	; 0x10000000
 8006f8a:	601a      	str	r2, [r3, #0]
 8006f8c:	f3bf 8f4f 	dsb	sy
 8006f90:	f3bf 8f6f 	isb	sy
 8006f94:	f001 fd60 	bl	8008a58 <vPortExitCritical>
 8006f98:	2301      	movs	r3, #1
 8006f9a:	e069      	b.n	8007070 <xQueueReceive+0x1ac>
 8006f9c:	687b      	ldr	r3, [r7, #4]
 8006f9e:	2b00      	cmp	r3, #0
 8006fa0:	d103      	bne.n	8006faa <xQueueReceive+0xe6>
 8006fa2:	f001 fd59 	bl	8008a58 <vPortExitCritical>
 8006fa6:	2300      	movs	r3, #0
 8006fa8:	e062      	b.n	8007070 <xQueueReceive+0x1ac>
 8006faa:	6afb      	ldr	r3, [r7, #44]	; 0x2c
 8006fac:	2b00      	cmp	r3, #0
 8006fae:	d106      	bne.n	8006fbe <xQueueReceive+0xfa>
 8006fb0:	f107 0310 	add.w	r3, r7, #16
 8006fb4:	4618      	mov	r0, r3
 8006fb6:	f000 fe83 	bl	8007cc0 <vTaskInternalSetTimeOutState>
 8006fba:	2301      	movs	r3, #1
 8006fbc:	62fb      	str	r3, [r7, #44]	; 0x2c
 8006fbe:	f001 fd4b 	bl	8008a58 <vPortExitCritical>
 8006fc2:	f000 fbff 	bl	80077c4 <vTaskSuspendAll>
 8006fc6:	f001 fd19 	bl	80089fc <vPortEnterCritical>
 8006fca:	6abb      	ldr	r3, [r7, #40]	; 0x28
 8006fcc:	f893 3044 	ldrb.w	r3, [r3, #68]	; 0x44
 8006fd0:	b25b      	sxtb	r3, r3
 8006fd2:	f1b3 3fff 	cmp.w	r3, #4294967295
 8006fd6:	d103      	bne.n	8006fe0 <xQueueReceive+0x11c>
 8006fd8:	6abb      	ldr	r3, [r7, #40]	; 0x28
 8006fda:	2200      	movs	r2, #0
 8006fdc:	f883 2044 	strb.w	r2, [r3, #68]	; 0x44
 8006fe0:	6abb      	ldr	r3, [r7, #40]	; 0x28
 8006fe2:	f893 3045 	ldrb.w	r3, [r3, #69]	; 0x45
 8006fe6:	b25b      	sxtb	r3, r3
 8006fe8:	f1b3 3fff 	cmp.w	r3, #4294967295
 8006fec:	d103      	bne.n	8006ff6 <xQueueReceive+0x132>
 8006fee:	6abb      	ldr	r3, [r7, #40]	; 0x28
 8006ff0:	2200      	movs	r2, #0
 8006ff2:	f883 2045 	strb.w	r2, [r3, #69]	; 0x45
 8006ff6:	f001 fd2f 	bl	8008a58 <vPortExitCritical>
 8006ffa:	1d3a      	adds	r2, r7, #4
 8006ffc:	f107 0310 	add.w	r3, r7, #16
 8007000:	4611      	mov	r1, r2
 8007002:	4618      	mov	r0, r3
 8007004:	f000 fe72 	bl	8007cec <xTaskCheckForTimeOut>
 8007008:	4603      	mov	r3, r0
 800700a:	2b00      	cmp	r3, #0
 800700c:	d123      	bne.n	8007056 <xQueueReceive+0x192>
 800700e:	6ab8      	ldr	r0, [r7, #40]	; 0x28
 8007010:	f000 f916 	bl	8007240 <prvIsQueueEmpty>
 8007014:	4603      	mov	r3, r0
 8007016:	2b00      	cmp	r3, #0
 8007018:	d017      	beq.n	800704a <xQueueReceive+0x186>
 800701a:	6abb      	ldr	r3, [r7, #40]	; 0x28
 800701c:	3324      	adds	r3, #36	; 0x24
 800701e:	687a      	ldr	r2, [r7, #4]
 8007020:	4611      	mov	r1, r2
 8007022:	4618      	mov	r0, r3
 8007024:	f000 fd9c 	bl	8007b60 <vTaskPlaceOnEventList>
 8007028:	6ab8      	ldr	r0, [r7, #40]	; 0x28
 800702a:	f000 f8b7 	bl	800719c <prvUnlockQueue>
 800702e:	f000 fbd7 	bl	80077e0 <xTaskResumeAll>
 8007032:	4603      	mov	r3, r0
 8007034:	2b00      	cmp	r3, #0
 8007036:	d189      	bne.n	8006f4c <xQueueReceive+0x88>
 8007038:	4b0f      	ldr	r3, [pc, #60]	; (8007078 <xQueueReceive+0x1b4>)
 800703a:	f04f 5280 	mov.w	r2, #268435456	; 0x10000000
 800703e:	601a      	str	r2, [r3, #0]
 8007040:	f3bf 8f4f 	dsb	sy
 8007044:	f3bf 8f6f 	isb	sy
 8007048:	e780      	b.n	8006f4c <xQueueReceive+0x88>
 800704a:	6ab8      	ldr	r0, [r7, #40]	; 0x28
 800704c:	f000 f8a6 	bl	800719c <prvUnlockQueue>
 8007050:	f000 fbc6 	bl	80077e0 <xTaskResumeAll>
 8007054:	e77a      	b.n	8006f4c <xQueueReceive+0x88>
 8007056:	6ab8      	ldr	r0, [r7, #40]	; 0x28
 8007058:	f000 f8a0 	bl	800719c <prvUnlockQueue>
 800705c:	f000 fbc0 	bl	80077e0 <xTaskResumeAll>
 8007060:	6ab8      	ldr	r0, [r7, #40]	; 0x28
 8007062:	f000 f8ed 	bl	8007240 <prvIsQueueEmpty>
 8007066:	4603      	mov	r3, r0
 8007068:	2b00      	cmp	r3, #0
 800706a:	f43f af6f 	beq.w	8006f4c <xQueueReceive+0x88>
 800706e:	2300      	movs	r3, #0
 8007070:	4618      	mov	r0, r3
 8007072:	3730      	adds	r7, #48	; 0x30
 8007074:	46bd      	mov	sp, r7
 8007076:	bd80      	pop	{r7, pc}
 8007078:	e000ed04 	.word	0xe000ed04

0800707c <prvCopyDataToQueue>:
 800707c:	b580      	push	{r7, lr}
 800707e:	b086      	sub	sp, #24
 8007080:	af00      	add	r7, sp, #0
 8007082:	60f8      	str	r0, [r7, #12]
 8007084:	60b9      	str	r1, [r7, #8]
 8007086:	607a      	str	r2, [r7, #4]
 8007088:	2300      	movs	r3, #0
 800708a:	617b      	str	r3, [r7, #20]
 800708c:	68fb      	ldr	r3, [r7, #12]
 800708e:	6b9b      	ldr	r3, [r3, #56]	; 0x38
 8007090:	613b      	str	r3, [r7, #16]
 8007092:	68fb      	ldr	r3, [r7, #12]
 8007094:	6c1b      	ldr	r3, [r3, #64]	; 0x40
 8007096:	2b00      	cmp	r3, #0
 8007098:	d10d      	bne.n	80070b6 <prvCopyDataToQueue+0x3a>
 800709a:	68fb      	ldr	r3, [r7, #12]
 800709c:	681b      	ldr	r3, [r3, #0]
 800709e:	2b00      	cmp	r3, #0
 80070a0:	d14d      	bne.n	800713e <prvCopyDataToQueue+0xc2>
 80070a2:	68fb      	ldr	r3, [r7, #12]
 80070a4:	689b      	ldr	r3, [r3, #8]
 80070a6:	4618      	mov	r0, r3
 80070a8:	f000 ff7c 	bl	8007fa4 <xTaskPriorityDisinherit>
 80070ac:	6178      	str	r0, [r7, #20]
 80070ae:	68fb      	ldr	r3, [r7, #12]
 80070b0:	2200      	movs	r2, #0
 80070b2:	609a      	str	r2, [r3, #8]
 80070b4:	e043      	b.n	800713e <prvCopyDataToQueue+0xc2>
 80070b6:	687b      	ldr	r3, [r7, #4]
 80070b8:	2b00      	cmp	r3, #0
 80070ba:	d119      	bne.n	80070f0 <prvCopyDataToQueue+0x74>
 80070bc:	68fb      	ldr	r3, [r7, #12]
 80070be:	6858      	ldr	r0, [r3, #4]
 80070c0:	68fb      	ldr	r3, [r7, #12]
 80070c2:	6c1b      	ldr	r3, [r3, #64]	; 0x40
 80070c4:	461a      	mov	r2, r3
 80070c6:	68b9      	ldr	r1, [r7, #8]
 80070c8:	f001 ffac 	bl	8009024 <memcpy>
 80070cc:	68fb      	ldr	r3, [r7, #12]
 80070ce:	685a      	ldr	r2, [r3, #4]
 80070d0:	68fb      	ldr	r3, [r7, #12]
 80070d2:	6c1b      	ldr	r3, [r3, #64]	; 0x40
 80070d4:	441a      	add	r2, r3
 80070d6:	68fb      	ldr	r3, [r7, #12]
 80070d8:	605a      	str	r2, [r3, #4]
 80070da:	68fb      	ldr	r3, [r7, #12]
 80070dc:	685a      	ldr	r2, [r3, #4]
 80070de:	68fb      	ldr	r3, [r7, #12]
 80070e0:	689b      	ldr	r3, [r3, #8]
 80070e2:	429a      	cmp	r2, r3
 80070e4:	d32b      	bcc.n	800713e <prvCopyDataToQueue+0xc2>
 80070e6:	68fb      	ldr	r3, [r7, #12]
 80070e8:	681a      	ldr	r2, [r3, #0]
 80070ea:	68fb      	ldr	r3, [r7, #12]
 80070ec:	605a      	str	r2, [r3, #4]
 80070ee:	e026      	b.n	800713e <prvCopyDataToQueue+0xc2>
 80070f0:	68fb      	ldr	r3, [r7, #12]
 80070f2:	68d8      	ldr	r0, [r3, #12]
 80070f4:	68fb      	ldr	r3, [r7, #12]
 80070f6:	6c1b      	ldr	r3, [r3, #64]	; 0x40
 80070f8:	461a      	mov	r2, r3
 80070fa:	68b9      	ldr	r1, [r7, #8]
 80070fc:	f001 ff92 	bl	8009024 <memcpy>
 8007100:	68fb      	ldr	r3, [r7, #12]
 8007102:	68da      	ldr	r2, [r3, #12]
 8007104:	68fb      	ldr	r3, [r7, #12]
 8007106:	6c1b      	ldr	r3, [r3, #64]	; 0x40
 8007108:	425b      	negs	r3, r3
 800710a:	441a      	add	r2, r3
 800710c:	68fb      	ldr	r3, [r7, #12]
 800710e:	60da      	str	r2, [r3, #12]
 8007110:	68fb      	ldr	r3, [r7, #12]
 8007112:	68da      	ldr	r2, [r3, #12]
 8007114:	68fb      	ldr	r3, [r7, #12]
 8007116:	681b      	ldr	r3, [r3, #0]
 8007118:	429a      	cmp	r2, r3
 800711a:	d207      	bcs.n	800712c <prvCopyDataToQueue+0xb0>
 800711c:	68fb      	ldr	r3, [r7, #12]
 800711e:	689a      	ldr	r2, [r3, #8]
 8007120:	68fb      	ldr	r3, [r7, #12]
 8007122:	6c1b      	ldr	r3, [r3, #64]	; 0x40
 8007124:	425b      	negs	r3, r3
 8007126:	441a      	add	r2, r3
 8007128:	68fb      	ldr	r3, [r7, #12]
 800712a:	60da      	str	r2, [r3, #12]
 800712c:	687b      	ldr	r3, [r7, #4]
 800712e:	2b02      	cmp	r3, #2
 8007130:	d105      	bne.n	800713e <prvCopyDataToQueue+0xc2>
 8007132:	693b      	ldr	r3, [r7, #16]
 8007134:	2b00      	cmp	r3, #0
 8007136:	d002      	beq.n	800713e <prvCopyDataToQueue+0xc2>
 8007138:	693b      	ldr	r3, [r7, #16]
 800713a:	3b01      	subs	r3, #1
 800713c:	613b      	str	r3, [r7, #16]
 800713e:	693b      	ldr	r3, [r7, #16]
 8007140:	1c5a      	adds	r2, r3, #1
 8007142:	68fb      	ldr	r3, [r7, #12]
 8007144:	639a      	str	r2, [r3, #56]	; 0x38
 8007146:	697b      	ldr	r3, [r7, #20]
 8007148:	4618      	mov	r0, r3
 800714a:	3718      	adds	r7, #24
 800714c:	46bd      	mov	sp, r7
 800714e:	bd80      	pop	{r7, pc}

08007150 <prvCopyDataFromQueue>:
 8007150:	b580      	push	{r7, lr}
 8007152:	b082      	sub	sp, #8
 8007154:	af00      	add	r7, sp, #0
 8007156:	6078      	str	r0, [r7, #4]
 8007158:	6039      	str	r1, [r7, #0]
 800715a:	687b      	ldr	r3, [r7, #4]
 800715c:	6c1b      	ldr	r3, [r3, #64]	; 0x40
 800715e:	2b00      	cmp	r3, #0
 8007160:	d018      	beq.n	8007194 <prvCopyDataFromQueue+0x44>
 8007162:	687b      	ldr	r3, [r7, #4]
 8007164:	68da      	ldr	r2, [r3, #12]
 8007166:	687b      	ldr	r3, [r7, #4]
 8007168:	6c1b      	ldr	r3, [r3, #64]	; 0x40
 800716a:	441a      	add	r2, r3
 800716c:	687b      	ldr	r3, [r7, #4]
 800716e:	60da      	str	r2, [r3, #12]
 8007170:	687b      	ldr	r3, [r7, #4]
 8007172:	68da      	ldr	r2, [r3, #12]
 8007174:	687b      	ldr	r3, [r7, #4]
 8007176:	689b      	ldr	r3, [r3, #8]
 8007178:	429a      	cmp	r2, r3
 800717a:	d303      	bcc.n	8007184 <prvCopyDataFromQueue+0x34>
 800717c:	687b      	ldr	r3, [r7, #4]
 800717e:	681a      	ldr	r2, [r3, #0]
 8007180:	687b      	ldr	r3, [r7, #4]
 8007182:	60da      	str	r2, [r3, #12]
 8007184:	687b      	ldr	r3, [r7, #4]
 8007186:	68d9      	ldr	r1, [r3, #12]
 8007188:	687b      	ldr	r3, [r7, #4]
 800718a:	6c1b      	ldr	r3, [r3, #64]	; 0x40
 800718c:	461a      	mov	r2, r3
 800718e:	6838      	ldr	r0, [r7, #0]
 8007190:	f001 ff48 	bl	8009024 <memcpy>
 8007194:	bf00      	nop
 8007196:	3708      	adds	r7, #8
 8007198:	46bd      	mov	sp, r7
 800719a:	bd80      	pop	{r7, pc}

0800719c <prvUnlockQueue>:
 800719c:	b580      	push	{r7, lr}
 800719e:	b084      	sub	sp, #16
 80071a0:	af00      	add	r7, sp, #0
 80071a2:	6078      	str	r0, [r7, #4]
 80071a4:	f001 fc2a 	bl	80089fc <vPortEnterCritical>
 80071a8:	687b      	ldr	r3, [r7, #4]
 80071aa:	f893 3045 	ldrb.w	r3, [r3, #69]	; 0x45
 80071ae:	73fb      	strb	r3, [r7, #15]
 80071b0:	e011      	b.n	80071d6 <prvUnlockQueue+0x3a>
 80071b2:	687b      	ldr	r3, [r7, #4]
 80071b4:	6a5b      	ldr	r3, [r3, #36]	; 0x24
 80071b6:	2b00      	cmp	r3, #0
 80071b8:	d012      	beq.n	80071e0 <prvUnlockQueue+0x44>
 80071ba:	687b      	ldr	r3, [r7, #4]
 80071bc:	3324      	adds	r3, #36	; 0x24
 80071be:	4618      	mov	r0, r3
 80071c0:	f000 fd1c 	bl	8007bfc <xTaskRemoveFromEventList>
 80071c4:	4603      	mov	r3, r0
 80071c6:	2b00      	cmp	r3, #0
 80071c8:	d001      	beq.n	80071ce <prvUnlockQueue+0x32>
 80071ca:	f000 fdef 	bl	8007dac <vTaskMissedYield>
 80071ce:	7bfb      	ldrb	r3, [r7, #15]
 80071d0:	3b01      	subs	r3, #1
 80071d2:	b2db      	uxtb	r3, r3
 80071d4:	73fb      	strb	r3, [r7, #15]
 80071d6:	f997 300f 	ldrsb.w	r3, [r7, #15]
 80071da:	2b00      	cmp	r3, #0
 80071dc:	dce9      	bgt.n	80071b2 <prvUnlockQueue+0x16>
 80071de:	e000      	b.n	80071e2 <prvUnlockQueue+0x46>
 80071e0:	bf00      	nop
 80071e2:	687b      	ldr	r3, [r7, #4]
 80071e4:	22ff      	movs	r2, #255	; 0xff
 80071e6:	f883 2045 	strb.w	r2, [r3, #69]	; 0x45
 80071ea:	f001 fc35 	bl	8008a58 <vPortExitCritical>
 80071ee:	f001 fc05 	bl	80089fc <vPortEnterCritical>
 80071f2:	687b      	ldr	r3, [r7, #4]
 80071f4:	f893 3044 	ldrb.w	r3, [r3, #68]	; 0x44
 80071f8:	73bb      	strb	r3, [r7, #14]
 80071fa:	e011      	b.n	8007220 <prvUnlockQueue+0x84>
 80071fc:	687b      	ldr	r3, [r7, #4]
 80071fe:	691b      	ldr	r3, [r3, #16]
 8007200:	2b00      	cmp	r3, #0
 8007202:	d012      	beq.n	800722a <prvUnlockQueue+0x8e>
 8007204:	687b      	ldr	r3, [r7, #4]
 8007206:	3310      	adds	r3, #16
 8007208:	4618      	mov	r0, r3
 800720a:	f000 fcf7 	bl	8007bfc <xTaskRemoveFromEventList>
 800720e:	4603      	mov	r3, r0
 8007210:	2b00      	cmp	r3, #0
 8007212:	d001      	beq.n	8007218 <prvUnlockQueue+0x7c>
 8007214:	f000 fdca 	bl	8007dac <vTaskMissedYield>
 8007218:	7bbb      	ldrb	r3, [r7, #14]
 800721a:	3b01      	subs	r3, #1
 800721c:	b2db      	uxtb	r3, r3
 800721e:	73bb      	strb	r3, [r7, #14]
 8007220:	f997 300e 	ldrsb.w	r3, [r7, #14]
 8007224:	2b00      	cmp	r3, #0
 8007226:	dce9      	bgt.n	80071fc <prvUnlockQueue+0x60>
 8007228:	e000      	b.n	800722c <prvUnlockQueue+0x90>
 800722a:	bf00      	nop
 800722c:	687b      	ldr	r3, [r7, #4]
 800722e:	22ff      	movs	r2, #255	; 0xff
 8007230:	f883 2044 	strb.w	r2, [r3, #68]	; 0x44
 8007234:	f001 fc10 	bl	8008a58 <vPortExitCritical>
 8007238:	bf00      	nop
 800723a:	3710      	adds	r7, #16
 800723c:	46bd      	mov	sp, r7
 800723e:	bd80      	pop	{r7, pc}

08007240 <prvIsQueueEmpty>:
 8007240:	b580      	push	{r7, lr}
 8007242:	b084      	sub	sp, #16
 8007244:	af00      	add	r7, sp, #0
 8007246:	6078      	str	r0, [r7, #4]
 8007248:	f001 fbd8 	bl	80089fc <vPortEnterCritical>
 800724c:	687b      	ldr	r3, [r7, #4]
 800724e:	6b9b      	ldr	r3, [r3, #56]	; 0x38
 8007250:	2b00      	cmp	r3, #0
 8007252:	d102      	bne.n	800725a <prvIsQueueEmpty+0x1a>
 8007254:	2301      	movs	r3, #1
 8007256:	60fb      	str	r3, [r7, #12]
 8007258:	e001      	b.n	800725e <prvIsQueueEmpty+0x1e>
 800725a:	2300      	movs	r3, #0
 800725c:	60fb      	str	r3, [r7, #12]
 800725e:	f001 fbfb 	bl	8008a58 <vPortExitCritical>
 8007262:	68fb      	ldr	r3, [r7, #12]
 8007264:	4618      	mov	r0, r3
 8007266:	3710      	adds	r7, #16
 8007268:	46bd      	mov	sp, r7
 800726a:	bd80      	pop	{r7, pc}

0800726c <prvIsQueueFull>:
 800726c:	b580      	push	{r7, lr}
 800726e:	b084      	sub	sp, #16
 8007270:	af00      	add	r7, sp, #0
 8007272:	6078      	str	r0, [r7, #4]
 8007274:	f001 fbc2 	bl	80089fc <vPortEnterCritical>
 8007278:	687b      	ldr	r3, [r7, #4]
 800727a:	6b9a      	ldr	r2, [r3, #56]	; 0x38
 800727c:	687b      	ldr	r3, [r7, #4]
 800727e:	6bdb      	ldr	r3, [r3, #60]	; 0x3c
 8007280:	429a      	cmp	r2, r3
 8007282:	d102      	bne.n	800728a <prvIsQueueFull+0x1e>
 8007284:	2301      	movs	r3, #1
 8007286:	60fb      	str	r3, [r7, #12]
 8007288:	e001      	b.n	800728e <prvIsQueueFull+0x22>
 800728a:	2300      	movs	r3, #0
 800728c:	60fb      	str	r3, [r7, #12]
 800728e:	f001 fbe3 	bl	8008a58 <vPortExitCritical>
 8007292:	68fb      	ldr	r3, [r7, #12]
 8007294:	4618      	mov	r0, r3
 8007296:	3710      	adds	r7, #16
 8007298:	46bd      	mov	sp, r7
 800729a:	bd80      	pop	{r7, pc}

0800729c <vQueueAddToRegistry>:
 800729c:	b480      	push	{r7}
 800729e:	b085      	sub	sp, #20
 80072a0:	af00      	add	r7, sp, #0
 80072a2:	6078      	str	r0, [r7, #4]
 80072a4:	6039      	str	r1, [r7, #0]
 80072a6:	2300      	movs	r3, #0
 80072a8:	60fb      	str	r3, [r7, #12]
 80072aa:	e014      	b.n	80072d6 <vQueueAddToRegistry+0x3a>
 80072ac:	4a0e      	ldr	r2, [pc, #56]	; (80072e8 <vQueueAddToRegistry+0x4c>)
 80072ae:	68fb      	ldr	r3, [r7, #12]
 80072b0:	f852 3033 	ldr.w	r3, [r2, r3, lsl #3]
 80072b4:	2b00      	cmp	r3, #0
 80072b6:	d10b      	bne.n	80072d0 <vQueueAddToRegistry+0x34>
 80072b8:	490b      	ldr	r1, [pc, #44]	; (80072e8 <vQueueAddToRegistry+0x4c>)
 80072ba:	68fb      	ldr	r3, [r7, #12]
 80072bc:	683a      	ldr	r2, [r7, #0]
 80072be:	f841 2033 	str.w	r2, [r1, r3, lsl #3]
 80072c2:	4a09      	ldr	r2, [pc, #36]	; (80072e8 <vQueueAddToRegistry+0x4c>)
 80072c4:	68fb      	ldr	r3, [r7, #12]
 80072c6:	00db      	lsls	r3, r3, #3
 80072c8:	4413      	add	r3, r2
 80072ca:	687a      	ldr	r2, [r7, #4]
 80072cc:	605a      	str	r2, [r3, #4]
 80072ce:	e005      	b.n	80072dc <vQueueAddToRegistry+0x40>
 80072d0:	68fb      	ldr	r3, [r7, #12]
 80072d2:	3301      	adds	r3, #1
 80072d4:	60fb      	str	r3, [r7, #12]
 80072d6:	68fb      	ldr	r3, [r7, #12]
 80072d8:	2b07      	cmp	r3, #7
 80072da:	d9e7      	bls.n	80072ac <vQueueAddToRegistry+0x10>
 80072dc:	bf00      	nop
 80072de:	3714      	adds	r7, #20
 80072e0:	46bd      	mov	sp, r7
 80072e2:	f85d 7b04 	ldr.w	r7, [sp], #4
 80072e6:	4770      	bx	lr
 80072e8:	200061d8 	.word	0x200061d8

080072ec <vQueueWaitForMessageRestricted>:
 80072ec:	b580      	push	{r7, lr}
 80072ee:	b086      	sub	sp, #24
 80072f0:	af00      	add	r7, sp, #0
 80072f2:	60f8      	str	r0, [r7, #12]
 80072f4:	60b9      	str	r1, [r7, #8]
 80072f6:	607a      	str	r2, [r7, #4]
 80072f8:	68fb      	ldr	r3, [r7, #12]
 80072fa:	617b      	str	r3, [r7, #20]
 80072fc:	f001 fb7e 	bl	80089fc <vPortEnterCritical>
 8007300:	697b      	ldr	r3, [r7, #20]
 8007302:	f893 3044 	ldrb.w	r3, [r3, #68]	; 0x44
 8007306:	b25b      	sxtb	r3, r3
 8007308:	f1b3 3fff 	cmp.w	r3, #4294967295
 800730c:	d103      	bne.n	8007316 <vQueueWaitForMessageRestricted+0x2a>
 800730e:	697b      	ldr	r3, [r7, #20]
 8007310:	2200      	movs	r2, #0
 8007312:	f883 2044 	strb.w	r2, [r3, #68]	; 0x44
 8007316:	697b      	ldr	r3, [r7, #20]
 8007318:	f893 3045 	ldrb.w	r3, [r3, #69]	; 0x45
 800731c:	b25b      	sxtb	r3, r3
 800731e:	f1b3 3fff 	cmp.w	r3, #4294967295
 8007322:	d103      	bne.n	800732c <vQueueWaitForMessageRestricted+0x40>
 8007324:	697b      	ldr	r3, [r7, #20]
 8007326:	2200      	movs	r2, #0
 8007328:	f883 2045 	strb.w	r2, [r3, #69]	; 0x45
 800732c:	f001 fb94 	bl	8008a58 <vPortExitCritical>
 8007330:	697b      	ldr	r3, [r7, #20]
 8007332:	6b9b      	ldr	r3, [r3, #56]	; 0x38
 8007334:	2b00      	cmp	r3, #0
 8007336:	d106      	bne.n	8007346 <vQueueWaitForMessageRestricted+0x5a>
 8007338:	697b      	ldr	r3, [r7, #20]
 800733a:	3324      	adds	r3, #36	; 0x24
 800733c:	687a      	ldr	r2, [r7, #4]
 800733e:	68b9      	ldr	r1, [r7, #8]
 8007340:	4618      	mov	r0, r3
 8007342:	f000 fc31 	bl	8007ba8 <vTaskPlaceOnEventListRestricted>
 8007346:	6978      	ldr	r0, [r7, #20]
 8007348:	f7ff ff28 	bl	800719c <prvUnlockQueue>
 800734c:	bf00      	nop
 800734e:	3718      	adds	r7, #24
 8007350:	46bd      	mov	sp, r7
 8007352:	bd80      	pop	{r7, pc}

08007354 <xTaskCreateStatic>:
 8007354:	b580      	push	{r7, lr}
 8007356:	b08e      	sub	sp, #56	; 0x38
 8007358:	af04      	add	r7, sp, #16
 800735a:	60f8      	str	r0, [r7, #12]
 800735c:	60b9      	str	r1, [r7, #8]
 800735e:	607a      	str	r2, [r7, #4]
 8007360:	603b      	str	r3, [r7, #0]
 8007362:	6b7b      	ldr	r3, [r7, #52]	; 0x34
 8007364:	2b00      	cmp	r3, #0
 8007366:	d109      	bne.n	800737c <xTaskCreateStatic+0x28>
 8007368:	f04f 0350 	mov.w	r3, #80	; 0x50
 800736c:	f383 8811 	msr	BASEPRI, r3
 8007370:	f3bf 8f6f 	isb	sy
 8007374:	f3bf 8f4f 	dsb	sy
 8007378:	623b      	str	r3, [r7, #32]
 800737a:	e7fe      	b.n	800737a <xTaskCreateStatic+0x26>
 800737c:	6bbb      	ldr	r3, [r7, #56]	; 0x38
 800737e:	2b00      	cmp	r3, #0
 8007380:	d109      	bne.n	8007396 <xTaskCreateStatic+0x42>
 8007382:	f04f 0350 	mov.w	r3, #80	; 0x50
 8007386:	f383 8811 	msr	BASEPRI, r3
 800738a:	f3bf 8f6f 	isb	sy
 800738e:	f3bf 8f4f 	dsb	sy
 8007392:	61fb      	str	r3, [r7, #28]
 8007394:	e7fe      	b.n	8007394 <xTaskCreateStatic+0x40>
 8007396:	2360      	movs	r3, #96	; 0x60
 8007398:	613b      	str	r3, [r7, #16]
 800739a:	693b      	ldr	r3, [r7, #16]
 800739c:	2b60      	cmp	r3, #96	; 0x60
 800739e:	d009      	beq.n	80073b4 <xTaskCreateStatic+0x60>
 80073a0:	f04f 0350 	mov.w	r3, #80	; 0x50
 80073a4:	f383 8811 	msr	BASEPRI, r3
 80073a8:	f3bf 8f6f 	isb	sy
 80073ac:	f3bf 8f4f 	dsb	sy
 80073b0:	61bb      	str	r3, [r7, #24]
 80073b2:	e7fe      	b.n	80073b2 <xTaskCreateStatic+0x5e>
 80073b4:	693b      	ldr	r3, [r7, #16]
 80073b6:	6bbb      	ldr	r3, [r7, #56]	; 0x38
 80073b8:	2b00      	cmp	r3, #0
 80073ba:	d01e      	beq.n	80073fa <xTaskCreateStatic+0xa6>
 80073bc:	6b7b      	ldr	r3, [r7, #52]	; 0x34
 80073be:	2b00      	cmp	r3, #0
 80073c0:	d01b      	beq.n	80073fa <xTaskCreateStatic+0xa6>
 80073c2:	6bbb      	ldr	r3, [r7, #56]	; 0x38
 80073c4:	627b      	str	r3, [r7, #36]	; 0x24
 80073c6:	6a7b      	ldr	r3, [r7, #36]	; 0x24
 80073c8:	6b7a      	ldr	r2, [r7, #52]	; 0x34
 80073ca:	631a      	str	r2, [r3, #48]	; 0x30
 80073cc:	6a7b      	ldr	r3, [r7, #36]	; 0x24
 80073ce:	2202      	movs	r2, #2
 80073d0:	f883 205d 	strb.w	r2, [r3, #93]	; 0x5d
 80073d4:	2300      	movs	r3, #0
 80073d6:	9303      	str	r3, [sp, #12]
 80073d8:	6a7b      	ldr	r3, [r7, #36]	; 0x24
 80073da:	9302      	str	r3, [sp, #8]
 80073dc:	f107 0314 	add.w	r3, r7, #20
 80073e0:	9301      	str	r3, [sp, #4]
 80073e2:	6b3b      	ldr	r3, [r7, #48]	; 0x30
 80073e4:	9300      	str	r3, [sp, #0]
 80073e6:	683b      	ldr	r3, [r7, #0]
 80073e8:	687a      	ldr	r2, [r7, #4]
 80073ea:	68b9      	ldr	r1, [r7, #8]
 80073ec:	68f8      	ldr	r0, [r7, #12]
 80073ee:	f000 f850 	bl	8007492 <prvInitialiseNewTask>
 80073f2:	6a78      	ldr	r0, [r7, #36]	; 0x24
 80073f4:	f000 f8de 	bl	80075b4 <prvAddNewTaskToReadyList>
 80073f8:	e001      	b.n	80073fe <xTaskCreateStatic+0xaa>
 80073fa:	2300      	movs	r3, #0
 80073fc:	617b      	str	r3, [r7, #20]
 80073fe:	697b      	ldr	r3, [r7, #20]
 8007400:	4618      	mov	r0, r3
 8007402:	3728      	adds	r7, #40	; 0x28
 8007404:	46bd      	mov	sp, r7
 8007406:	bd80      	pop	{r7, pc}

08007408 <xTaskCreate>:
 8007408:	b580      	push	{r7, lr}
 800740a:	b08c      	sub	sp, #48	; 0x30
 800740c:	af04      	add	r7, sp, #16
 800740e:	60f8      	str	r0, [r7, #12]
 8007410:	60b9      	str	r1, [r7, #8]
 8007412:	603b      	str	r3, [r7, #0]
 8007414:	4613      	mov	r3, r2
 8007416:	80fb      	strh	r3, [r7, #6]
 8007418:	88fb      	ldrh	r3, [r7, #6]
 800741a:	009b      	lsls	r3, r3, #2
 800741c:	4618      	mov	r0, r3
 800741e:	f001 fc07 	bl	8008c30 <pvPortMalloc>
 8007422:	6178      	str	r0, [r7, #20]
 8007424:	697b      	ldr	r3, [r7, #20]
 8007426:	2b00      	cmp	r3, #0
 8007428:	d00e      	beq.n	8007448 <xTaskCreate+0x40>
 800742a:	2060      	movs	r0, #96	; 0x60
 800742c:	f001 fc00 	bl	8008c30 <pvPortMalloc>
 8007430:	61f8      	str	r0, [r7, #28]
 8007432:	69fb      	ldr	r3, [r7, #28]
 8007434:	2b00      	cmp	r3, #0
 8007436:	d003      	beq.n	8007440 <xTaskCreate+0x38>
 8007438:	69fb      	ldr	r3, [r7, #28]
 800743a:	697a      	ldr	r2, [r7, #20]
 800743c:	631a      	str	r2, [r3, #48]	; 0x30
 800743e:	e005      	b.n	800744c <xTaskCreate+0x44>
 8007440:	6978      	ldr	r0, [r7, #20]
 8007442:	f001 fcb7 	bl	8008db4 <vPortFree>
 8007446:	e001      	b.n	800744c <xTaskCreate+0x44>
 8007448:	2300      	movs	r3, #0
 800744a:	61fb      	str	r3, [r7, #28]
 800744c:	69fb      	ldr	r3, [r7, #28]
 800744e:	2b00      	cmp	r3, #0
 8007450:	d017      	beq.n	8007482 <xTaskCreate+0x7a>
 8007452:	69fb      	ldr	r3, [r7, #28]
 8007454:	2200      	movs	r2, #0
 8007456:	f883 205d 	strb.w	r2, [r3, #93]	; 0x5d
 800745a:	88fa      	ldrh	r2, [r7, #6]
 800745c:	2300      	movs	r3, #0
 800745e:	9303      	str	r3, [sp, #12]
 8007460:	69fb      	ldr	r3, [r7, #28]
 8007462:	9302      	str	r3, [sp, #8]
 8007464:	6afb      	ldr	r3, [r7, #44]	; 0x2c
 8007466:	9301      	str	r3, [sp, #4]
 8007468:	6abb      	ldr	r3, [r7, #40]	; 0x28
 800746a:	9300      	str	r3, [sp, #0]
 800746c:	683b      	ldr	r3, [r7, #0]
 800746e:	68b9      	ldr	r1, [r7, #8]
 8007470:	68f8      	ldr	r0, [r7, #12]
 8007472:	f000 f80e 	bl	8007492 <prvInitialiseNewTask>
 8007476:	69f8      	ldr	r0, [r7, #28]
 8007478:	f000 f89c 	bl	80075b4 <prvAddNewTaskToReadyList>
 800747c:	2301      	movs	r3, #1
 800747e:	61bb      	str	r3, [r7, #24]
 8007480:	e002      	b.n	8007488 <xTaskCreate+0x80>
 8007482:	f04f 33ff 	mov.w	r3, #4294967295
 8007486:	61bb      	str	r3, [r7, #24]
 8007488:	69bb      	ldr	r3, [r7, #24]
 800748a:	4618      	mov	r0, r3
 800748c:	3720      	adds	r7, #32
 800748e:	46bd      	mov	sp, r7
 8007490:	bd80      	pop	{r7, pc}

08007492 <prvInitialiseNewTask>:
 8007492:	b580      	push	{r7, lr}
 8007494:	b088      	sub	sp, #32
 8007496:	af00      	add	r7, sp, #0
 8007498:	60f8      	str	r0, [r7, #12]
 800749a:	60b9      	str	r1, [r7, #8]
 800749c:	607a      	str	r2, [r7, #4]
 800749e:	603b      	str	r3, [r7, #0]
 80074a0:	6b3b      	ldr	r3, [r7, #48]	; 0x30
 80074a2:	6b18      	ldr	r0, [r3, #48]	; 0x30
 80074a4:	687b      	ldr	r3, [r7, #4]
 80074a6:	009b      	lsls	r3, r3, #2
 80074a8:	461a      	mov	r2, r3
 80074aa:	21a5      	movs	r1, #165	; 0xa5
 80074ac:	f001 fdc5 	bl	800903a <memset>
 80074b0:	6b3b      	ldr	r3, [r7, #48]	; 0x30
 80074b2:	6b1a      	ldr	r2, [r3, #48]	; 0x30
 80074b4:	687b      	ldr	r3, [r7, #4]
 80074b6:	f103 4380 	add.w	r3, r3, #1073741824	; 0x40000000
 80074ba:	3b01      	subs	r3, #1
 80074bc:	009b      	lsls	r3, r3, #2
 80074be:	4413      	add	r3, r2
 80074c0:	61bb      	str	r3, [r7, #24]
 80074c2:	69bb      	ldr	r3, [r7, #24]
 80074c4:	f023 0307 	bic.w	r3, r3, #7
 80074c8:	61bb      	str	r3, [r7, #24]
 80074ca:	69bb      	ldr	r3, [r7, #24]
 80074cc:	f003 0307 	and.w	r3, r3, #7
 80074d0:	2b00      	cmp	r3, #0
 80074d2:	d009      	beq.n	80074e8 <prvInitialiseNewTask+0x56>
 80074d4:	f04f 0350 	mov.w	r3, #80	; 0x50
 80074d8:	f383 8811 	msr	BASEPRI, r3
 80074dc:	f3bf 8f6f 	isb	sy
 80074e0:	f3bf 8f4f 	dsb	sy
 80074e4:	617b      	str	r3, [r7, #20]
 80074e6:	e7fe      	b.n	80074e6 <prvInitialiseNewTask+0x54>
 80074e8:	68bb      	ldr	r3, [r7, #8]
 80074ea:	2b00      	cmp	r3, #0
 80074ec:	d01f      	beq.n	800752e <prvInitialiseNewTask+0x9c>
 80074ee:	2300      	movs	r3, #0
 80074f0:	61fb      	str	r3, [r7, #28]
 80074f2:	e012      	b.n	800751a <prvInitialiseNewTask+0x88>
 80074f4:	68ba      	ldr	r2, [r7, #8]
 80074f6:	69fb      	ldr	r3, [r7, #28]
 80074f8:	4413      	add	r3, r2
 80074fa:	7819      	ldrb	r1, [r3, #0]
 80074fc:	6b3a      	ldr	r2, [r7, #48]	; 0x30
 80074fe:	69fb      	ldr	r3, [r7, #28]
 8007500:	4413      	add	r3, r2
 8007502:	3334      	adds	r3, #52	; 0x34
 8007504:	460a      	mov	r2, r1
 8007506:	701a      	strb	r2, [r3, #0]
 8007508:	68ba      	ldr	r2, [r7, #8]
 800750a:	69fb      	ldr	r3, [r7, #28]
 800750c:	4413      	add	r3, r2
 800750e:	781b      	ldrb	r3, [r3, #0]
 8007510:	2b00      	cmp	r3, #0
 8007512:	d006      	beq.n	8007522 <prvInitialiseNewTask+0x90>
 8007514:	69fb      	ldr	r3, [r7, #28]
 8007516:	3301      	adds	r3, #1
 8007518:	61fb      	str	r3, [r7, #28]
 800751a:	69fb      	ldr	r3, [r7, #28]
 800751c:	2b0f      	cmp	r3, #15
 800751e:	d9e9      	bls.n	80074f4 <prvInitialiseNewTask+0x62>
 8007520:	e000      	b.n	8007524 <prvInitialiseNewTask+0x92>
 8007522:	bf00      	nop
 8007524:	6b3b      	ldr	r3, [r7, #48]	; 0x30
 8007526:	2200      	movs	r2, #0
 8007528:	f883 2043 	strb.w	r2, [r3, #67]	; 0x43
 800752c:	e003      	b.n	8007536 <prvInitialiseNewTask+0xa4>
 800752e:	6b3b      	ldr	r3, [r7, #48]	; 0x30
 8007530:	2200      	movs	r2, #0
 8007532:	f883 2034 	strb.w	r2, [r3, #52]	; 0x34
 8007536:	6abb      	ldr	r3, [r7, #40]	; 0x28
 8007538:	2b37      	cmp	r3, #55	; 0x37
 800753a:	d901      	bls.n	8007540 <prvInitialiseNewTask+0xae>
 800753c:	2337      	movs	r3, #55	; 0x37
 800753e:	62bb      	str	r3, [r7, #40]	; 0x28
 8007540:	6b3b      	ldr	r3, [r7, #48]	; 0x30
 8007542:	6aba      	ldr	r2, [r7, #40]	; 0x28
 8007544:	62da      	str	r2, [r3, #44]	; 0x2c
 8007546:	6b3b      	ldr	r3, [r7, #48]	; 0x30
 8007548:	6aba      	ldr	r2, [r7, #40]	; 0x28
 800754a:	64da      	str	r2, [r3, #76]	; 0x4c
 800754c:	6b3b      	ldr	r3, [r7, #48]	; 0x30
 800754e:	2200      	movs	r2, #0
 8007550:	651a      	str	r2, [r3, #80]	; 0x50
 8007552:	6b3b      	ldr	r3, [r7, #48]	; 0x30
 8007554:	3304      	adds	r3, #4
 8007556:	4618      	mov	r0, r3
 8007558:	f7ff f994 	bl	8006884 <vListInitialiseItem>
 800755c:	6b3b      	ldr	r3, [r7, #48]	; 0x30
 800755e:	3318      	adds	r3, #24
 8007560:	4618      	mov	r0, r3
 8007562:	f7ff f98f 	bl	8006884 <vListInitialiseItem>
 8007566:	6b3b      	ldr	r3, [r7, #48]	; 0x30
 8007568:	6b3a      	ldr	r2, [r7, #48]	; 0x30
 800756a:	611a      	str	r2, [r3, #16]
 800756c:	6abb      	ldr	r3, [r7, #40]	; 0x28
 800756e:	f1c3 0238 	rsb	r2, r3, #56	; 0x38
 8007572:	6b3b      	ldr	r3, [r7, #48]	; 0x30
 8007574:	619a      	str	r2, [r3, #24]
 8007576:	6b3b      	ldr	r3, [r7, #48]	; 0x30
 8007578:	6b3a      	ldr	r2, [r7, #48]	; 0x30
 800757a:	625a      	str	r2, [r3, #36]	; 0x24
 800757c:	6b3b      	ldr	r3, [r7, #48]	; 0x30
 800757e:	2200      	movs	r2, #0
 8007580:	655a      	str	r2, [r3, #84]	; 0x54
 8007582:	6b3b      	ldr	r3, [r7, #48]	; 0x30
 8007584:	2200      	movs	r2, #0
 8007586:	659a      	str	r2, [r3, #88]	; 0x58
 8007588:	6b3b      	ldr	r3, [r7, #48]	; 0x30
 800758a:	2200      	movs	r2, #0
 800758c:	f883 205c 	strb.w	r2, [r3, #92]	; 0x5c
 8007590:	683a      	ldr	r2, [r7, #0]
 8007592:	68f9      	ldr	r1, [r7, #12]
 8007594:	69b8      	ldr	r0, [r7, #24]
 8007596:	f001 f90b 	bl	80087b0 <pxPortInitialiseStack>
 800759a:	4602      	mov	r2, r0
 800759c:	6b3b      	ldr	r3, [r7, #48]	; 0x30
 800759e:	601a      	str	r2, [r3, #0]
 80075a0:	6afb      	ldr	r3, [r7, #44]	; 0x2c
 80075a2:	2b00      	cmp	r3, #0
 80075a4:	d002      	beq.n	80075ac <prvInitialiseNewTask+0x11a>
 80075a6:	6afb      	ldr	r3, [r7, #44]	; 0x2c
 80075a8:	6b3a      	ldr	r2, [r7, #48]	; 0x30
 80075aa:	601a      	str	r2, [r3, #0]
 80075ac:	bf00      	nop
 80075ae:	3720      	adds	r7, #32
 80075b0:	46bd      	mov	sp, r7
 80075b2:	bd80      	pop	{r7, pc}

080075b4 <prvAddNewTaskToReadyList>:
 80075b4:	b580      	push	{r7, lr}
 80075b6:	b082      	sub	sp, #8
 80075b8:	af00      	add	r7, sp, #0
 80075ba:	6078      	str	r0, [r7, #4]
 80075bc:	f001 fa1e 	bl	80089fc <vPortEnterCritical>
 80075c0:	4b2d      	ldr	r3, [pc, #180]	; (8007678 <prvAddNewTaskToReadyList+0xc4>)
 80075c2:	681b      	ldr	r3, [r3, #0]
 80075c4:	3301      	adds	r3, #1
 80075c6:	4a2c      	ldr	r2, [pc, #176]	; (8007678 <prvAddNewTaskToReadyList+0xc4>)
 80075c8:	6013      	str	r3, [r2, #0]
 80075ca:	4b2c      	ldr	r3, [pc, #176]	; (800767c <prvAddNewTaskToReadyList+0xc8>)
 80075cc:	681b      	ldr	r3, [r3, #0]
 80075ce:	2b00      	cmp	r3, #0
 80075d0:	d109      	bne.n	80075e6 <prvAddNewTaskToReadyList+0x32>
 80075d2:	4a2a      	ldr	r2, [pc, #168]	; (800767c <prvAddNewTaskToReadyList+0xc8>)
 80075d4:	687b      	ldr	r3, [r7, #4]
 80075d6:	6013      	str	r3, [r2, #0]
 80075d8:	4b27      	ldr	r3, [pc, #156]	; (8007678 <prvAddNewTaskToReadyList+0xc4>)
 80075da:	681b      	ldr	r3, [r3, #0]
 80075dc:	2b01      	cmp	r3, #1
 80075de:	d110      	bne.n	8007602 <prvAddNewTaskToReadyList+0x4e>
 80075e0:	f000 fc08 	bl	8007df4 <prvInitialiseTaskLists>
 80075e4:	e00d      	b.n	8007602 <prvAddNewTaskToReadyList+0x4e>
 80075e6:	4b26      	ldr	r3, [pc, #152]	; (8007680 <prvAddNewTaskToReadyList+0xcc>)
 80075e8:	681b      	ldr	r3, [r3, #0]
 80075ea:	2b00      	cmp	r3, #0
 80075ec:	d109      	bne.n	8007602 <prvAddNewTaskToReadyList+0x4e>
 80075ee:	4b23      	ldr	r3, [pc, #140]	; (800767c <prvAddNewTaskToReadyList+0xc8>)
 80075f0:	681b      	ldr	r3, [r3, #0]
 80075f2:	6ada      	ldr	r2, [r3, #44]	; 0x2c
 80075f4:	687b      	ldr	r3, [r7, #4]
 80075f6:	6adb      	ldr	r3, [r3, #44]	; 0x2c
 80075f8:	429a      	cmp	r2, r3
 80075fa:	d802      	bhi.n	8007602 <prvAddNewTaskToReadyList+0x4e>
 80075fc:	4a1f      	ldr	r2, [pc, #124]	; (800767c <prvAddNewTaskToReadyList+0xc8>)
 80075fe:	687b      	ldr	r3, [r7, #4]
 8007600:	6013      	str	r3, [r2, #0]
 8007602:	4b20      	ldr	r3, [pc, #128]	; (8007684 <prvAddNewTaskToReadyList+0xd0>)
 8007604:	681b      	ldr	r3, [r3, #0]
 8007606:	3301      	adds	r3, #1
 8007608:	4a1e      	ldr	r2, [pc, #120]	; (8007684 <prvAddNewTaskToReadyList+0xd0>)
 800760a:	6013      	str	r3, [r2, #0]
 800760c:	4b1d      	ldr	r3, [pc, #116]	; (8007684 <prvAddNewTaskToReadyList+0xd0>)
 800760e:	681a      	ldr	r2, [r3, #0]
 8007610:	687b      	ldr	r3, [r7, #4]
 8007612:	645a      	str	r2, [r3, #68]	; 0x44
 8007614:	687b      	ldr	r3, [r7, #4]
 8007616:	6ada      	ldr	r2, [r3, #44]	; 0x2c
 8007618:	4b1b      	ldr	r3, [pc, #108]	; (8007688 <prvAddNewTaskToReadyList+0xd4>)
 800761a:	681b      	ldr	r3, [r3, #0]
 800761c:	429a      	cmp	r2, r3
 800761e:	d903      	bls.n	8007628 <prvAddNewTaskToReadyList+0x74>
 8007620:	687b      	ldr	r3, [r7, #4]
 8007622:	6adb      	ldr	r3, [r3, #44]	; 0x2c
 8007624:	4a18      	ldr	r2, [pc, #96]	; (8007688 <prvAddNewTaskToReadyList+0xd4>)
 8007626:	6013      	str	r3, [r2, #0]
 8007628:	687b      	ldr	r3, [r7, #4]
 800762a:	6ada      	ldr	r2, [r3, #44]	; 0x2c
 800762c:	4613      	mov	r3, r2
 800762e:	009b      	lsls	r3, r3, #2
 8007630:	4413      	add	r3, r2
 8007632:	009b      	lsls	r3, r3, #2
 8007634:	4a15      	ldr	r2, [pc, #84]	; (800768c <prvAddNewTaskToReadyList+0xd8>)
 8007636:	441a      	add	r2, r3
 8007638:	687b      	ldr	r3, [r7, #4]
 800763a:	3304      	adds	r3, #4
 800763c:	4619      	mov	r1, r3
 800763e:	4610      	mov	r0, r2
 8007640:	f7ff f92d 	bl	800689e <vListInsertEnd>
 8007644:	f001 fa08 	bl	8008a58 <vPortExitCritical>
 8007648:	4b0d      	ldr	r3, [pc, #52]	; (8007680 <prvAddNewTaskToReadyList+0xcc>)
 800764a:	681b      	ldr	r3, [r3, #0]
 800764c:	2b00      	cmp	r3, #0
 800764e:	d00e      	beq.n	800766e <prvAddNewTaskToReadyList+0xba>
 8007650:	4b0a      	ldr	r3, [pc, #40]	; (800767c <prvAddNewTaskToReadyList+0xc8>)
 8007652:	681b      	ldr	r3, [r3, #0]
 8007654:	6ada      	ldr	r2, [r3, #44]	; 0x2c
 8007656:	687b      	ldr	r3, [r7, #4]
 8007658:	6adb      	ldr	r3, [r3, #44]	; 0x2c
 800765a:	429a      	cmp	r2, r3
 800765c:	d207      	bcs.n	800766e <prvAddNewTaskToReadyList+0xba>
 800765e:	4b0c      	ldr	r3, [pc, #48]	; (8007690 <prvAddNewTaskToReadyList+0xdc>)
 8007660:	f04f 5280 	mov.w	r2, #268435456	; 0x10000000
 8007664:	601a      	str	r2, [r3, #0]
 8007666:	f3bf 8f4f 	dsb	sy
 800766a:	f3bf 8f6f 	isb	sy
 800766e:	bf00      	nop
 8007670:	3708      	adds	r7, #8
 8007672:	46bd      	mov	sp, r7
 8007674:	bd80      	pop	{r7, pc}
 8007676:	bf00      	nop
 8007678:	20000bc4 	.word	0x20000bc4
 800767c:	200006f0 	.word	0x200006f0
 8007680:	20000bd0 	.word	0x20000bd0
 8007684:	20000be0 	.word	0x20000be0
 8007688:	20000bcc 	.word	0x20000bcc
 800768c:	200006f4 	.word	0x200006f4
 8007690:	e000ed04 	.word	0xe000ed04

08007694 <vTaskDelay>:
 8007694:	b580      	push	{r7, lr}
 8007696:	b084      	sub	sp, #16
 8007698:	af00      	add	r7, sp, #0
 800769a:	6078      	str	r0, [r7, #4]
 800769c:	2300      	movs	r3, #0
 800769e:	60fb      	str	r3, [r7, #12]
 80076a0:	687b      	ldr	r3, [r7, #4]
 80076a2:	2b00      	cmp	r3, #0
 80076a4:	d016      	beq.n	80076d4 <vTaskDelay+0x40>
 80076a6:	4b13      	ldr	r3, [pc, #76]	; (80076f4 <vTaskDelay+0x60>)
 80076a8:	681b      	ldr	r3, [r3, #0]
 80076aa:	2b00      	cmp	r3, #0
 80076ac:	d009      	beq.n	80076c2 <vTaskDelay+0x2e>
 80076ae:	f04f 0350 	mov.w	r3, #80	; 0x50
 80076b2:	f383 8811 	msr	BASEPRI, r3
 80076b6:	f3bf 8f6f 	isb	sy
 80076ba:	f3bf 8f4f 	dsb	sy
 80076be:	60bb      	str	r3, [r7, #8]
 80076c0:	e7fe      	b.n	80076c0 <vTaskDelay+0x2c>
 80076c2:	f000 f87f 	bl	80077c4 <vTaskSuspendAll>
 80076c6:	2100      	movs	r1, #0
 80076c8:	6878      	ldr	r0, [r7, #4]
 80076ca:	f000 fcd7 	bl	800807c <prvAddCurrentTaskToDelayedList>
 80076ce:	f000 f887 	bl	80077e0 <xTaskResumeAll>
 80076d2:	60f8      	str	r0, [r7, #12]
 80076d4:	68fb      	ldr	r3, [r7, #12]
 80076d6:	2b00      	cmp	r3, #0
 80076d8:	d107      	bne.n	80076ea <vTaskDelay+0x56>
 80076da:	4b07      	ldr	r3, [pc, #28]	; (80076f8 <vTaskDelay+0x64>)
 80076dc:	f04f 5280 	mov.w	r2, #268435456	; 0x10000000
 80076e0:	601a      	str	r2, [r3, #0]
 80076e2:	f3bf 8f4f 	dsb	sy
 80076e6:	f3bf 8f6f 	isb	sy
 80076ea:	bf00      	nop
 80076ec:	3710      	adds	r7, #16
 80076ee:	46bd      	mov	sp, r7
 80076f0:	bd80      	pop	{r7, pc}
 80076f2:	bf00      	nop
 80076f4:	20000bec 	.word	0x20000bec
 80076f8:	e000ed04 	.word	0xe000ed04

080076fc <vTaskStartScheduler>:
 80076fc:	b580      	push	{r7, lr}
 80076fe:	b08a      	sub	sp, #40	; 0x28
 8007700:	af04      	add	r7, sp, #16
 8007702:	2300      	movs	r3, #0
 8007704:	60bb      	str	r3, [r7, #8]
 8007706:	2300      	movs	r3, #0
 8007708:	607b      	str	r3, [r7, #4]
 800770a:	463a      	mov	r2, r7
 800770c:	1d39      	adds	r1, r7, #4
 800770e:	f107 0308 	add.w	r3, r7, #8
 8007712:	4618      	mov	r0, r3
 8007714:	f7ff f862 	bl	80067dc <vApplicationGetIdleTaskMemory>
 8007718:	6839      	ldr	r1, [r7, #0]
 800771a:	687b      	ldr	r3, [r7, #4]
 800771c:	68ba      	ldr	r2, [r7, #8]
 800771e:	9202      	str	r2, [sp, #8]
 8007720:	9301      	str	r3, [sp, #4]
 8007722:	2300      	movs	r3, #0
 8007724:	9300      	str	r3, [sp, #0]
 8007726:	2300      	movs	r3, #0
 8007728:	460a      	mov	r2, r1
 800772a:	4920      	ldr	r1, [pc, #128]	; (80077ac <vTaskStartScheduler+0xb0>)
 800772c:	4820      	ldr	r0, [pc, #128]	; (80077b0 <vTaskStartScheduler+0xb4>)
 800772e:	f7ff fe11 	bl	8007354 <xTaskCreateStatic>
 8007732:	4602      	mov	r2, r0
 8007734:	4b1f      	ldr	r3, [pc, #124]	; (80077b4 <vTaskStartScheduler+0xb8>)
 8007736:	601a      	str	r2, [r3, #0]
 8007738:	4b1e      	ldr	r3, [pc, #120]	; (80077b4 <vTaskStartScheduler+0xb8>)
 800773a:	681b      	ldr	r3, [r3, #0]
 800773c:	2b00      	cmp	r3, #0
 800773e:	d002      	beq.n	8007746 <vTaskStartScheduler+0x4a>
 8007740:	2301      	movs	r3, #1
 8007742:	617b      	str	r3, [r7, #20]
 8007744:	e001      	b.n	800774a <vTaskStartScheduler+0x4e>
 8007746:	2300      	movs	r3, #0
 8007748:	617b      	str	r3, [r7, #20]
 800774a:	697b      	ldr	r3, [r7, #20]
 800774c:	2b01      	cmp	r3, #1
 800774e:	d102      	bne.n	8007756 <vTaskStartScheduler+0x5a>
 8007750:	f000 fce8 	bl	8008124 <xTimerCreateTimerTask>
 8007754:	6178      	str	r0, [r7, #20]
 8007756:	697b      	ldr	r3, [r7, #20]
 8007758:	2b01      	cmp	r3, #1
 800775a:	d115      	bne.n	8007788 <vTaskStartScheduler+0x8c>
 800775c:	f04f 0350 	mov.w	r3, #80	; 0x50
 8007760:	f383 8811 	msr	BASEPRI, r3
 8007764:	f3bf 8f6f 	isb	sy
 8007768:	f3bf 8f4f 	dsb	sy
 800776c:	613b      	str	r3, [r7, #16]
 800776e:	4b12      	ldr	r3, [pc, #72]	; (80077b8 <vTaskStartScheduler+0xbc>)
 8007770:	f04f 32ff 	mov.w	r2, #4294967295
 8007774:	601a      	str	r2, [r3, #0]
 8007776:	4b11      	ldr	r3, [pc, #68]	; (80077bc <vTaskStartScheduler+0xc0>)
 8007778:	2201      	movs	r2, #1
 800777a:	601a      	str	r2, [r3, #0]
 800777c:	4b10      	ldr	r3, [pc, #64]	; (80077c0 <vTaskStartScheduler+0xc4>)
 800777e:	2200      	movs	r2, #0
 8007780:	601a      	str	r2, [r3, #0]
 8007782:	f001 f89d 	bl	80088c0 <xPortStartScheduler>
 8007786:	e00d      	b.n	80077a4 <vTaskStartScheduler+0xa8>
 8007788:	697b      	ldr	r3, [r7, #20]
 800778a:	f1b3 3fff 	cmp.w	r3, #4294967295
 800778e:	d109      	bne.n	80077a4 <vTaskStartScheduler+0xa8>
 8007790:	f04f 0350 	mov.w	r3, #80	; 0x50
 8007794:	f383 8811 	msr	BASEPRI, r3
 8007798:	f3bf 8f6f 	isb	sy
 800779c:	f3bf 8f4f 	dsb	sy
 80077a0:	60fb      	str	r3, [r7, #12]
 80077a2:	e7fe      	b.n	80077a2 <vTaskStartScheduler+0xa6>
 80077a4:	bf00      	nop
 80077a6:	3718      	adds	r7, #24
 80077a8:	46bd      	mov	sp, r7
 80077aa:	bd80      	pop	{r7, pc}
 80077ac:	08009100 	.word	0x08009100
 80077b0:	08007dc5 	.word	0x08007dc5
 80077b4:	20000be8 	.word	0x20000be8
 80077b8:	20000be4 	.word	0x20000be4
 80077bc:	20000bd0 	.word	0x20000bd0
 80077c0:	20000bc8 	.word	0x20000bc8

080077c4 <vTaskSuspendAll>:
 80077c4:	b480      	push	{r7}
 80077c6:	af00      	add	r7, sp, #0
 80077c8:	4b04      	ldr	r3, [pc, #16]	; (80077dc <vTaskSuspendAll+0x18>)
 80077ca:	681b      	ldr	r3, [r3, #0]
 80077cc:	3301      	adds	r3, #1
 80077ce:	4a03      	ldr	r2, [pc, #12]	; (80077dc <vTaskSuspendAll+0x18>)
 80077d0:	6013      	str	r3, [r2, #0]
 80077d2:	bf00      	nop
 80077d4:	46bd      	mov	sp, r7
 80077d6:	f85d 7b04 	ldr.w	r7, [sp], #4
 80077da:	4770      	bx	lr
 80077dc:	20000bec 	.word	0x20000bec

080077e0 <xTaskResumeAll>:
 80077e0:	b580      	push	{r7, lr}
 80077e2:	b084      	sub	sp, #16
 80077e4:	af00      	add	r7, sp, #0
 80077e6:	2300      	movs	r3, #0
 80077e8:	60fb      	str	r3, [r7, #12]
 80077ea:	2300      	movs	r3, #0
 80077ec:	60bb      	str	r3, [r7, #8]
 80077ee:	4b41      	ldr	r3, [pc, #260]	; (80078f4 <xTaskResumeAll+0x114>)
 80077f0:	681b      	ldr	r3, [r3, #0]
 80077f2:	2b00      	cmp	r3, #0
 80077f4:	d109      	bne.n	800780a <xTaskResumeAll+0x2a>
 80077f6:	f04f 0350 	mov.w	r3, #80	; 0x50
 80077fa:	f383 8811 	msr	BASEPRI, r3
 80077fe:	f3bf 8f6f 	isb	sy
 8007802:	f3bf 8f4f 	dsb	sy
 8007806:	603b      	str	r3, [r7, #0]
 8007808:	e7fe      	b.n	8007808 <xTaskResumeAll+0x28>
 800780a:	f001 f8f7 	bl	80089fc <vPortEnterCritical>
 800780e:	4b39      	ldr	r3, [pc, #228]	; (80078f4 <xTaskResumeAll+0x114>)
 8007810:	681b      	ldr	r3, [r3, #0]
 8007812:	3b01      	subs	r3, #1
 8007814:	4a37      	ldr	r2, [pc, #220]	; (80078f4 <xTaskResumeAll+0x114>)
 8007816:	6013      	str	r3, [r2, #0]
 8007818:	4b36      	ldr	r3, [pc, #216]	; (80078f4 <xTaskResumeAll+0x114>)
 800781a:	681b      	ldr	r3, [r3, #0]
 800781c:	2b00      	cmp	r3, #0
 800781e:	d162      	bne.n	80078e6 <xTaskResumeAll+0x106>
 8007820:	4b35      	ldr	r3, [pc, #212]	; (80078f8 <xTaskResumeAll+0x118>)
 8007822:	681b      	ldr	r3, [r3, #0]
 8007824:	2b00      	cmp	r3, #0
 8007826:	d05e      	beq.n	80078e6 <xTaskResumeAll+0x106>
 8007828:	e02f      	b.n	800788a <xTaskResumeAll+0xaa>
 800782a:	4b34      	ldr	r3, [pc, #208]	; (80078fc <xTaskResumeAll+0x11c>)
 800782c:	68db      	ldr	r3, [r3, #12]
 800782e:	68db      	ldr	r3, [r3, #12]
 8007830:	60fb      	str	r3, [r7, #12]
 8007832:	68fb      	ldr	r3, [r7, #12]
 8007834:	3318      	adds	r3, #24
 8007836:	4618      	mov	r0, r3
 8007838:	f7ff f88e 	bl	8006958 <uxListRemove>
 800783c:	68fb      	ldr	r3, [r7, #12]
 800783e:	3304      	adds	r3, #4
 8007840:	4618      	mov	r0, r3
 8007842:	f7ff f889 	bl	8006958 <uxListRemove>
 8007846:	68fb      	ldr	r3, [r7, #12]
 8007848:	6ada      	ldr	r2, [r3, #44]	; 0x2c
 800784a:	4b2d      	ldr	r3, [pc, #180]	; (8007900 <xTaskResumeAll+0x120>)
 800784c:	681b      	ldr	r3, [r3, #0]
 800784e:	429a      	cmp	r2, r3
 8007850:	d903      	bls.n	800785a <xTaskResumeAll+0x7a>
 8007852:	68fb      	ldr	r3, [r7, #12]
 8007854:	6adb      	ldr	r3, [r3, #44]	; 0x2c
 8007856:	4a2a      	ldr	r2, [pc, #168]	; (8007900 <xTaskResumeAll+0x120>)
 8007858:	6013      	str	r3, [r2, #0]
 800785a:	68fb      	ldr	r3, [r7, #12]
 800785c:	6ada      	ldr	r2, [r3, #44]	; 0x2c
 800785e:	4613      	mov	r3, r2
 8007860:	009b      	lsls	r3, r3, #2
 8007862:	4413      	add	r3, r2
 8007864:	009b      	lsls	r3, r3, #2
 8007866:	4a27      	ldr	r2, [pc, #156]	; (8007904 <xTaskResumeAll+0x124>)
 8007868:	441a      	add	r2, r3
 800786a:	68fb      	ldr	r3, [r7, #12]
 800786c:	3304      	adds	r3, #4
 800786e:	4619      	mov	r1, r3
 8007870:	4610      	mov	r0, r2
 8007872:	f7ff f814 	bl	800689e <vListInsertEnd>
 8007876:	68fb      	ldr	r3, [r7, #12]
 8007878:	6ada      	ldr	r2, [r3, #44]	; 0x2c
 800787a:	4b23      	ldr	r3, [pc, #140]	; (8007908 <xTaskResumeAll+0x128>)
 800787c:	681b      	ldr	r3, [r3, #0]
 800787e:	6adb      	ldr	r3, [r3, #44]	; 0x2c
 8007880:	429a      	cmp	r2, r3
 8007882:	d302      	bcc.n	800788a <xTaskResumeAll+0xaa>
 8007884:	4b21      	ldr	r3, [pc, #132]	; (800790c <xTaskResumeAll+0x12c>)
 8007886:	2201      	movs	r2, #1
 8007888:	601a      	str	r2, [r3, #0]
 800788a:	4b1c      	ldr	r3, [pc, #112]	; (80078fc <xTaskResumeAll+0x11c>)
 800788c:	681b      	ldr	r3, [r3, #0]
 800788e:	2b00      	cmp	r3, #0
 8007890:	d1cb      	bne.n	800782a <xTaskResumeAll+0x4a>
 8007892:	68fb      	ldr	r3, [r7, #12]
 8007894:	2b00      	cmp	r3, #0
 8007896:	d001      	beq.n	800789c <xTaskResumeAll+0xbc>
 8007898:	f000 fb46 	bl	8007f28 <prvResetNextTaskUnblockTime>
 800789c:	4b1c      	ldr	r3, [pc, #112]	; (8007910 <xTaskResumeAll+0x130>)
 800789e:	681b      	ldr	r3, [r3, #0]
 80078a0:	607b      	str	r3, [r7, #4]
 80078a2:	687b      	ldr	r3, [r7, #4]
 80078a4:	2b00      	cmp	r3, #0
 80078a6:	d010      	beq.n	80078ca <xTaskResumeAll+0xea>
 80078a8:	f000 f846 	bl	8007938 <xTaskIncrementTick>
 80078ac:	4603      	mov	r3, r0
 80078ae:	2b00      	cmp	r3, #0
 80078b0:	d002      	beq.n	80078b8 <xTaskResumeAll+0xd8>
 80078b2:	4b16      	ldr	r3, [pc, #88]	; (800790c <xTaskResumeAll+0x12c>)
 80078b4:	2201      	movs	r2, #1
 80078b6:	601a      	str	r2, [r3, #0]
 80078b8:	687b      	ldr	r3, [r7, #4]
 80078ba:	3b01      	subs	r3, #1
 80078bc:	607b      	str	r3, [r7, #4]
 80078be:	687b      	ldr	r3, [r7, #4]
 80078c0:	2b00      	cmp	r3, #0
 80078c2:	d1f1      	bne.n	80078a8 <xTaskResumeAll+0xc8>
 80078c4:	4b12      	ldr	r3, [pc, #72]	; (8007910 <xTaskResumeAll+0x130>)
 80078c6:	2200      	movs	r2, #0
 80078c8:	601a      	str	r2, [r3, #0]
 80078ca:	4b10      	ldr	r3, [pc, #64]	; (800790c <xTaskResumeAll+0x12c>)
 80078cc:	681b      	ldr	r3, [r3, #0]
 80078ce:	2b00      	cmp	r3, #0
 80078d0:	d009      	beq.n	80078e6 <xTaskResumeAll+0x106>
 80078d2:	2301      	movs	r3, #1
 80078d4:	60bb      	str	r3, [r7, #8]
 80078d6:	4b0f      	ldr	r3, [pc, #60]	; (8007914 <xTaskResumeAll+0x134>)
 80078d8:	f04f 5280 	mov.w	r2, #268435456	; 0x10000000
 80078dc:	601a      	str	r2, [r3, #0]
 80078de:	f3bf 8f4f 	dsb	sy
 80078e2:	f3bf 8f6f 	isb	sy
 80078e6:	f001 f8b7 	bl	8008a58 <vPortExitCritical>
 80078ea:	68bb      	ldr	r3, [r7, #8]
 80078ec:	4618      	mov	r0, r3
 80078ee:	3710      	adds	r7, #16
 80078f0:	46bd      	mov	sp, r7
 80078f2:	bd80      	pop	{r7, pc}
 80078f4:	20000bec 	.word	0x20000bec
 80078f8:	20000bc4 	.word	0x20000bc4
 80078fc:	20000b84 	.word	0x20000b84
 8007900:	20000bcc 	.word	0x20000bcc
 8007904:	200006f4 	.word	0x200006f4
 8007908:	200006f0 	.word	0x200006f0
 800790c:	20000bd8 	.word	0x20000bd8
 8007910:	20000bd4 	.word	0x20000bd4
 8007914:	e000ed04 	.word	0xe000ed04

08007918 <xTaskGetTickCount>:
 8007918:	b480      	push	{r7}
 800791a:	b083      	sub	sp, #12
 800791c:	af00      	add	r7, sp, #0
 800791e:	4b05      	ldr	r3, [pc, #20]	; (8007934 <xTaskGetTickCount+0x1c>)
 8007920:	681b      	ldr	r3, [r3, #0]
 8007922:	607b      	str	r3, [r7, #4]
 8007924:	687b      	ldr	r3, [r7, #4]
 8007926:	4618      	mov	r0, r3
 8007928:	370c      	adds	r7, #12
 800792a:	46bd      	mov	sp, r7
 800792c:	f85d 7b04 	ldr.w	r7, [sp], #4
 8007930:	4770      	bx	lr
 8007932:	bf00      	nop
 8007934:	20000bc8 	.word	0x20000bc8

08007938 <xTaskIncrementTick>:
 8007938:	b580      	push	{r7, lr}
 800793a:	b086      	sub	sp, #24
 800793c:	af00      	add	r7, sp, #0
 800793e:	2300      	movs	r3, #0
 8007940:	617b      	str	r3, [r7, #20]
 8007942:	4b4e      	ldr	r3, [pc, #312]	; (8007a7c <xTaskIncrementTick+0x144>)
 8007944:	681b      	ldr	r3, [r3, #0]
 8007946:	2b00      	cmp	r3, #0
 8007948:	f040 8088 	bne.w	8007a5c <xTaskIncrementTick+0x124>
 800794c:	4b4c      	ldr	r3, [pc, #304]	; (8007a80 <xTaskIncrementTick+0x148>)
 800794e:	681b      	ldr	r3, [r3, #0]
 8007950:	3301      	adds	r3, #1
 8007952:	613b      	str	r3, [r7, #16]
 8007954:	4a4a      	ldr	r2, [pc, #296]	; (8007a80 <xTaskIncrementTick+0x148>)
 8007956:	693b      	ldr	r3, [r7, #16]
 8007958:	6013      	str	r3, [r2, #0]
 800795a:	693b      	ldr	r3, [r7, #16]
 800795c:	2b00      	cmp	r3, #0
 800795e:	d11f      	bne.n	80079a0 <xTaskIncrementTick+0x68>
 8007960:	4b48      	ldr	r3, [pc, #288]	; (8007a84 <xTaskIncrementTick+0x14c>)
 8007962:	681b      	ldr	r3, [r3, #0]
 8007964:	681b      	ldr	r3, [r3, #0]
 8007966:	2b00      	cmp	r3, #0
 8007968:	d009      	beq.n	800797e <xTaskIncrementTick+0x46>
 800796a:	f04f 0350 	mov.w	r3, #80	; 0x50
 800796e:	f383 8811 	msr	BASEPRI, r3
 8007972:	f3bf 8f6f 	isb	sy
 8007976:	f3bf 8f4f 	dsb	sy
 800797a:	603b      	str	r3, [r7, #0]
 800797c:	e7fe      	b.n	800797c <xTaskIncrementTick+0x44>
 800797e:	4b41      	ldr	r3, [pc, #260]	; (8007a84 <xTaskIncrementTick+0x14c>)
 8007980:	681b      	ldr	r3, [r3, #0]
 8007982:	60fb      	str	r3, [r7, #12]
 8007984:	4b40      	ldr	r3, [pc, #256]	; (8007a88 <xTaskIncrementTick+0x150>)
 8007986:	681b      	ldr	r3, [r3, #0]
 8007988:	4a3e      	ldr	r2, [pc, #248]	; (8007a84 <xTaskIncrementTick+0x14c>)
 800798a:	6013      	str	r3, [r2, #0]
 800798c:	4a3e      	ldr	r2, [pc, #248]	; (8007a88 <xTaskIncrementTick+0x150>)
 800798e:	68fb      	ldr	r3, [r7, #12]
 8007990:	6013      	str	r3, [r2, #0]
 8007992:	4b3e      	ldr	r3, [pc, #248]	; (8007a8c <xTaskIncrementTick+0x154>)
 8007994:	681b      	ldr	r3, [r3, #0]
 8007996:	3301      	adds	r3, #1
 8007998:	4a3c      	ldr	r2, [pc, #240]	; (8007a8c <xTaskIncrementTick+0x154>)
 800799a:	6013      	str	r3, [r2, #0]
 800799c:	f000 fac4 	bl	8007f28 <prvResetNextTaskUnblockTime>
 80079a0:	4b3b      	ldr	r3, [pc, #236]	; (8007a90 <xTaskIncrementTick+0x158>)
 80079a2:	681b      	ldr	r3, [r3, #0]
 80079a4:	693a      	ldr	r2, [r7, #16]
 80079a6:	429a      	cmp	r2, r3
 80079a8:	d349      	bcc.n	8007a3e <xTaskIncrementTick+0x106>
 80079aa:	4b36      	ldr	r3, [pc, #216]	; (8007a84 <xTaskIncrementTick+0x14c>)
 80079ac:	681b      	ldr	r3, [r3, #0]
 80079ae:	681b      	ldr	r3, [r3, #0]
 80079b0:	2b00      	cmp	r3, #0
 80079b2:	d104      	bne.n	80079be <xTaskIncrementTick+0x86>
 80079b4:	4b36      	ldr	r3, [pc, #216]	; (8007a90 <xTaskIncrementTick+0x158>)
 80079b6:	f04f 32ff 	mov.w	r2, #4294967295
 80079ba:	601a      	str	r2, [r3, #0]
 80079bc:	e03f      	b.n	8007a3e <xTaskIncrementTick+0x106>
 80079be:	4b31      	ldr	r3, [pc, #196]	; (8007a84 <xTaskIncrementTick+0x14c>)
 80079c0:	681b      	ldr	r3, [r3, #0]
 80079c2:	68db      	ldr	r3, [r3, #12]
 80079c4:	68db      	ldr	r3, [r3, #12]
 80079c6:	60bb      	str	r3, [r7, #8]
 80079c8:	68bb      	ldr	r3, [r7, #8]
 80079ca:	685b      	ldr	r3, [r3, #4]
 80079cc:	607b      	str	r3, [r7, #4]
 80079ce:	693a      	ldr	r2, [r7, #16]
 80079d0:	687b      	ldr	r3, [r7, #4]
 80079d2:	429a      	cmp	r2, r3
 80079d4:	d203      	bcs.n	80079de <xTaskIncrementTick+0xa6>
 80079d6:	4a2e      	ldr	r2, [pc, #184]	; (8007a90 <xTaskIncrementTick+0x158>)
 80079d8:	687b      	ldr	r3, [r7, #4]
 80079da:	6013      	str	r3, [r2, #0]
 80079dc:	e02f      	b.n	8007a3e <xTaskIncrementTick+0x106>
 80079de:	68bb      	ldr	r3, [r7, #8]
 80079e0:	3304      	adds	r3, #4
 80079e2:	4618      	mov	r0, r3
 80079e4:	f7fe ffb8 	bl	8006958 <uxListRemove>
 80079e8:	68bb      	ldr	r3, [r7, #8]
 80079ea:	6a9b      	ldr	r3, [r3, #40]	; 0x28
 80079ec:	2b00      	cmp	r3, #0
 80079ee:	d004      	beq.n	80079fa <xTaskIncrementTick+0xc2>
 80079f0:	68bb      	ldr	r3, [r7, #8]
 80079f2:	3318      	adds	r3, #24
 80079f4:	4618      	mov	r0, r3
 80079f6:	f7fe ffaf 	bl	8006958 <uxListRemove>
 80079fa:	68bb      	ldr	r3, [r7, #8]
 80079fc:	6ada      	ldr	r2, [r3, #44]	; 0x2c
 80079fe:	4b25      	ldr	r3, [pc, #148]	; (8007a94 <xTaskIncrementTick+0x15c>)
 8007a00:	681b      	ldr	r3, [r3, #0]
 8007a02:	429a      	cmp	r2, r3
 8007a04:	d903      	bls.n	8007a0e <xTaskIncrementTick+0xd6>
 8007a06:	68bb      	ldr	r3, [r7, #8]
 8007a08:	6adb      	ldr	r3, [r3, #44]	; 0x2c
 8007a0a:	4a22      	ldr	r2, [pc, #136]	; (8007a94 <xTaskIncrementTick+0x15c>)
 8007a0c:	6013      	str	r3, [r2, #0]
 8007a0e:	68bb      	ldr	r3, [r7, #8]
 8007a10:	6ada      	ldr	r2, [r3, #44]	; 0x2c
 8007a12:	4613      	mov	r3, r2
 8007a14:	009b      	lsls	r3, r3, #2
 8007a16:	4413      	add	r3, r2
 8007a18:	009b      	lsls	r3, r3, #2
 8007a1a:	4a1f      	ldr	r2, [pc, #124]	; (8007a98 <xTaskIncrementTick+0x160>)
 8007a1c:	441a      	add	r2, r3
 8007a1e:	68bb      	ldr	r3, [r7, #8]
 8007a20:	3304      	adds	r3, #4
 8007a22:	4619      	mov	r1, r3
 8007a24:	4610      	mov	r0, r2
 8007a26:	f7fe ff3a 	bl	800689e <vListInsertEnd>
 8007a2a:	68bb      	ldr	r3, [r7, #8]
 8007a2c:	6ada      	ldr	r2, [r3, #44]	; 0x2c
 8007a2e:	4b1b      	ldr	r3, [pc, #108]	; (8007a9c <xTaskIncrementTick+0x164>)
 8007a30:	681b      	ldr	r3, [r3, #0]
 8007a32:	6adb      	ldr	r3, [r3, #44]	; 0x2c
 8007a34:	429a      	cmp	r2, r3
 8007a36:	d3b8      	bcc.n	80079aa <xTaskIncrementTick+0x72>
 8007a38:	2301      	movs	r3, #1
 8007a3a:	617b      	str	r3, [r7, #20]
 8007a3c:	e7b5      	b.n	80079aa <xTaskIncrementTick+0x72>
 8007a3e:	4b17      	ldr	r3, [pc, #92]	; (8007a9c <xTaskIncrementTick+0x164>)
 8007a40:	681b      	ldr	r3, [r3, #0]
 8007a42:	6ada      	ldr	r2, [r3, #44]	; 0x2c
 8007a44:	4914      	ldr	r1, [pc, #80]	; (8007a98 <xTaskIncrementTick+0x160>)
 8007a46:	4613      	mov	r3, r2
 8007a48:	009b      	lsls	r3, r3, #2
 8007a4a:	4413      	add	r3, r2
 8007a4c:	009b      	lsls	r3, r3, #2
 8007a4e:	440b      	add	r3, r1
 8007a50:	681b      	ldr	r3, [r3, #0]
 8007a52:	2b01      	cmp	r3, #1
 8007a54:	d907      	bls.n	8007a66 <xTaskIncrementTick+0x12e>
 8007a56:	2301      	movs	r3, #1
 8007a58:	617b      	str	r3, [r7, #20]
 8007a5a:	e004      	b.n	8007a66 <xTaskIncrementTick+0x12e>
 8007a5c:	4b10      	ldr	r3, [pc, #64]	; (8007aa0 <xTaskIncrementTick+0x168>)
 8007a5e:	681b      	ldr	r3, [r3, #0]
 8007a60:	3301      	adds	r3, #1
 8007a62:	4a0f      	ldr	r2, [pc, #60]	; (8007aa0 <xTaskIncrementTick+0x168>)
 8007a64:	6013      	str	r3, [r2, #0]
 8007a66:	4b0f      	ldr	r3, [pc, #60]	; (8007aa4 <xTaskIncrementTick+0x16c>)
 8007a68:	681b      	ldr	r3, [r3, #0]
 8007a6a:	2b00      	cmp	r3, #0
 8007a6c:	d001      	beq.n	8007a72 <xTaskIncrementTick+0x13a>
 8007a6e:	2301      	movs	r3, #1
 8007a70:	617b      	str	r3, [r7, #20]
 8007a72:	697b      	ldr	r3, [r7, #20]
 8007a74:	4618      	mov	r0, r3
 8007a76:	3718      	adds	r7, #24
 8007a78:	46bd      	mov	sp, r7
 8007a7a:	bd80      	pop	{r7, pc}
 8007a7c:	20000bec 	.word	0x20000bec
 8007a80:	20000bc8 	.word	0x20000bc8
 8007a84:	20000b7c 	.word	0x20000b7c
 8007a88:	20000b80 	.word	0x20000b80
 8007a8c:	20000bdc 	.word	0x20000bdc
 8007a90:	20000be4 	.word	0x20000be4
 8007a94:	20000bcc 	.word	0x20000bcc
 8007a98:	200006f4 	.word	0x200006f4
 8007a9c:	200006f0 	.word	0x200006f0
 8007aa0:	20000bd4 	.word	0x20000bd4
 8007aa4:	20000bd8 	.word	0x20000bd8

08007aa8 <vTaskSwitchContext>:
 8007aa8:	b480      	push	{r7}
 8007aaa:	b085      	sub	sp, #20
 8007aac:	af00      	add	r7, sp, #0
 8007aae:	4b27      	ldr	r3, [pc, #156]	; (8007b4c <vTaskSwitchContext+0xa4>)
 8007ab0:	681b      	ldr	r3, [r3, #0]
 8007ab2:	2b00      	cmp	r3, #0
 8007ab4:	d003      	beq.n	8007abe <vTaskSwitchContext+0x16>
 8007ab6:	4b26      	ldr	r3, [pc, #152]	; (8007b50 <vTaskSwitchContext+0xa8>)
 8007ab8:	2201      	movs	r2, #1
 8007aba:	601a      	str	r2, [r3, #0]
 8007abc:	e040      	b.n	8007b40 <vTaskSwitchContext+0x98>
 8007abe:	4b24      	ldr	r3, [pc, #144]	; (8007b50 <vTaskSwitchContext+0xa8>)
 8007ac0:	2200      	movs	r2, #0
 8007ac2:	601a      	str	r2, [r3, #0]
 8007ac4:	4b23      	ldr	r3, [pc, #140]	; (8007b54 <vTaskSwitchContext+0xac>)
 8007ac6:	681b      	ldr	r3, [r3, #0]
 8007ac8:	60fb      	str	r3, [r7, #12]
 8007aca:	e00f      	b.n	8007aec <vTaskSwitchContext+0x44>
 8007acc:	68fb      	ldr	r3, [r7, #12]
 8007ace:	2b00      	cmp	r3, #0
 8007ad0:	d109      	bne.n	8007ae6 <vTaskSwitchContext+0x3e>
 8007ad2:	f04f 0350 	mov.w	r3, #80	; 0x50
 8007ad6:	f383 8811 	msr	BASEPRI, r3
 8007ada:	f3bf 8f6f 	isb	sy
 8007ade:	f3bf 8f4f 	dsb	sy
 8007ae2:	607b      	str	r3, [r7, #4]
 8007ae4:	e7fe      	b.n	8007ae4 <vTaskSwitchContext+0x3c>
 8007ae6:	68fb      	ldr	r3, [r7, #12]
 8007ae8:	3b01      	subs	r3, #1
 8007aea:	60fb      	str	r3, [r7, #12]
 8007aec:	491a      	ldr	r1, [pc, #104]	; (8007b58 <vTaskSwitchContext+0xb0>)
 8007aee:	68fa      	ldr	r2, [r7, #12]
 8007af0:	4613      	mov	r3, r2
 8007af2:	009b      	lsls	r3, r3, #2
 8007af4:	4413      	add	r3, r2
 8007af6:	009b      	lsls	r3, r3, #2
 8007af8:	440b      	add	r3, r1
 8007afa:	681b      	ldr	r3, [r3, #0]
 8007afc:	2b00      	cmp	r3, #0
 8007afe:	d0e5      	beq.n	8007acc <vTaskSwitchContext+0x24>
 8007b00:	68fa      	ldr	r2, [r7, #12]
 8007b02:	4613      	mov	r3, r2
 8007b04:	009b      	lsls	r3, r3, #2
 8007b06:	4413      	add	r3, r2
 8007b08:	009b      	lsls	r3, r3, #2
 8007b0a:	4a13      	ldr	r2, [pc, #76]	; (8007b58 <vTaskSwitchContext+0xb0>)
 8007b0c:	4413      	add	r3, r2
 8007b0e:	60bb      	str	r3, [r7, #8]
 8007b10:	68bb      	ldr	r3, [r7, #8]
 8007b12:	685b      	ldr	r3, [r3, #4]
 8007b14:	685a      	ldr	r2, [r3, #4]
 8007b16:	68bb      	ldr	r3, [r7, #8]
 8007b18:	605a      	str	r2, [r3, #4]
 8007b1a:	68bb      	ldr	r3, [r7, #8]
 8007b1c:	685a      	ldr	r2, [r3, #4]
 8007b1e:	68bb      	ldr	r3, [r7, #8]
 8007b20:	3308      	adds	r3, #8
 8007b22:	429a      	cmp	r2, r3
 8007b24:	d104      	bne.n	8007b30 <vTaskSwitchContext+0x88>
 8007b26:	68bb      	ldr	r3, [r7, #8]
 8007b28:	685b      	ldr	r3, [r3, #4]
 8007b2a:	685a      	ldr	r2, [r3, #4]
 8007b2c:	68bb      	ldr	r3, [r7, #8]
 8007b2e:	605a      	str	r2, [r3, #4]
 8007b30:	68bb      	ldr	r3, [r7, #8]
 8007b32:	685b      	ldr	r3, [r3, #4]
 8007b34:	68db      	ldr	r3, [r3, #12]
 8007b36:	4a09      	ldr	r2, [pc, #36]	; (8007b5c <vTaskSwitchContext+0xb4>)
 8007b38:	6013      	str	r3, [r2, #0]
 8007b3a:	4a06      	ldr	r2, [pc, #24]	; (8007b54 <vTaskSwitchContext+0xac>)
 8007b3c:	68fb      	ldr	r3, [r7, #12]
 8007b3e:	6013      	str	r3, [r2, #0]
 8007b40:	bf00      	nop
 8007b42:	3714      	adds	r7, #20
 8007b44:	46bd      	mov	sp, r7
 8007b46:	f85d 7b04 	ldr.w	r7, [sp], #4
 8007b4a:	4770      	bx	lr
 8007b4c:	20000bec 	.word	0x20000bec
 8007b50:	20000bd8 	.word	0x20000bd8
 8007b54:	20000bcc 	.word	0x20000bcc
 8007b58:	200006f4 	.word	0x200006f4
 8007b5c:	200006f0 	.word	0x200006f0

08007b60 <vTaskPlaceOnEventList>:
 8007b60:	b580      	push	{r7, lr}
 8007b62:	b084      	sub	sp, #16
 8007b64:	af00      	add	r7, sp, #0
 8007b66:	6078      	str	r0, [r7, #4]
 8007b68:	6039      	str	r1, [r7, #0]
 8007b6a:	687b      	ldr	r3, [r7, #4]
 8007b6c:	2b00      	cmp	r3, #0
 8007b6e:	d109      	bne.n	8007b84 <vTaskPlaceOnEventList+0x24>
 8007b70:	f04f 0350 	mov.w	r3, #80	; 0x50
 8007b74:	f383 8811 	msr	BASEPRI, r3
 8007b78:	f3bf 8f6f 	isb	sy
 8007b7c:	f3bf 8f4f 	dsb	sy
 8007b80:	60fb      	str	r3, [r7, #12]
 8007b82:	e7fe      	b.n	8007b82 <vTaskPlaceOnEventList+0x22>
 8007b84:	4b07      	ldr	r3, [pc, #28]	; (8007ba4 <vTaskPlaceOnEventList+0x44>)
 8007b86:	681b      	ldr	r3, [r3, #0]
 8007b88:	3318      	adds	r3, #24
 8007b8a:	4619      	mov	r1, r3
 8007b8c:	6878      	ldr	r0, [r7, #4]
 8007b8e:	f7fe feaa 	bl	80068e6 <vListInsert>
 8007b92:	2101      	movs	r1, #1
 8007b94:	6838      	ldr	r0, [r7, #0]
 8007b96:	f000 fa71 	bl	800807c <prvAddCurrentTaskToDelayedList>
 8007b9a:	bf00      	nop
 8007b9c:	3710      	adds	r7, #16
 8007b9e:	46bd      	mov	sp, r7
 8007ba0:	bd80      	pop	{r7, pc}
 8007ba2:	bf00      	nop
 8007ba4:	200006f0 	.word	0x200006f0

08007ba8 <vTaskPlaceOnEventListRestricted>:
 8007ba8:	b580      	push	{r7, lr}
 8007baa:	b086      	sub	sp, #24
 8007bac:	af00      	add	r7, sp, #0
 8007bae:	60f8      	str	r0, [r7, #12]
 8007bb0:	60b9      	str	r1, [r7, #8]
 8007bb2:	607a      	str	r2, [r7, #4]
 8007bb4:	68fb      	ldr	r3, [r7, #12]
 8007bb6:	2b00      	cmp	r3, #0
 8007bb8:	d109      	bne.n	8007bce <vTaskPlaceOnEventListRestricted+0x26>
 8007bba:	f04f 0350 	mov.w	r3, #80	; 0x50
 8007bbe:	f383 8811 	msr	BASEPRI, r3
 8007bc2:	f3bf 8f6f 	isb	sy
 8007bc6:	f3bf 8f4f 	dsb	sy
 8007bca:	617b      	str	r3, [r7, #20]
 8007bcc:	e7fe      	b.n	8007bcc <vTaskPlaceOnEventListRestricted+0x24>
 8007bce:	4b0a      	ldr	r3, [pc, #40]	; (8007bf8 <vTaskPlaceOnEventListRestricted+0x50>)
 8007bd0:	681b      	ldr	r3, [r3, #0]
 8007bd2:	3318      	adds	r3, #24
 8007bd4:	4619      	mov	r1, r3
 8007bd6:	68f8      	ldr	r0, [r7, #12]
 8007bd8:	f7fe fe61 	bl	800689e <vListInsertEnd>
 8007bdc:	687b      	ldr	r3, [r7, #4]
 8007bde:	2b00      	cmp	r3, #0
 8007be0:	d002      	beq.n	8007be8 <vTaskPlaceOnEventListRestricted+0x40>
 8007be2:	f04f 33ff 	mov.w	r3, #4294967295
 8007be6:	60bb      	str	r3, [r7, #8]
 8007be8:	6879      	ldr	r1, [r7, #4]
 8007bea:	68b8      	ldr	r0, [r7, #8]
 8007bec:	f000 fa46 	bl	800807c <prvAddCurrentTaskToDelayedList>
 8007bf0:	bf00      	nop
 8007bf2:	3718      	adds	r7, #24
 8007bf4:	46bd      	mov	sp, r7
 8007bf6:	bd80      	pop	{r7, pc}
 8007bf8:	200006f0 	.word	0x200006f0

08007bfc <xTaskRemoveFromEventList>:
 8007bfc:	b580      	push	{r7, lr}
 8007bfe:	b086      	sub	sp, #24
 8007c00:	af00      	add	r7, sp, #0
 8007c02:	6078      	str	r0, [r7, #4]
 8007c04:	687b      	ldr	r3, [r7, #4]
 8007c06:	68db      	ldr	r3, [r3, #12]
 8007c08:	68db      	ldr	r3, [r3, #12]
 8007c0a:	613b      	str	r3, [r7, #16]
 8007c0c:	693b      	ldr	r3, [r7, #16]
 8007c0e:	2b00      	cmp	r3, #0
 8007c10:	d109      	bne.n	8007c26 <xTaskRemoveFromEventList+0x2a>
 8007c12:	f04f 0350 	mov.w	r3, #80	; 0x50
 8007c16:	f383 8811 	msr	BASEPRI, r3
 8007c1a:	f3bf 8f6f 	isb	sy
 8007c1e:	f3bf 8f4f 	dsb	sy
 8007c22:	60fb      	str	r3, [r7, #12]
 8007c24:	e7fe      	b.n	8007c24 <xTaskRemoveFromEventList+0x28>
 8007c26:	693b      	ldr	r3, [r7, #16]
 8007c28:	3318      	adds	r3, #24
 8007c2a:	4618      	mov	r0, r3
 8007c2c:	f7fe fe94 	bl	8006958 <uxListRemove>
 8007c30:	4b1d      	ldr	r3, [pc, #116]	; (8007ca8 <xTaskRemoveFromEventList+0xac>)
 8007c32:	681b      	ldr	r3, [r3, #0]
 8007c34:	2b00      	cmp	r3, #0
 8007c36:	d11d      	bne.n	8007c74 <xTaskRemoveFromEventList+0x78>
 8007c38:	693b      	ldr	r3, [r7, #16]
 8007c3a:	3304      	adds	r3, #4
 8007c3c:	4618      	mov	r0, r3
 8007c3e:	f7fe fe8b 	bl	8006958 <uxListRemove>
 8007c42:	693b      	ldr	r3, [r7, #16]
 8007c44:	6ada      	ldr	r2, [r3, #44]	; 0x2c
 8007c46:	4b19      	ldr	r3, [pc, #100]	; (8007cac <xTaskRemoveFromEventList+0xb0>)
 8007c48:	681b      	ldr	r3, [r3, #0]
 8007c4a:	429a      	cmp	r2, r3
 8007c4c:	d903      	bls.n	8007c56 <xTaskRemoveFromEventList+0x5a>
 8007c4e:	693b      	ldr	r3, [r7, #16]
 8007c50:	6adb      	ldr	r3, [r3, #44]	; 0x2c
 8007c52:	4a16      	ldr	r2, [pc, #88]	; (8007cac <xTaskRemoveFromEventList+0xb0>)
 8007c54:	6013      	str	r3, [r2, #0]
 8007c56:	693b      	ldr	r3, [r7, #16]
 8007c58:	6ada      	ldr	r2, [r3, #44]	; 0x2c
 8007c5a:	4613      	mov	r3, r2
 8007c5c:	009b      	lsls	r3, r3, #2
 8007c5e:	4413      	add	r3, r2
 8007c60:	009b      	lsls	r3, r3, #2
 8007c62:	4a13      	ldr	r2, [pc, #76]	; (8007cb0 <xTaskRemoveFromEventList+0xb4>)
 8007c64:	441a      	add	r2, r3
 8007c66:	693b      	ldr	r3, [r7, #16]
 8007c68:	3304      	adds	r3, #4
 8007c6a:	4619      	mov	r1, r3
 8007c6c:	4610      	mov	r0, r2
 8007c6e:	f7fe fe16 	bl	800689e <vListInsertEnd>
 8007c72:	e005      	b.n	8007c80 <xTaskRemoveFromEventList+0x84>
 8007c74:	693b      	ldr	r3, [r7, #16]
 8007c76:	3318      	adds	r3, #24
 8007c78:	4619      	mov	r1, r3
 8007c7a:	480e      	ldr	r0, [pc, #56]	; (8007cb4 <xTaskRemoveFromEventList+0xb8>)
 8007c7c:	f7fe fe0f 	bl	800689e <vListInsertEnd>
 8007c80:	693b      	ldr	r3, [r7, #16]
 8007c82:	6ada      	ldr	r2, [r3, #44]	; 0x2c
 8007c84:	4b0c      	ldr	r3, [pc, #48]	; (8007cb8 <xTaskRemoveFromEventList+0xbc>)
 8007c86:	681b      	ldr	r3, [r3, #0]
 8007c88:	6adb      	ldr	r3, [r3, #44]	; 0x2c
 8007c8a:	429a      	cmp	r2, r3
 8007c8c:	d905      	bls.n	8007c9a <xTaskRemoveFromEventList+0x9e>
 8007c8e:	2301      	movs	r3, #1
 8007c90:	617b      	str	r3, [r7, #20]
 8007c92:	4b0a      	ldr	r3, [pc, #40]	; (8007cbc <xTaskRemoveFromEventList+0xc0>)
 8007c94:	2201      	movs	r2, #1
 8007c96:	601a      	str	r2, [r3, #0]
 8007c98:	e001      	b.n	8007c9e <xTaskRemoveFromEventList+0xa2>
 8007c9a:	2300      	movs	r3, #0
 8007c9c:	617b      	str	r3, [r7, #20]
 8007c9e:	697b      	ldr	r3, [r7, #20]
 8007ca0:	4618      	mov	r0, r3
 8007ca2:	3718      	adds	r7, #24
 8007ca4:	46bd      	mov	sp, r7
 8007ca6:	bd80      	pop	{r7, pc}
 8007ca8:	20000bec 	.word	0x20000bec
 8007cac:	20000bcc 	.word	0x20000bcc
 8007cb0:	200006f4 	.word	0x200006f4
 8007cb4:	20000b84 	.word	0x20000b84
 8007cb8:	200006f0 	.word	0x200006f0
 8007cbc:	20000bd8 	.word	0x20000bd8

08007cc0 <vTaskInternalSetTimeOutState>:
 8007cc0:	b480      	push	{r7}
 8007cc2:	b083      	sub	sp, #12
 8007cc4:	af00      	add	r7, sp, #0
 8007cc6:	6078      	str	r0, [r7, #4]
 8007cc8:	4b06      	ldr	r3, [pc, #24]	; (8007ce4 <vTaskInternalSetTimeOutState+0x24>)
 8007cca:	681a      	ldr	r2, [r3, #0]
 8007ccc:	687b      	ldr	r3, [r7, #4]
 8007cce:	601a      	str	r2, [r3, #0]
 8007cd0:	4b05      	ldr	r3, [pc, #20]	; (8007ce8 <vTaskInternalSetTimeOutState+0x28>)
 8007cd2:	681a      	ldr	r2, [r3, #0]
 8007cd4:	687b      	ldr	r3, [r7, #4]
 8007cd6:	605a      	str	r2, [r3, #4]
 8007cd8:	bf00      	nop
 8007cda:	370c      	adds	r7, #12
 8007cdc:	46bd      	mov	sp, r7
 8007cde:	f85d 7b04 	ldr.w	r7, [sp], #4
 8007ce2:	4770      	bx	lr
 8007ce4:	20000bdc 	.word	0x20000bdc
 8007ce8:	20000bc8 	.word	0x20000bc8

08007cec <xTaskCheckForTimeOut>:
 8007cec:	b580      	push	{r7, lr}
 8007cee:	b088      	sub	sp, #32
 8007cf0:	af00      	add	r7, sp, #0
 8007cf2:	6078      	str	r0, [r7, #4]
 8007cf4:	6039      	str	r1, [r7, #0]
 8007cf6:	687b      	ldr	r3, [r7, #4]
 8007cf8:	2b00      	cmp	r3, #0
 8007cfa:	d109      	bne.n	8007d10 <xTaskCheckForTimeOut+0x24>
 8007cfc:	f04f 0350 	mov.w	r3, #80	; 0x50
 8007d00:	f383 8811 	msr	BASEPRI, r3
 8007d04:	f3bf 8f6f 	isb	sy
 8007d08:	f3bf 8f4f 	dsb	sy
 8007d0c:	613b      	str	r3, [r7, #16]
 8007d0e:	e7fe      	b.n	8007d0e <xTaskCheckForTimeOut+0x22>
 8007d10:	683b      	ldr	r3, [r7, #0]
 8007d12:	2b00      	cmp	r3, #0
 8007d14:	d109      	bne.n	8007d2a <xTaskCheckForTimeOut+0x3e>
 8007d16:	f04f 0350 	mov.w	r3, #80	; 0x50
 8007d1a:	f383 8811 	msr	BASEPRI, r3
 8007d1e:	f3bf 8f6f 	isb	sy
 8007d22:	f3bf 8f4f 	dsb	sy
 8007d26:	60fb      	str	r3, [r7, #12]
 8007d28:	e7fe      	b.n	8007d28 <xTaskCheckForTimeOut+0x3c>
 8007d2a:	f000 fe67 	bl	80089fc <vPortEnterCritical>
 8007d2e:	4b1d      	ldr	r3, [pc, #116]	; (8007da4 <xTaskCheckForTimeOut+0xb8>)
 8007d30:	681b      	ldr	r3, [r3, #0]
 8007d32:	61bb      	str	r3, [r7, #24]
 8007d34:	687b      	ldr	r3, [r7, #4]
 8007d36:	685b      	ldr	r3, [r3, #4]
 8007d38:	69ba      	ldr	r2, [r7, #24]
 8007d3a:	1ad3      	subs	r3, r2, r3
 8007d3c:	617b      	str	r3, [r7, #20]
 8007d3e:	683b      	ldr	r3, [r7, #0]
 8007d40:	681b      	ldr	r3, [r3, #0]
 8007d42:	f1b3 3fff 	cmp.w	r3, #4294967295
 8007d46:	d102      	bne.n	8007d4e <xTaskCheckForTimeOut+0x62>
 8007d48:	2300      	movs	r3, #0
 8007d4a:	61fb      	str	r3, [r7, #28]
 8007d4c:	e023      	b.n	8007d96 <xTaskCheckForTimeOut+0xaa>
 8007d4e:	687b      	ldr	r3, [r7, #4]
 8007d50:	681a      	ldr	r2, [r3, #0]
 8007d52:	4b15      	ldr	r3, [pc, #84]	; (8007da8 <xTaskCheckForTimeOut+0xbc>)
 8007d54:	681b      	ldr	r3, [r3, #0]
 8007d56:	429a      	cmp	r2, r3
 8007d58:	d007      	beq.n	8007d6a <xTaskCheckForTimeOut+0x7e>
 8007d5a:	687b      	ldr	r3, [r7, #4]
 8007d5c:	685b      	ldr	r3, [r3, #4]
 8007d5e:	69ba      	ldr	r2, [r7, #24]
 8007d60:	429a      	cmp	r2, r3
 8007d62:	d302      	bcc.n	8007d6a <xTaskCheckForTimeOut+0x7e>
 8007d64:	2301      	movs	r3, #1
 8007d66:	61fb      	str	r3, [r7, #28]
 8007d68:	e015      	b.n	8007d96 <xTaskCheckForTimeOut+0xaa>
 8007d6a:	683b      	ldr	r3, [r7, #0]
 8007d6c:	681b      	ldr	r3, [r3, #0]
 8007d6e:	697a      	ldr	r2, [r7, #20]
 8007d70:	429a      	cmp	r2, r3
 8007d72:	d20b      	bcs.n	8007d8c <xTaskCheckForTimeOut+0xa0>
 8007d74:	683b      	ldr	r3, [r7, #0]
 8007d76:	681a      	ldr	r2, [r3, #0]
 8007d78:	697b      	ldr	r3, [r7, #20]
 8007d7a:	1ad2      	subs	r2, r2, r3
 8007d7c:	683b      	ldr	r3, [r7, #0]
 8007d7e:	601a      	str	r2, [r3, #0]
 8007d80:	6878      	ldr	r0, [r7, #4]
 8007d82:	f7ff ff9d 	bl	8007cc0 <vTaskInternalSetTimeOutState>
 8007d86:	2300      	movs	r3, #0
 8007d88:	61fb      	str	r3, [r7, #28]
 8007d8a:	e004      	b.n	8007d96 <xTaskCheckForTimeOut+0xaa>
 8007d8c:	683b      	ldr	r3, [r7, #0]
 8007d8e:	2200      	movs	r2, #0
 8007d90:	601a      	str	r2, [r3, #0]
 8007d92:	2301      	movs	r3, #1
 8007d94:	61fb      	str	r3, [r7, #28]
 8007d96:	f000 fe5f 	bl	8008a58 <vPortExitCritical>
 8007d9a:	69fb      	ldr	r3, [r7, #28]
 8007d9c:	4618      	mov	r0, r3
 8007d9e:	3720      	adds	r7, #32
 8007da0:	46bd      	mov	sp, r7
 8007da2:	bd80      	pop	{r7, pc}
 8007da4:	20000bc8 	.word	0x20000bc8
 8007da8:	20000bdc 	.word	0x20000bdc

08007dac <vTaskMissedYield>:
 8007dac:	b480      	push	{r7}
 8007dae:	af00      	add	r7, sp, #0
 8007db0:	4b03      	ldr	r3, [pc, #12]	; (8007dc0 <vTaskMissedYield+0x14>)
 8007db2:	2201      	movs	r2, #1
 8007db4:	601a      	str	r2, [r3, #0]
 8007db6:	bf00      	nop
 8007db8:	46bd      	mov	sp, r7
 8007dba:	f85d 7b04 	ldr.w	r7, [sp], #4
 8007dbe:	4770      	bx	lr
 8007dc0:	20000bd8 	.word	0x20000bd8

08007dc4 <prvIdleTask>:
 8007dc4:	b580      	push	{r7, lr}
 8007dc6:	b082      	sub	sp, #8
 8007dc8:	af00      	add	r7, sp, #0
 8007dca:	6078      	str	r0, [r7, #4]
 8007dcc:	f000 f852 	bl	8007e74 <prvCheckTasksWaitingTermination>
 8007dd0:	4b06      	ldr	r3, [pc, #24]	; (8007dec <prvIdleTask+0x28>)
 8007dd2:	681b      	ldr	r3, [r3, #0]
 8007dd4:	2b01      	cmp	r3, #1
 8007dd6:	d9f9      	bls.n	8007dcc <prvIdleTask+0x8>
 8007dd8:	4b05      	ldr	r3, [pc, #20]	; (8007df0 <prvIdleTask+0x2c>)
 8007dda:	f04f 5280 	mov.w	r2, #268435456	; 0x10000000
 8007dde:	601a      	str	r2, [r3, #0]
 8007de0:	f3bf 8f4f 	dsb	sy
 8007de4:	f3bf 8f6f 	isb	sy
 8007de8:	e7f0      	b.n	8007dcc <prvIdleTask+0x8>
 8007dea:	bf00      	nop
 8007dec:	200006f4 	.word	0x200006f4
 8007df0:	e000ed04 	.word	0xe000ed04

08007df4 <prvInitialiseTaskLists>:
 8007df4:	b580      	push	{r7, lr}
 8007df6:	b082      	sub	sp, #8
 8007df8:	af00      	add	r7, sp, #0
 8007dfa:	2300      	movs	r3, #0
 8007dfc:	607b      	str	r3, [r7, #4]
 8007dfe:	e00c      	b.n	8007e1a <prvInitialiseTaskLists+0x26>
 8007e00:	687a      	ldr	r2, [r7, #4]
 8007e02:	4613      	mov	r3, r2
 8007e04:	009b      	lsls	r3, r3, #2
 8007e06:	4413      	add	r3, r2
 8007e08:	009b      	lsls	r3, r3, #2
 8007e0a:	4a12      	ldr	r2, [pc, #72]	; (8007e54 <prvInitialiseTaskLists+0x60>)
 8007e0c:	4413      	add	r3, r2
 8007e0e:	4618      	mov	r0, r3
 8007e10:	f7fe fd18 	bl	8006844 <vListInitialise>
 8007e14:	687b      	ldr	r3, [r7, #4]
 8007e16:	3301      	adds	r3, #1
 8007e18:	607b      	str	r3, [r7, #4]
 8007e1a:	687b      	ldr	r3, [r7, #4]
 8007e1c:	2b37      	cmp	r3, #55	; 0x37
 8007e1e:	d9ef      	bls.n	8007e00 <prvInitialiseTaskLists+0xc>
 8007e20:	480d      	ldr	r0, [pc, #52]	; (8007e58 <prvInitialiseTaskLists+0x64>)
 8007e22:	f7fe fd0f 	bl	8006844 <vListInitialise>
 8007e26:	480d      	ldr	r0, [pc, #52]	; (8007e5c <prvInitialiseTaskLists+0x68>)
 8007e28:	f7fe fd0c 	bl	8006844 <vListInitialise>
 8007e2c:	480c      	ldr	r0, [pc, #48]	; (8007e60 <prvInitialiseTaskLists+0x6c>)
 8007e2e:	f7fe fd09 	bl	8006844 <vListInitialise>
 8007e32:	480c      	ldr	r0, [pc, #48]	; (8007e64 <prvInitialiseTaskLists+0x70>)
 8007e34:	f7fe fd06 	bl	8006844 <vListInitialise>
 8007e38:	480b      	ldr	r0, [pc, #44]	; (8007e68 <prvInitialiseTaskLists+0x74>)
 8007e3a:	f7fe fd03 	bl	8006844 <vListInitialise>
 8007e3e:	4b0b      	ldr	r3, [pc, #44]	; (8007e6c <prvInitialiseTaskLists+0x78>)
 8007e40:	4a05      	ldr	r2, [pc, #20]	; (8007e58 <prvInitialiseTaskLists+0x64>)
 8007e42:	601a      	str	r2, [r3, #0]
 8007e44:	4b0a      	ldr	r3, [pc, #40]	; (8007e70 <prvInitialiseTaskLists+0x7c>)
 8007e46:	4a05      	ldr	r2, [pc, #20]	; (8007e5c <prvInitialiseTaskLists+0x68>)
 8007e48:	601a      	str	r2, [r3, #0]
 8007e4a:	bf00      	nop
 8007e4c:	3708      	adds	r7, #8
 8007e4e:	46bd      	mov	sp, r7
 8007e50:	bd80      	pop	{r7, pc}
 8007e52:	bf00      	nop
 8007e54:	200006f4 	.word	0x200006f4
 8007e58:	20000b54 	.word	0x20000b54
 8007e5c:	20000b68 	.word	0x20000b68
 8007e60:	20000b84 	.word	0x20000b84
 8007e64:	20000b98 	.word	0x20000b98
 8007e68:	20000bb0 	.word	0x20000bb0
 8007e6c:	20000b7c 	.word	0x20000b7c
 8007e70:	20000b80 	.word	0x20000b80

08007e74 <prvCheckTasksWaitingTermination>:
 8007e74:	b580      	push	{r7, lr}
 8007e76:	b082      	sub	sp, #8
 8007e78:	af00      	add	r7, sp, #0
 8007e7a:	e019      	b.n	8007eb0 <prvCheckTasksWaitingTermination+0x3c>
 8007e7c:	f000 fdbe 	bl	80089fc <vPortEnterCritical>
 8007e80:	4b0f      	ldr	r3, [pc, #60]	; (8007ec0 <prvCheckTasksWaitingTermination+0x4c>)
 8007e82:	68db      	ldr	r3, [r3, #12]
 8007e84:	68db      	ldr	r3, [r3, #12]
 8007e86:	607b      	str	r3, [r7, #4]
 8007e88:	687b      	ldr	r3, [r7, #4]
 8007e8a:	3304      	adds	r3, #4
 8007e8c:	4618      	mov	r0, r3
 8007e8e:	f7fe fd63 	bl	8006958 <uxListRemove>
 8007e92:	4b0c      	ldr	r3, [pc, #48]	; (8007ec4 <prvCheckTasksWaitingTermination+0x50>)
 8007e94:	681b      	ldr	r3, [r3, #0]
 8007e96:	3b01      	subs	r3, #1
 8007e98:	4a0a      	ldr	r2, [pc, #40]	; (8007ec4 <prvCheckTasksWaitingTermination+0x50>)
 8007e9a:	6013      	str	r3, [r2, #0]
 8007e9c:	4b0a      	ldr	r3, [pc, #40]	; (8007ec8 <prvCheckTasksWaitingTermination+0x54>)
 8007e9e:	681b      	ldr	r3, [r3, #0]
 8007ea0:	3b01      	subs	r3, #1
 8007ea2:	4a09      	ldr	r2, [pc, #36]	; (8007ec8 <prvCheckTasksWaitingTermination+0x54>)
 8007ea4:	6013      	str	r3, [r2, #0]
 8007ea6:	f000 fdd7 	bl	8008a58 <vPortExitCritical>
 8007eaa:	6878      	ldr	r0, [r7, #4]
 8007eac:	f000 f80e 	bl	8007ecc <prvDeleteTCB>
 8007eb0:	4b05      	ldr	r3, [pc, #20]	; (8007ec8 <prvCheckTasksWaitingTermination+0x54>)
 8007eb2:	681b      	ldr	r3, [r3, #0]
 8007eb4:	2b00      	cmp	r3, #0
 8007eb6:	d1e1      	bne.n	8007e7c <prvCheckTasksWaitingTermination+0x8>
 8007eb8:	bf00      	nop
 8007eba:	3708      	adds	r7, #8
 8007ebc:	46bd      	mov	sp, r7
 8007ebe:	bd80      	pop	{r7, pc}
 8007ec0:	20000b98 	.word	0x20000b98
 8007ec4:	20000bc4 	.word	0x20000bc4
 8007ec8:	20000bac 	.word	0x20000bac

08007ecc <prvDeleteTCB>:
 8007ecc:	b580      	push	{r7, lr}
 8007ece:	b084      	sub	sp, #16
 8007ed0:	af00      	add	r7, sp, #0
 8007ed2:	6078      	str	r0, [r7, #4]
 8007ed4:	687b      	ldr	r3, [r7, #4]
 8007ed6:	f893 305d 	ldrb.w	r3, [r3, #93]	; 0x5d
 8007eda:	2b00      	cmp	r3, #0
 8007edc:	d108      	bne.n	8007ef0 <prvDeleteTCB+0x24>
 8007ede:	687b      	ldr	r3, [r7, #4]
 8007ee0:	6b1b      	ldr	r3, [r3, #48]	; 0x30
 8007ee2:	4618      	mov	r0, r3
 8007ee4:	f000 ff66 	bl	8008db4 <vPortFree>
 8007ee8:	6878      	ldr	r0, [r7, #4]
 8007eea:	f000 ff63 	bl	8008db4 <vPortFree>
 8007eee:	e017      	b.n	8007f20 <prvDeleteTCB+0x54>
 8007ef0:	687b      	ldr	r3, [r7, #4]
 8007ef2:	f893 305d 	ldrb.w	r3, [r3, #93]	; 0x5d
 8007ef6:	2b01      	cmp	r3, #1
 8007ef8:	d103      	bne.n	8007f02 <prvDeleteTCB+0x36>
 8007efa:	6878      	ldr	r0, [r7, #4]
 8007efc:	f000 ff5a 	bl	8008db4 <vPortFree>
 8007f00:	e00e      	b.n	8007f20 <prvDeleteTCB+0x54>
 8007f02:	687b      	ldr	r3, [r7, #4]
 8007f04:	f893 305d 	ldrb.w	r3, [r3, #93]	; 0x5d
 8007f08:	2b02      	cmp	r3, #2
 8007f0a:	d009      	beq.n	8007f20 <prvDeleteTCB+0x54>
 8007f0c:	f04f 0350 	mov.w	r3, #80	; 0x50
 8007f10:	f383 8811 	msr	BASEPRI, r3
 8007f14:	f3bf 8f6f 	isb	sy
 8007f18:	f3bf 8f4f 	dsb	sy
 8007f1c:	60fb      	str	r3, [r7, #12]
 8007f1e:	e7fe      	b.n	8007f1e <prvDeleteTCB+0x52>
 8007f20:	bf00      	nop
 8007f22:	3710      	adds	r7, #16
 8007f24:	46bd      	mov	sp, r7
 8007f26:	bd80      	pop	{r7, pc}

08007f28 <prvResetNextTaskUnblockTime>:
 8007f28:	b480      	push	{r7}
 8007f2a:	b083      	sub	sp, #12
 8007f2c:	af00      	add	r7, sp, #0
 8007f2e:	4b0c      	ldr	r3, [pc, #48]	; (8007f60 <prvResetNextTaskUnblockTime+0x38>)
 8007f30:	681b      	ldr	r3, [r3, #0]
 8007f32:	681b      	ldr	r3, [r3, #0]
 8007f34:	2b00      	cmp	r3, #0
 8007f36:	d104      	bne.n	8007f42 <prvResetNextTaskUnblockTime+0x1a>
 8007f38:	4b0a      	ldr	r3, [pc, #40]	; (8007f64 <prvResetNextTaskUnblockTime+0x3c>)
 8007f3a:	f04f 32ff 	mov.w	r2, #4294967295
 8007f3e:	601a      	str	r2, [r3, #0]
 8007f40:	e008      	b.n	8007f54 <prvResetNextTaskUnblockTime+0x2c>
 8007f42:	4b07      	ldr	r3, [pc, #28]	; (8007f60 <prvResetNextTaskUnblockTime+0x38>)
 8007f44:	681b      	ldr	r3, [r3, #0]
 8007f46:	68db      	ldr	r3, [r3, #12]
 8007f48:	68db      	ldr	r3, [r3, #12]
 8007f4a:	607b      	str	r3, [r7, #4]
 8007f4c:	687b      	ldr	r3, [r7, #4]
 8007f4e:	685b      	ldr	r3, [r3, #4]
 8007f50:	4a04      	ldr	r2, [pc, #16]	; (8007f64 <prvResetNextTaskUnblockTime+0x3c>)
 8007f52:	6013      	str	r3, [r2, #0]
 8007f54:	bf00      	nop
 8007f56:	370c      	adds	r7, #12
 8007f58:	46bd      	mov	sp, r7
 8007f5a:	f85d 7b04 	ldr.w	r7, [sp], #4
 8007f5e:	4770      	bx	lr
 8007f60:	20000b7c 	.word	0x20000b7c
 8007f64:	20000be4 	.word	0x20000be4

08007f68 <xTaskGetSchedulerState>:
 8007f68:	b480      	push	{r7}
 8007f6a:	b083      	sub	sp, #12
 8007f6c:	af00      	add	r7, sp, #0
 8007f6e:	4b0b      	ldr	r3, [pc, #44]	; (8007f9c <xTaskGetSchedulerState+0x34>)
 8007f70:	681b      	ldr	r3, [r3, #0]
 8007f72:	2b00      	cmp	r3, #0
 8007f74:	d102      	bne.n	8007f7c <xTaskGetSchedulerState+0x14>
 8007f76:	2301      	movs	r3, #1
 8007f78:	607b      	str	r3, [r7, #4]
 8007f7a:	e008      	b.n	8007f8e <xTaskGetSchedulerState+0x26>
 8007f7c:	4b08      	ldr	r3, [pc, #32]	; (8007fa0 <xTaskGetSchedulerState+0x38>)
 8007f7e:	681b      	ldr	r3, [r3, #0]
 8007f80:	2b00      	cmp	r3, #0
 8007f82:	d102      	bne.n	8007f8a <xTaskGetSchedulerState+0x22>
 8007f84:	2302      	movs	r3, #2
 8007f86:	607b      	str	r3, [r7, #4]
 8007f88:	e001      	b.n	8007f8e <xTaskGetSchedulerState+0x26>
 8007f8a:	2300      	movs	r3, #0
 8007f8c:	607b      	str	r3, [r7, #4]
 8007f8e:	687b      	ldr	r3, [r7, #4]
 8007f90:	4618      	mov	r0, r3
 8007f92:	370c      	adds	r7, #12
 8007f94:	46bd      	mov	sp, r7
 8007f96:	f85d 7b04 	ldr.w	r7, [sp], #4
 8007f9a:	4770      	bx	lr
 8007f9c:	20000bd0 	.word	0x20000bd0
 8007fa0:	20000bec 	.word	0x20000bec

08007fa4 <xTaskPriorityDisinherit>:
 8007fa4:	b580      	push	{r7, lr}
 8007fa6:	b086      	sub	sp, #24
 8007fa8:	af00      	add	r7, sp, #0
 8007faa:	6078      	str	r0, [r7, #4]
 8007fac:	687b      	ldr	r3, [r7, #4]
 8007fae:	613b      	str	r3, [r7, #16]
 8007fb0:	2300      	movs	r3, #0
 8007fb2:	617b      	str	r3, [r7, #20]
 8007fb4:	687b      	ldr	r3, [r7, #4]
 8007fb6:	2b00      	cmp	r3, #0
 8007fb8:	d054      	beq.n	8008064 <xTaskPriorityDisinherit+0xc0>
 8007fba:	4b2d      	ldr	r3, [pc, #180]	; (8008070 <xTaskPriorityDisinherit+0xcc>)
 8007fbc:	681b      	ldr	r3, [r3, #0]
 8007fbe:	693a      	ldr	r2, [r7, #16]
 8007fc0:	429a      	cmp	r2, r3
 8007fc2:	d009      	beq.n	8007fd8 <xTaskPriorityDisinherit+0x34>
 8007fc4:	f04f 0350 	mov.w	r3, #80	; 0x50
 8007fc8:	f383 8811 	msr	BASEPRI, r3
 8007fcc:	f3bf 8f6f 	isb	sy
 8007fd0:	f3bf 8f4f 	dsb	sy
 8007fd4:	60fb      	str	r3, [r7, #12]
 8007fd6:	e7fe      	b.n	8007fd6 <xTaskPriorityDisinherit+0x32>
 8007fd8:	693b      	ldr	r3, [r7, #16]
 8007fda:	6d1b      	ldr	r3, [r3, #80]	; 0x50
 8007fdc:	2b00      	cmp	r3, #0
 8007fde:	d109      	bne.n	8007ff4 <xTaskPriorityDisinherit+0x50>
 8007fe0:	f04f 0350 	mov.w	r3, #80	; 0x50
 8007fe4:	f383 8811 	msr	BASEPRI, r3
 8007fe8:	f3bf 8f6f 	isb	sy
 8007fec:	f3bf 8f4f 	dsb	sy
 8007ff0:	60bb      	str	r3, [r7, #8]
 8007ff2:	e7fe      	b.n	8007ff2 <xTaskPriorityDisinherit+0x4e>
 8007ff4:	693b      	ldr	r3, [r7, #16]
 8007ff6:	6d1b      	ldr	r3, [r3, #80]	; 0x50
 8007ff8:	1e5a      	subs	r2, r3, #1
 8007ffa:	693b      	ldr	r3, [r7, #16]
 8007ffc:	651a      	str	r2, [r3, #80]	; 0x50
 8007ffe:	693b      	ldr	r3, [r7, #16]
 8008000:	6ada      	ldr	r2, [r3, #44]	; 0x2c
 8008002:	693b      	ldr	r3, [r7, #16]
 8008004:	6cdb      	ldr	r3, [r3, #76]	; 0x4c
 8008006:	429a      	cmp	r2, r3
 8008008:	d02c      	beq.n	8008064 <xTaskPriorityDisinherit+0xc0>
 800800a:	693b      	ldr	r3, [r7, #16]
 800800c:	6d1b      	ldr	r3, [r3, #80]	; 0x50
 800800e:	2b00      	cmp	r3, #0
 8008010:	d128      	bne.n	8008064 <xTaskPriorityDisinherit+0xc0>
 8008012:	693b      	ldr	r3, [r7, #16]
 8008014:	3304      	adds	r3, #4
 8008016:	4618      	mov	r0, r3
 8008018:	f7fe fc9e 	bl	8006958 <uxListRemove>
 800801c:	693b      	ldr	r3, [r7, #16]
 800801e:	6cda      	ldr	r2, [r3, #76]	; 0x4c
 8008020:	693b      	ldr	r3, [r7, #16]
 8008022:	62da      	str	r2, [r3, #44]	; 0x2c
 8008024:	693b      	ldr	r3, [r7, #16]
 8008026:	6adb      	ldr	r3, [r3, #44]	; 0x2c
 8008028:	f1c3 0238 	rsb	r2, r3, #56	; 0x38
 800802c:	693b      	ldr	r3, [r7, #16]
 800802e:	619a      	str	r2, [r3, #24]
 8008030:	693b      	ldr	r3, [r7, #16]
 8008032:	6ada      	ldr	r2, [r3, #44]	; 0x2c
 8008034:	4b0f      	ldr	r3, [pc, #60]	; (8008074 <xTaskPriorityDisinherit+0xd0>)
 8008036:	681b      	ldr	r3, [r3, #0]
 8008038:	429a      	cmp	r2, r3
 800803a:	d903      	bls.n	8008044 <xTaskPriorityDisinherit+0xa0>
 800803c:	693b      	ldr	r3, [r7, #16]
 800803e:	6adb      	ldr	r3, [r3, #44]	; 0x2c
 8008040:	4a0c      	ldr	r2, [pc, #48]	; (8008074 <xTaskPriorityDisinherit+0xd0>)
 8008042:	6013      	str	r3, [r2, #0]
 8008044:	693b      	ldr	r3, [r7, #16]
 8008046:	6ada      	ldr	r2, [r3, #44]	; 0x2c
 8008048:	4613      	mov	r3, r2
 800804a:	009b      	lsls	r3, r3, #2
 800804c:	4413      	add	r3, r2
 800804e:	009b      	lsls	r3, r3, #2
 8008050:	4a09      	ldr	r2, [pc, #36]	; (8008078 <xTaskPriorityDisinherit+0xd4>)
 8008052:	441a      	add	r2, r3
 8008054:	693b      	ldr	r3, [r7, #16]
 8008056:	3304      	adds	r3, #4
 8008058:	4619      	mov	r1, r3
 800805a:	4610      	mov	r0, r2
 800805c:	f7fe fc1f 	bl	800689e <vListInsertEnd>
 8008060:	2301      	movs	r3, #1
 8008062:	617b      	str	r3, [r7, #20]
 8008064:	697b      	ldr	r3, [r7, #20]
 8008066:	4618      	mov	r0, r3
 8008068:	3718      	adds	r7, #24
 800806a:	46bd      	mov	sp, r7
 800806c:	bd80      	pop	{r7, pc}
 800806e:	bf00      	nop
 8008070:	200006f0 	.word	0x200006f0
 8008074:	20000bcc 	.word	0x20000bcc
 8008078:	200006f4 	.word	0x200006f4

0800807c <prvAddCurrentTaskToDelayedList>:
 800807c:	b580      	push	{r7, lr}
 800807e:	b084      	sub	sp, #16
 8008080:	af00      	add	r7, sp, #0
 8008082:	6078      	str	r0, [r7, #4]
 8008084:	6039      	str	r1, [r7, #0]
 8008086:	4b21      	ldr	r3, [pc, #132]	; (800810c <prvAddCurrentTaskToDelayedList+0x90>)
 8008088:	681b      	ldr	r3, [r3, #0]
 800808a:	60fb      	str	r3, [r7, #12]
 800808c:	4b20      	ldr	r3, [pc, #128]	; (8008110 <prvAddCurrentTaskToDelayedList+0x94>)
 800808e:	681b      	ldr	r3, [r3, #0]
 8008090:	3304      	adds	r3, #4
 8008092:	4618      	mov	r0, r3
 8008094:	f7fe fc60 	bl	8006958 <uxListRemove>
 8008098:	687b      	ldr	r3, [r7, #4]
 800809a:	f1b3 3fff 	cmp.w	r3, #4294967295
 800809e:	d10a      	bne.n	80080b6 <prvAddCurrentTaskToDelayedList+0x3a>
 80080a0:	683b      	ldr	r3, [r7, #0]
 80080a2:	2b00      	cmp	r3, #0
 80080a4:	d007      	beq.n	80080b6 <prvAddCurrentTaskToDelayedList+0x3a>
 80080a6:	4b1a      	ldr	r3, [pc, #104]	; (8008110 <prvAddCurrentTaskToDelayedList+0x94>)
 80080a8:	681b      	ldr	r3, [r3, #0]
 80080aa:	3304      	adds	r3, #4
 80080ac:	4619      	mov	r1, r3
 80080ae:	4819      	ldr	r0, [pc, #100]	; (8008114 <prvAddCurrentTaskToDelayedList+0x98>)
 80080b0:	f7fe fbf5 	bl	800689e <vListInsertEnd>
 80080b4:	e026      	b.n	8008104 <prvAddCurrentTaskToDelayedList+0x88>
 80080b6:	68fa      	ldr	r2, [r7, #12]
 80080b8:	687b      	ldr	r3, [r7, #4]
 80080ba:	4413      	add	r3, r2
 80080bc:	60bb      	str	r3, [r7, #8]
 80080be:	4b14      	ldr	r3, [pc, #80]	; (8008110 <prvAddCurrentTaskToDelayedList+0x94>)
 80080c0:	681b      	ldr	r3, [r3, #0]
 80080c2:	68ba      	ldr	r2, [r7, #8]
 80080c4:	605a      	str	r2, [r3, #4]
 80080c6:	68ba      	ldr	r2, [r7, #8]
 80080c8:	68fb      	ldr	r3, [r7, #12]
 80080ca:	429a      	cmp	r2, r3
 80080cc:	d209      	bcs.n	80080e2 <prvAddCurrentTaskToDelayedList+0x66>
 80080ce:	4b12      	ldr	r3, [pc, #72]	; (8008118 <prvAddCurrentTaskToDelayedList+0x9c>)
 80080d0:	681a      	ldr	r2, [r3, #0]
 80080d2:	4b0f      	ldr	r3, [pc, #60]	; (8008110 <prvAddCurrentTaskToDelayedList+0x94>)
 80080d4:	681b      	ldr	r3, [r3, #0]
 80080d6:	3304      	adds	r3, #4
 80080d8:	4619      	mov	r1, r3
 80080da:	4610      	mov	r0, r2
 80080dc:	f7fe fc03 	bl	80068e6 <vListInsert>
 80080e0:	e010      	b.n	8008104 <prvAddCurrentTaskToDelayedList+0x88>
 80080e2:	4b0e      	ldr	r3, [pc, #56]	; (800811c <prvAddCurrentTaskToDelayedList+0xa0>)
 80080e4:	681a      	ldr	r2, [r3, #0]
 80080e6:	4b0a      	ldr	r3, [pc, #40]	; (8008110 <prvAddCurrentTaskToDelayedList+0x94>)
 80080e8:	681b      	ldr	r3, [r3, #0]
 80080ea:	3304      	adds	r3, #4
 80080ec:	4619      	mov	r1, r3
 80080ee:	4610      	mov	r0, r2
 80080f0:	f7fe fbf9 	bl	80068e6 <vListInsert>
 80080f4:	4b0a      	ldr	r3, [pc, #40]	; (8008120 <prvAddCurrentTaskToDelayedList+0xa4>)
 80080f6:	681b      	ldr	r3, [r3, #0]
 80080f8:	68ba      	ldr	r2, [r7, #8]
 80080fa:	429a      	cmp	r2, r3
 80080fc:	d202      	bcs.n	8008104 <prvAddCurrentTaskToDelayedList+0x88>
 80080fe:	4a08      	ldr	r2, [pc, #32]	; (8008120 <prvAddCurrentTaskToDelayedList+0xa4>)
 8008100:	68bb      	ldr	r3, [r7, #8]
 8008102:	6013      	str	r3, [r2, #0]
 8008104:	bf00      	nop
 8008106:	3710      	adds	r7, #16
 8008108:	46bd      	mov	sp, r7
 800810a:	bd80      	pop	{r7, pc}
 800810c:	20000bc8 	.word	0x20000bc8
 8008110:	200006f0 	.word	0x200006f0
 8008114:	20000bb0 	.word	0x20000bb0
 8008118:	20000b80 	.word	0x20000b80
 800811c:	20000b7c 	.word	0x20000b7c
 8008120:	20000be4 	.word	0x20000be4

08008124 <xTimerCreateTimerTask>:
 8008124:	b580      	push	{r7, lr}
 8008126:	b08a      	sub	sp, #40	; 0x28
 8008128:	af04      	add	r7, sp, #16
 800812a:	2300      	movs	r3, #0
 800812c:	617b      	str	r3, [r7, #20]
 800812e:	f000 faff 	bl	8008730 <prvCheckForValidListAndQueue>
 8008132:	4b1c      	ldr	r3, [pc, #112]	; (80081a4 <xTimerCreateTimerTask+0x80>)
 8008134:	681b      	ldr	r3, [r3, #0]
 8008136:	2b00      	cmp	r3, #0
 8008138:	d021      	beq.n	800817e <xTimerCreateTimerTask+0x5a>
 800813a:	2300      	movs	r3, #0
 800813c:	60fb      	str	r3, [r7, #12]
 800813e:	2300      	movs	r3, #0
 8008140:	60bb      	str	r3, [r7, #8]
 8008142:	1d3a      	adds	r2, r7, #4
 8008144:	f107 0108 	add.w	r1, r7, #8
 8008148:	f107 030c 	add.w	r3, r7, #12
 800814c:	4618      	mov	r0, r3
 800814e:	f7fe fb5f 	bl	8006810 <vApplicationGetTimerTaskMemory>
 8008152:	6879      	ldr	r1, [r7, #4]
 8008154:	68bb      	ldr	r3, [r7, #8]
 8008156:	68fa      	ldr	r2, [r7, #12]
 8008158:	9202      	str	r2, [sp, #8]
 800815a:	9301      	str	r3, [sp, #4]
 800815c:	2302      	movs	r3, #2
 800815e:	9300      	str	r3, [sp, #0]
 8008160:	2300      	movs	r3, #0
 8008162:	460a      	mov	r2, r1
 8008164:	4910      	ldr	r1, [pc, #64]	; (80081a8 <xTimerCreateTimerTask+0x84>)
 8008166:	4811      	ldr	r0, [pc, #68]	; (80081ac <xTimerCreateTimerTask+0x88>)
 8008168:	f7ff f8f4 	bl	8007354 <xTaskCreateStatic>
 800816c:	4602      	mov	r2, r0
 800816e:	4b10      	ldr	r3, [pc, #64]	; (80081b0 <xTimerCreateTimerTask+0x8c>)
 8008170:	601a      	str	r2, [r3, #0]
 8008172:	4b0f      	ldr	r3, [pc, #60]	; (80081b0 <xTimerCreateTimerTask+0x8c>)
 8008174:	681b      	ldr	r3, [r3, #0]
 8008176:	2b00      	cmp	r3, #0
 8008178:	d001      	beq.n	800817e <xTimerCreateTimerTask+0x5a>
 800817a:	2301      	movs	r3, #1
 800817c:	617b      	str	r3, [r7, #20]
 800817e:	697b      	ldr	r3, [r7, #20]
 8008180:	2b00      	cmp	r3, #0
 8008182:	d109      	bne.n	8008198 <xTimerCreateTimerTask+0x74>
 8008184:	f04f 0350 	mov.w	r3, #80	; 0x50
 8008188:	f383 8811 	msr	BASEPRI, r3
 800818c:	f3bf 8f6f 	isb	sy
 8008190:	f3bf 8f4f 	dsb	sy
 8008194:	613b      	str	r3, [r7, #16]
 8008196:	e7fe      	b.n	8008196 <xTimerCreateTimerTask+0x72>
 8008198:	697b      	ldr	r3, [r7, #20]
 800819a:	4618      	mov	r0, r3
 800819c:	3718      	adds	r7, #24
 800819e:	46bd      	mov	sp, r7
 80081a0:	bd80      	pop	{r7, pc}
 80081a2:	bf00      	nop
 80081a4:	20000c20 	.word	0x20000c20
 80081a8:	08009108 	.word	0x08009108
 80081ac:	080082e5 	.word	0x080082e5
 80081b0:	20000c24 	.word	0x20000c24

080081b4 <xTimerGenericCommand>:
 80081b4:	b580      	push	{r7, lr}
 80081b6:	b08a      	sub	sp, #40	; 0x28
 80081b8:	af00      	add	r7, sp, #0
 80081ba:	60f8      	str	r0, [r7, #12]
 80081bc:	60b9      	str	r1, [r7, #8]
 80081be:	607a      	str	r2, [r7, #4]
 80081c0:	603b      	str	r3, [r7, #0]
 80081c2:	2300      	movs	r3, #0
 80081c4:	627b      	str	r3, [r7, #36]	; 0x24
 80081c6:	68fb      	ldr	r3, [r7, #12]
 80081c8:	2b00      	cmp	r3, #0
 80081ca:	d109      	bne.n	80081e0 <xTimerGenericCommand+0x2c>
 80081cc:	f04f 0350 	mov.w	r3, #80	; 0x50
 80081d0:	f383 8811 	msr	BASEPRI, r3
 80081d4:	f3bf 8f6f 	isb	sy
 80081d8:	f3bf 8f4f 	dsb	sy
 80081dc:	623b      	str	r3, [r7, #32]
 80081de:	e7fe      	b.n	80081de <xTimerGenericCommand+0x2a>
 80081e0:	4b19      	ldr	r3, [pc, #100]	; (8008248 <xTimerGenericCommand+0x94>)
 80081e2:	681b      	ldr	r3, [r3, #0]
 80081e4:	2b00      	cmp	r3, #0
 80081e6:	d02a      	beq.n	800823e <xTimerGenericCommand+0x8a>
 80081e8:	68bb      	ldr	r3, [r7, #8]
 80081ea:	613b      	str	r3, [r7, #16]
 80081ec:	687b      	ldr	r3, [r7, #4]
 80081ee:	617b      	str	r3, [r7, #20]
 80081f0:	68fb      	ldr	r3, [r7, #12]
 80081f2:	61bb      	str	r3, [r7, #24]
 80081f4:	68bb      	ldr	r3, [r7, #8]
 80081f6:	2b05      	cmp	r3, #5
 80081f8:	dc18      	bgt.n	800822c <xTimerGenericCommand+0x78>
 80081fa:	f7ff feb5 	bl	8007f68 <xTaskGetSchedulerState>
 80081fe:	4603      	mov	r3, r0
 8008200:	2b02      	cmp	r3, #2
 8008202:	d109      	bne.n	8008218 <xTimerGenericCommand+0x64>
 8008204:	4b10      	ldr	r3, [pc, #64]	; (8008248 <xTimerGenericCommand+0x94>)
 8008206:	6818      	ldr	r0, [r3, #0]
 8008208:	f107 0110 	add.w	r1, r7, #16
 800820c:	2300      	movs	r3, #0
 800820e:	6b3a      	ldr	r2, [r7, #48]	; 0x30
 8008210:	f7fe fcca 	bl	8006ba8 <xQueueGenericSend>
 8008214:	6278      	str	r0, [r7, #36]	; 0x24
 8008216:	e012      	b.n	800823e <xTimerGenericCommand+0x8a>
 8008218:	4b0b      	ldr	r3, [pc, #44]	; (8008248 <xTimerGenericCommand+0x94>)
 800821a:	6818      	ldr	r0, [r3, #0]
 800821c:	f107 0110 	add.w	r1, r7, #16
 8008220:	2300      	movs	r3, #0
 8008222:	2200      	movs	r2, #0
 8008224:	f7fe fcc0 	bl	8006ba8 <xQueueGenericSend>
 8008228:	6278      	str	r0, [r7, #36]	; 0x24
 800822a:	e008      	b.n	800823e <xTimerGenericCommand+0x8a>
 800822c:	4b06      	ldr	r3, [pc, #24]	; (8008248 <xTimerGenericCommand+0x94>)
 800822e:	6818      	ldr	r0, [r3, #0]
 8008230:	f107 0110 	add.w	r1, r7, #16
 8008234:	2300      	movs	r3, #0
 8008236:	683a      	ldr	r2, [r7, #0]
 8008238:	f7fe fdb0 	bl	8006d9c <xQueueGenericSendFromISR>
 800823c:	6278      	str	r0, [r7, #36]	; 0x24
 800823e:	6a7b      	ldr	r3, [r7, #36]	; 0x24
 8008240:	4618      	mov	r0, r3
 8008242:	3728      	adds	r7, #40	; 0x28
 8008244:	46bd      	mov	sp, r7
 8008246:	bd80      	pop	{r7, pc}
 8008248:	20000c20 	.word	0x20000c20

0800824c <prvProcessExpiredTimer>:
 800824c:	b580      	push	{r7, lr}
 800824e:	b088      	sub	sp, #32
 8008250:	af02      	add	r7, sp, #8
 8008252:	6078      	str	r0, [r7, #4]
 8008254:	6039      	str	r1, [r7, #0]
 8008256:	4b22      	ldr	r3, [pc, #136]	; (80082e0 <prvProcessExpiredTimer+0x94>)
 8008258:	681b      	ldr	r3, [r3, #0]
 800825a:	68db      	ldr	r3, [r3, #12]
 800825c:	68db      	ldr	r3, [r3, #12]
 800825e:	617b      	str	r3, [r7, #20]
 8008260:	697b      	ldr	r3, [r7, #20]
 8008262:	3304      	adds	r3, #4
 8008264:	4618      	mov	r0, r3
 8008266:	f7fe fb77 	bl	8006958 <uxListRemove>
 800826a:	697b      	ldr	r3, [r7, #20]
 800826c:	f893 3028 	ldrb.w	r3, [r3, #40]	; 0x28
 8008270:	f003 0304 	and.w	r3, r3, #4
 8008274:	2b00      	cmp	r3, #0
 8008276:	d021      	beq.n	80082bc <prvProcessExpiredTimer+0x70>
 8008278:	697b      	ldr	r3, [r7, #20]
 800827a:	699a      	ldr	r2, [r3, #24]
 800827c:	687b      	ldr	r3, [r7, #4]
 800827e:	18d1      	adds	r1, r2, r3
 8008280:	687b      	ldr	r3, [r7, #4]
 8008282:	683a      	ldr	r2, [r7, #0]
 8008284:	6978      	ldr	r0, [r7, #20]
 8008286:	f000 f8d1 	bl	800842c <prvInsertTimerInActiveList>
 800828a:	4603      	mov	r3, r0
 800828c:	2b00      	cmp	r3, #0
 800828e:	d01e      	beq.n	80082ce <prvProcessExpiredTimer+0x82>
 8008290:	2300      	movs	r3, #0
 8008292:	9300      	str	r3, [sp, #0]
 8008294:	2300      	movs	r3, #0
 8008296:	687a      	ldr	r2, [r7, #4]
 8008298:	2100      	movs	r1, #0
 800829a:	6978      	ldr	r0, [r7, #20]
 800829c:	f7ff ff8a 	bl	80081b4 <xTimerGenericCommand>
 80082a0:	6138      	str	r0, [r7, #16]
 80082a2:	693b      	ldr	r3, [r7, #16]
 80082a4:	2b00      	cmp	r3, #0
 80082a6:	d112      	bne.n	80082ce <prvProcessExpiredTimer+0x82>
 80082a8:	f04f 0350 	mov.w	r3, #80	; 0x50
 80082ac:	f383 8811 	msr	BASEPRI, r3
 80082b0:	f3bf 8f6f 	isb	sy
 80082b4:	f3bf 8f4f 	dsb	sy
 80082b8:	60fb      	str	r3, [r7, #12]
 80082ba:	e7fe      	b.n	80082ba <prvProcessExpiredTimer+0x6e>
 80082bc:	697b      	ldr	r3, [r7, #20]
 80082be:	f893 3028 	ldrb.w	r3, [r3, #40]	; 0x28
 80082c2:	f023 0301 	bic.w	r3, r3, #1
 80082c6:	b2da      	uxtb	r2, r3
 80082c8:	697b      	ldr	r3, [r7, #20]
 80082ca:	f883 2028 	strb.w	r2, [r3, #40]	; 0x28
 80082ce:	697b      	ldr	r3, [r7, #20]
 80082d0:	6a1b      	ldr	r3, [r3, #32]
 80082d2:	6978      	ldr	r0, [r7, #20]
 80082d4:	4798      	blx	r3
 80082d6:	bf00      	nop
 80082d8:	3718      	adds	r7, #24
 80082da:	46bd      	mov	sp, r7
 80082dc:	bd80      	pop	{r7, pc}
 80082de:	bf00      	nop
 80082e0:	20000c18 	.word	0x20000c18

080082e4 <prvTimerTask>:
 80082e4:	b580      	push	{r7, lr}
 80082e6:	b084      	sub	sp, #16
 80082e8:	af00      	add	r7, sp, #0
 80082ea:	6078      	str	r0, [r7, #4]
 80082ec:	f107 0308 	add.w	r3, r7, #8
 80082f0:	4618      	mov	r0, r3
 80082f2:	f000 f857 	bl	80083a4 <prvGetNextExpireTime>
 80082f6:	60f8      	str	r0, [r7, #12]
 80082f8:	68bb      	ldr	r3, [r7, #8]
 80082fa:	4619      	mov	r1, r3
 80082fc:	68f8      	ldr	r0, [r7, #12]
 80082fe:	f000 f803 	bl	8008308 <prvProcessTimerOrBlockTask>
 8008302:	f000 f8d5 	bl	80084b0 <prvProcessReceivedCommands>
 8008306:	e7f1      	b.n	80082ec <prvTimerTask+0x8>

08008308 <prvProcessTimerOrBlockTask>:
 8008308:	b580      	push	{r7, lr}
 800830a:	b084      	sub	sp, #16
 800830c:	af00      	add	r7, sp, #0
 800830e:	6078      	str	r0, [r7, #4]
 8008310:	6039      	str	r1, [r7, #0]
 8008312:	f7ff fa57 	bl	80077c4 <vTaskSuspendAll>
 8008316:	f107 0308 	add.w	r3, r7, #8
 800831a:	4618      	mov	r0, r3
 800831c:	f000 f866 	bl	80083ec <prvSampleTimeNow>
 8008320:	60f8      	str	r0, [r7, #12]
 8008322:	68bb      	ldr	r3, [r7, #8]
 8008324:	2b00      	cmp	r3, #0
 8008326:	d130      	bne.n	800838a <prvProcessTimerOrBlockTask+0x82>
 8008328:	683b      	ldr	r3, [r7, #0]
 800832a:	2b00      	cmp	r3, #0
 800832c:	d10a      	bne.n	8008344 <prvProcessTimerOrBlockTask+0x3c>
 800832e:	687a      	ldr	r2, [r7, #4]
 8008330:	68fb      	ldr	r3, [r7, #12]
 8008332:	429a      	cmp	r2, r3
 8008334:	d806      	bhi.n	8008344 <prvProcessTimerOrBlockTask+0x3c>
 8008336:	f7ff fa53 	bl	80077e0 <xTaskResumeAll>
 800833a:	68f9      	ldr	r1, [r7, #12]
 800833c:	6878      	ldr	r0, [r7, #4]
 800833e:	f7ff ff85 	bl	800824c <prvProcessExpiredTimer>
 8008342:	e024      	b.n	800838e <prvProcessTimerOrBlockTask+0x86>
 8008344:	683b      	ldr	r3, [r7, #0]
 8008346:	2b00      	cmp	r3, #0
 8008348:	d008      	beq.n	800835c <prvProcessTimerOrBlockTask+0x54>
 800834a:	4b13      	ldr	r3, [pc, #76]	; (8008398 <prvProcessTimerOrBlockTask+0x90>)
 800834c:	681b      	ldr	r3, [r3, #0]
 800834e:	681b      	ldr	r3, [r3, #0]
 8008350:	2b00      	cmp	r3, #0
 8008352:	d101      	bne.n	8008358 <prvProcessTimerOrBlockTask+0x50>
 8008354:	2301      	movs	r3, #1
 8008356:	e000      	b.n	800835a <prvProcessTimerOrBlockTask+0x52>
 8008358:	2300      	movs	r3, #0
 800835a:	603b      	str	r3, [r7, #0]
 800835c:	4b0f      	ldr	r3, [pc, #60]	; (800839c <prvProcessTimerOrBlockTask+0x94>)
 800835e:	6818      	ldr	r0, [r3, #0]
 8008360:	687a      	ldr	r2, [r7, #4]
 8008362:	68fb      	ldr	r3, [r7, #12]
 8008364:	1ad3      	subs	r3, r2, r3
 8008366:	683a      	ldr	r2, [r7, #0]
 8008368:	4619      	mov	r1, r3
 800836a:	f7fe ffbf 	bl	80072ec <vQueueWaitForMessageRestricted>
 800836e:	f7ff fa37 	bl	80077e0 <xTaskResumeAll>
 8008372:	4603      	mov	r3, r0
 8008374:	2b00      	cmp	r3, #0
 8008376:	d10a      	bne.n	800838e <prvProcessTimerOrBlockTask+0x86>
 8008378:	4b09      	ldr	r3, [pc, #36]	; (80083a0 <prvProcessTimerOrBlockTask+0x98>)
 800837a:	f04f 5280 	mov.w	r2, #268435456	; 0x10000000
 800837e:	601a      	str	r2, [r3, #0]
 8008380:	f3bf 8f4f 	dsb	sy
 8008384:	f3bf 8f6f 	isb	sy
 8008388:	e001      	b.n	800838e <prvProcessTimerOrBlockTask+0x86>
 800838a:	f7ff fa29 	bl	80077e0 <xTaskResumeAll>
 800838e:	bf00      	nop
 8008390:	3710      	adds	r7, #16
 8008392:	46bd      	mov	sp, r7
 8008394:	bd80      	pop	{r7, pc}
 8008396:	bf00      	nop
 8008398:	20000c1c 	.word	0x20000c1c
 800839c:	20000c20 	.word	0x20000c20
 80083a0:	e000ed04 	.word	0xe000ed04

080083a4 <prvGetNextExpireTime>:
 80083a4:	b480      	push	{r7}
 80083a6:	b085      	sub	sp, #20
 80083a8:	af00      	add	r7, sp, #0
 80083aa:	6078      	str	r0, [r7, #4]
 80083ac:	4b0e      	ldr	r3, [pc, #56]	; (80083e8 <prvGetNextExpireTime+0x44>)
 80083ae:	681b      	ldr	r3, [r3, #0]
 80083b0:	681b      	ldr	r3, [r3, #0]
 80083b2:	2b00      	cmp	r3, #0
 80083b4:	d101      	bne.n	80083ba <prvGetNextExpireTime+0x16>
 80083b6:	2201      	movs	r2, #1
 80083b8:	e000      	b.n	80083bc <prvGetNextExpireTime+0x18>
 80083ba:	2200      	movs	r2, #0
 80083bc:	687b      	ldr	r3, [r7, #4]
 80083be:	601a      	str	r2, [r3, #0]
 80083c0:	687b      	ldr	r3, [r7, #4]
 80083c2:	681b      	ldr	r3, [r3, #0]
 80083c4:	2b00      	cmp	r3, #0
 80083c6:	d105      	bne.n	80083d4 <prvGetNextExpireTime+0x30>
 80083c8:	4b07      	ldr	r3, [pc, #28]	; (80083e8 <prvGetNextExpireTime+0x44>)
 80083ca:	681b      	ldr	r3, [r3, #0]
 80083cc:	68db      	ldr	r3, [r3, #12]
 80083ce:	681b      	ldr	r3, [r3, #0]
 80083d0:	60fb      	str	r3, [r7, #12]
 80083d2:	e001      	b.n	80083d8 <prvGetNextExpireTime+0x34>
 80083d4:	2300      	movs	r3, #0
 80083d6:	60fb      	str	r3, [r7, #12]
 80083d8:	68fb      	ldr	r3, [r7, #12]
 80083da:	4618      	mov	r0, r3
 80083dc:	3714      	adds	r7, #20
 80083de:	46bd      	mov	sp, r7
 80083e0:	f85d 7b04 	ldr.w	r7, [sp], #4
 80083e4:	4770      	bx	lr
 80083e6:	bf00      	nop
 80083e8:	20000c18 	.word	0x20000c18

080083ec <prvSampleTimeNow>:
 80083ec:	b580      	push	{r7, lr}
 80083ee:	b084      	sub	sp, #16
 80083f0:	af00      	add	r7, sp, #0
 80083f2:	6078      	str	r0, [r7, #4]
 80083f4:	f7ff fa90 	bl	8007918 <xTaskGetTickCount>
 80083f8:	60f8      	str	r0, [r7, #12]
 80083fa:	4b0b      	ldr	r3, [pc, #44]	; (8008428 <prvSampleTimeNow+0x3c>)
 80083fc:	681b      	ldr	r3, [r3, #0]
 80083fe:	68fa      	ldr	r2, [r7, #12]
 8008400:	429a      	cmp	r2, r3
 8008402:	d205      	bcs.n	8008410 <prvSampleTimeNow+0x24>
 8008404:	f000 f930 	bl	8008668 <prvSwitchTimerLists>
 8008408:	687b      	ldr	r3, [r7, #4]
 800840a:	2201      	movs	r2, #1
 800840c:	601a      	str	r2, [r3, #0]
 800840e:	e002      	b.n	8008416 <prvSampleTimeNow+0x2a>
 8008410:	687b      	ldr	r3, [r7, #4]
 8008412:	2200      	movs	r2, #0
 8008414:	601a      	str	r2, [r3, #0]
 8008416:	4a04      	ldr	r2, [pc, #16]	; (8008428 <prvSampleTimeNow+0x3c>)
 8008418:	68fb      	ldr	r3, [r7, #12]
 800841a:	6013      	str	r3, [r2, #0]
 800841c:	68fb      	ldr	r3, [r7, #12]
 800841e:	4618      	mov	r0, r3
 8008420:	3710      	adds	r7, #16
 8008422:	46bd      	mov	sp, r7
 8008424:	bd80      	pop	{r7, pc}
 8008426:	bf00      	nop
 8008428:	20000c28 	.word	0x20000c28

0800842c <prvInsertTimerInActiveList>:
 800842c:	b580      	push	{r7, lr}
 800842e:	b086      	sub	sp, #24
 8008430:	af00      	add	r7, sp, #0
 8008432:	60f8      	str	r0, [r7, #12]
 8008434:	60b9      	str	r1, [r7, #8]
 8008436:	607a      	str	r2, [r7, #4]
 8008438:	603b      	str	r3, [r7, #0]
 800843a:	2300      	movs	r3, #0
 800843c:	617b      	str	r3, [r7, #20]
 800843e:	68fb      	ldr	r3, [r7, #12]
 8008440:	68ba      	ldr	r2, [r7, #8]
 8008442:	605a      	str	r2, [r3, #4]
 8008444:	68fb      	ldr	r3, [r7, #12]
 8008446:	68fa      	ldr	r2, [r7, #12]
 8008448:	611a      	str	r2, [r3, #16]
 800844a:	68ba      	ldr	r2, [r7, #8]
 800844c:	687b      	ldr	r3, [r7, #4]
 800844e:	429a      	cmp	r2, r3
 8008450:	d812      	bhi.n	8008478 <prvInsertTimerInActiveList+0x4c>
 8008452:	687a      	ldr	r2, [r7, #4]
 8008454:	683b      	ldr	r3, [r7, #0]
 8008456:	1ad2      	subs	r2, r2, r3
 8008458:	68fb      	ldr	r3, [r7, #12]
 800845a:	699b      	ldr	r3, [r3, #24]
 800845c:	429a      	cmp	r2, r3
 800845e:	d302      	bcc.n	8008466 <prvInsertTimerInActiveList+0x3a>
 8008460:	2301      	movs	r3, #1
 8008462:	617b      	str	r3, [r7, #20]
 8008464:	e01b      	b.n	800849e <prvInsertTimerInActiveList+0x72>
 8008466:	4b10      	ldr	r3, [pc, #64]	; (80084a8 <prvInsertTimerInActiveList+0x7c>)
 8008468:	681a      	ldr	r2, [r3, #0]
 800846a:	68fb      	ldr	r3, [r7, #12]
 800846c:	3304      	adds	r3, #4
 800846e:	4619      	mov	r1, r3
 8008470:	4610      	mov	r0, r2
 8008472:	f7fe fa38 	bl	80068e6 <vListInsert>
 8008476:	e012      	b.n	800849e <prvInsertTimerInActiveList+0x72>
 8008478:	687a      	ldr	r2, [r7, #4]
 800847a:	683b      	ldr	r3, [r7, #0]
 800847c:	429a      	cmp	r2, r3
 800847e:	d206      	bcs.n	800848e <prvInsertTimerInActiveList+0x62>
 8008480:	68ba      	ldr	r2, [r7, #8]
 8008482:	683b      	ldr	r3, [r7, #0]
 8008484:	429a      	cmp	r2, r3
 8008486:	d302      	bcc.n	800848e <prvInsertTimerInActiveList+0x62>
 8008488:	2301      	movs	r3, #1
 800848a:	617b      	str	r3, [r7, #20]
 800848c:	e007      	b.n	800849e <prvInsertTimerInActiveList+0x72>
 800848e:	4b07      	ldr	r3, [pc, #28]	; (80084ac <prvInsertTimerInActiveList+0x80>)
 8008490:	681a      	ldr	r2, [r3, #0]
 8008492:	68fb      	ldr	r3, [r7, #12]
 8008494:	3304      	adds	r3, #4
 8008496:	4619      	mov	r1, r3
 8008498:	4610      	mov	r0, r2
 800849a:	f7fe fa24 	bl	80068e6 <vListInsert>
 800849e:	697b      	ldr	r3, [r7, #20]
 80084a0:	4618      	mov	r0, r3
 80084a2:	3718      	adds	r7, #24
 80084a4:	46bd      	mov	sp, r7
 80084a6:	bd80      	pop	{r7, pc}
 80084a8:	20000c1c 	.word	0x20000c1c
 80084ac:	20000c18 	.word	0x20000c18

080084b0 <prvProcessReceivedCommands>:
 80084b0:	b580      	push	{r7, lr}
 80084b2:	b08e      	sub	sp, #56	; 0x38
 80084b4:	af02      	add	r7, sp, #8
 80084b6:	e0c6      	b.n	8008646 <prvProcessReceivedCommands+0x196>
 80084b8:	687b      	ldr	r3, [r7, #4]
 80084ba:	2b00      	cmp	r3, #0
 80084bc:	da17      	bge.n	80084ee <prvProcessReceivedCommands+0x3e>
 80084be:	1d3b      	adds	r3, r7, #4
 80084c0:	3304      	adds	r3, #4
 80084c2:	62fb      	str	r3, [r7, #44]	; 0x2c
 80084c4:	6afb      	ldr	r3, [r7, #44]	; 0x2c
 80084c6:	2b00      	cmp	r3, #0
 80084c8:	d109      	bne.n	80084de <prvProcessReceivedCommands+0x2e>
 80084ca:	f04f 0350 	mov.w	r3, #80	; 0x50
 80084ce:	f383 8811 	msr	BASEPRI, r3
 80084d2:	f3bf 8f6f 	isb	sy
 80084d6:	f3bf 8f4f 	dsb	sy
 80084da:	61fb      	str	r3, [r7, #28]
 80084dc:	e7fe      	b.n	80084dc <prvProcessReceivedCommands+0x2c>
 80084de:	6afb      	ldr	r3, [r7, #44]	; 0x2c
 80084e0:	681b      	ldr	r3, [r3, #0]
 80084e2:	6afa      	ldr	r2, [r7, #44]	; 0x2c
 80084e4:	6850      	ldr	r0, [r2, #4]
 80084e6:	6afa      	ldr	r2, [r7, #44]	; 0x2c
 80084e8:	6892      	ldr	r2, [r2, #8]
 80084ea:	4611      	mov	r1, r2
 80084ec:	4798      	blx	r3
 80084ee:	687b      	ldr	r3, [r7, #4]
 80084f0:	2b00      	cmp	r3, #0
 80084f2:	f2c0 80a7 	blt.w	8008644 <prvProcessReceivedCommands+0x194>
 80084f6:	68fb      	ldr	r3, [r7, #12]
 80084f8:	62bb      	str	r3, [r7, #40]	; 0x28
 80084fa:	6abb      	ldr	r3, [r7, #40]	; 0x28
 80084fc:	695b      	ldr	r3, [r3, #20]
 80084fe:	2b00      	cmp	r3, #0
 8008500:	d004      	beq.n	800850c <prvProcessReceivedCommands+0x5c>
 8008502:	6abb      	ldr	r3, [r7, #40]	; 0x28
 8008504:	3304      	adds	r3, #4
 8008506:	4618      	mov	r0, r3
 8008508:	f7fe fa26 	bl	8006958 <uxListRemove>
 800850c:	463b      	mov	r3, r7
 800850e:	4618      	mov	r0, r3
 8008510:	f7ff ff6c 	bl	80083ec <prvSampleTimeNow>
 8008514:	6278      	str	r0, [r7, #36]	; 0x24
 8008516:	687b      	ldr	r3, [r7, #4]
 8008518:	2b09      	cmp	r3, #9
 800851a:	f200 8094 	bhi.w	8008646 <prvProcessReceivedCommands+0x196>
 800851e:	a201      	add	r2, pc, #4	; (adr r2, 8008524 <prvProcessReceivedCommands+0x74>)
 8008520:	f852 f023 	ldr.w	pc, [r2, r3, lsl #2]
 8008524:	0800854d 	.word	0x0800854d
 8008528:	0800854d 	.word	0x0800854d
 800852c:	0800854d 	.word	0x0800854d
 8008530:	080085bf 	.word	0x080085bf
 8008534:	080085d3 	.word	0x080085d3
 8008538:	0800861b 	.word	0x0800861b
 800853c:	0800854d 	.word	0x0800854d
 8008540:	0800854d 	.word	0x0800854d
 8008544:	080085bf 	.word	0x080085bf
 8008548:	080085d3 	.word	0x080085d3
 800854c:	6abb      	ldr	r3, [r7, #40]	; 0x28
 800854e:	f893 3028 	ldrb.w	r3, [r3, #40]	; 0x28
 8008552:	f043 0301 	orr.w	r3, r3, #1
 8008556:	b2da      	uxtb	r2, r3
 8008558:	6abb      	ldr	r3, [r7, #40]	; 0x28
 800855a:	f883 2028 	strb.w	r2, [r3, #40]	; 0x28
 800855e:	68ba      	ldr	r2, [r7, #8]
 8008560:	6abb      	ldr	r3, [r7, #40]	; 0x28
 8008562:	699b      	ldr	r3, [r3, #24]
 8008564:	18d1      	adds	r1, r2, r3
 8008566:	68bb      	ldr	r3, [r7, #8]
 8008568:	6a7a      	ldr	r2, [r7, #36]	; 0x24
 800856a:	6ab8      	ldr	r0, [r7, #40]	; 0x28
 800856c:	f7ff ff5e 	bl	800842c <prvInsertTimerInActiveList>
 8008570:	4603      	mov	r3, r0
 8008572:	2b00      	cmp	r3, #0
 8008574:	d067      	beq.n	8008646 <prvProcessReceivedCommands+0x196>
 8008576:	6abb      	ldr	r3, [r7, #40]	; 0x28
 8008578:	6a1b      	ldr	r3, [r3, #32]
 800857a:	6ab8      	ldr	r0, [r7, #40]	; 0x28
 800857c:	4798      	blx	r3
 800857e:	6abb      	ldr	r3, [r7, #40]	; 0x28
 8008580:	f893 3028 	ldrb.w	r3, [r3, #40]	; 0x28
 8008584:	f003 0304 	and.w	r3, r3, #4
 8008588:	2b00      	cmp	r3, #0
 800858a:	d05c      	beq.n	8008646 <prvProcessReceivedCommands+0x196>
 800858c:	68ba      	ldr	r2, [r7, #8]
 800858e:	6abb      	ldr	r3, [r7, #40]	; 0x28
 8008590:	699b      	ldr	r3, [r3, #24]
 8008592:	441a      	add	r2, r3
 8008594:	2300      	movs	r3, #0
 8008596:	9300      	str	r3, [sp, #0]
 8008598:	2300      	movs	r3, #0
 800859a:	2100      	movs	r1, #0
 800859c:	6ab8      	ldr	r0, [r7, #40]	; 0x28
 800859e:	f7ff fe09 	bl	80081b4 <xTimerGenericCommand>
 80085a2:	6238      	str	r0, [r7, #32]
 80085a4:	6a3b      	ldr	r3, [r7, #32]
 80085a6:	2b00      	cmp	r3, #0
 80085a8:	d14d      	bne.n	8008646 <prvProcessReceivedCommands+0x196>
 80085aa:	f04f 0350 	mov.w	r3, #80	; 0x50
 80085ae:	f383 8811 	msr	BASEPRI, r3
 80085b2:	f3bf 8f6f 	isb	sy
 80085b6:	f3bf 8f4f 	dsb	sy
 80085ba:	61bb      	str	r3, [r7, #24]
 80085bc:	e7fe      	b.n	80085bc <prvProcessReceivedCommands+0x10c>
 80085be:	6abb      	ldr	r3, [r7, #40]	; 0x28
 80085c0:	f893 3028 	ldrb.w	r3, [r3, #40]	; 0x28
 80085c4:	f023 0301 	bic.w	r3, r3, #1
 80085c8:	b2da      	uxtb	r2, r3
 80085ca:	6abb      	ldr	r3, [r7, #40]	; 0x28
 80085cc:	f883 2028 	strb.w	r2, [r3, #40]	; 0x28
 80085d0:	e039      	b.n	8008646 <prvProcessReceivedCommands+0x196>
 80085d2:	6abb      	ldr	r3, [r7, #40]	; 0x28
 80085d4:	f893 3028 	ldrb.w	r3, [r3, #40]	; 0x28
 80085d8:	f043 0301 	orr.w	r3, r3, #1
 80085dc:	b2da      	uxtb	r2, r3
 80085de:	6abb      	ldr	r3, [r7, #40]	; 0x28
 80085e0:	f883 2028 	strb.w	r2, [r3, #40]	; 0x28
 80085e4:	68ba      	ldr	r2, [r7, #8]
 80085e6:	6abb      	ldr	r3, [r7, #40]	; 0x28
 80085e8:	619a      	str	r2, [r3, #24]
 80085ea:	6abb      	ldr	r3, [r7, #40]	; 0x28
 80085ec:	699b      	ldr	r3, [r3, #24]
 80085ee:	2b00      	cmp	r3, #0
 80085f0:	d109      	bne.n	8008606 <prvProcessReceivedCommands+0x156>
 80085f2:	f04f 0350 	mov.w	r3, #80	; 0x50
 80085f6:	f383 8811 	msr	BASEPRI, r3
 80085fa:	f3bf 8f6f 	isb	sy
 80085fe:	f3bf 8f4f 	dsb	sy
 8008602:	617b      	str	r3, [r7, #20]
 8008604:	e7fe      	b.n	8008604 <prvProcessReceivedCommands+0x154>
 8008606:	6abb      	ldr	r3, [r7, #40]	; 0x28
 8008608:	699a      	ldr	r2, [r3, #24]
 800860a:	6a7b      	ldr	r3, [r7, #36]	; 0x24
 800860c:	18d1      	adds	r1, r2, r3
 800860e:	6a7b      	ldr	r3, [r7, #36]	; 0x24
 8008610:	6a7a      	ldr	r2, [r7, #36]	; 0x24
 8008612:	6ab8      	ldr	r0, [r7, #40]	; 0x28
 8008614:	f7ff ff0a 	bl	800842c <prvInsertTimerInActiveList>
 8008618:	e015      	b.n	8008646 <prvProcessReceivedCommands+0x196>
 800861a:	6abb      	ldr	r3, [r7, #40]	; 0x28
 800861c:	f893 3028 	ldrb.w	r3, [r3, #40]	; 0x28
 8008620:	f003 0302 	and.w	r3, r3, #2
 8008624:	2b00      	cmp	r3, #0
 8008626:	d103      	bne.n	8008630 <prvProcessReceivedCommands+0x180>
 8008628:	6ab8      	ldr	r0, [r7, #40]	; 0x28
 800862a:	f000 fbc3 	bl	8008db4 <vPortFree>
 800862e:	e00a      	b.n	8008646 <prvProcessReceivedCommands+0x196>
 8008630:	6abb      	ldr	r3, [r7, #40]	; 0x28
 8008632:	f893 3028 	ldrb.w	r3, [r3, #40]	; 0x28
 8008636:	f023 0301 	bic.w	r3, r3, #1
 800863a:	b2da      	uxtb	r2, r3
 800863c:	6abb      	ldr	r3, [r7, #40]	; 0x28
 800863e:	f883 2028 	strb.w	r2, [r3, #40]	; 0x28
 8008642:	e000      	b.n	8008646 <prvProcessReceivedCommands+0x196>
 8008644:	bf00      	nop
 8008646:	4b07      	ldr	r3, [pc, #28]	; (8008664 <prvProcessReceivedCommands+0x1b4>)
 8008648:	681b      	ldr	r3, [r3, #0]
 800864a:	1d39      	adds	r1, r7, #4
 800864c:	2200      	movs	r2, #0
 800864e:	4618      	mov	r0, r3
 8008650:	f7fe fc38 	bl	8006ec4 <xQueueReceive>
 8008654:	4603      	mov	r3, r0
 8008656:	2b00      	cmp	r3, #0
 8008658:	f47f af2e 	bne.w	80084b8 <prvProcessReceivedCommands+0x8>
 800865c:	bf00      	nop
 800865e:	3730      	adds	r7, #48	; 0x30
 8008660:	46bd      	mov	sp, r7
 8008662:	bd80      	pop	{r7, pc}
 8008664:	20000c20 	.word	0x20000c20

08008668 <prvSwitchTimerLists>:
 8008668:	b580      	push	{r7, lr}
 800866a:	b088      	sub	sp, #32
 800866c:	af02      	add	r7, sp, #8
 800866e:	e047      	b.n	8008700 <prvSwitchTimerLists+0x98>
 8008670:	4b2d      	ldr	r3, [pc, #180]	; (8008728 <prvSwitchTimerLists+0xc0>)
 8008672:	681b      	ldr	r3, [r3, #0]
 8008674:	68db      	ldr	r3, [r3, #12]
 8008676:	681b      	ldr	r3, [r3, #0]
 8008678:	613b      	str	r3, [r7, #16]
 800867a:	4b2b      	ldr	r3, [pc, #172]	; (8008728 <prvSwitchTimerLists+0xc0>)
 800867c:	681b      	ldr	r3, [r3, #0]
 800867e:	68db      	ldr	r3, [r3, #12]
 8008680:	68db      	ldr	r3, [r3, #12]
 8008682:	60fb      	str	r3, [r7, #12]
 8008684:	68fb      	ldr	r3, [r7, #12]
 8008686:	3304      	adds	r3, #4
 8008688:	4618      	mov	r0, r3
 800868a:	f7fe f965 	bl	8006958 <uxListRemove>
 800868e:	68fb      	ldr	r3, [r7, #12]
 8008690:	6a1b      	ldr	r3, [r3, #32]
 8008692:	68f8      	ldr	r0, [r7, #12]
 8008694:	4798      	blx	r3
 8008696:	68fb      	ldr	r3, [r7, #12]
 8008698:	f893 3028 	ldrb.w	r3, [r3, #40]	; 0x28
 800869c:	f003 0304 	and.w	r3, r3, #4
 80086a0:	2b00      	cmp	r3, #0
 80086a2:	d02d      	beq.n	8008700 <prvSwitchTimerLists+0x98>
 80086a4:	68fb      	ldr	r3, [r7, #12]
 80086a6:	699b      	ldr	r3, [r3, #24]
 80086a8:	693a      	ldr	r2, [r7, #16]
 80086aa:	4413      	add	r3, r2
 80086ac:	60bb      	str	r3, [r7, #8]
 80086ae:	68ba      	ldr	r2, [r7, #8]
 80086b0:	693b      	ldr	r3, [r7, #16]
 80086b2:	429a      	cmp	r2, r3
 80086b4:	d90e      	bls.n	80086d4 <prvSwitchTimerLists+0x6c>
 80086b6:	68fb      	ldr	r3, [r7, #12]
 80086b8:	68ba      	ldr	r2, [r7, #8]
 80086ba:	605a      	str	r2, [r3, #4]
 80086bc:	68fb      	ldr	r3, [r7, #12]
 80086be:	68fa      	ldr	r2, [r7, #12]
 80086c0:	611a      	str	r2, [r3, #16]
 80086c2:	4b19      	ldr	r3, [pc, #100]	; (8008728 <prvSwitchTimerLists+0xc0>)
 80086c4:	681a      	ldr	r2, [r3, #0]
 80086c6:	68fb      	ldr	r3, [r7, #12]
 80086c8:	3304      	adds	r3, #4
 80086ca:	4619      	mov	r1, r3
 80086cc:	4610      	mov	r0, r2
 80086ce:	f7fe f90a 	bl	80068e6 <vListInsert>
 80086d2:	e015      	b.n	8008700 <prvSwitchTimerLists+0x98>
 80086d4:	2300      	movs	r3, #0
 80086d6:	9300      	str	r3, [sp, #0]
 80086d8:	2300      	movs	r3, #0
 80086da:	693a      	ldr	r2, [r7, #16]
 80086dc:	2100      	movs	r1, #0
 80086de:	68f8      	ldr	r0, [r7, #12]
 80086e0:	f7ff fd68 	bl	80081b4 <xTimerGenericCommand>
 80086e4:	6078      	str	r0, [r7, #4]
 80086e6:	687b      	ldr	r3, [r7, #4]
 80086e8:	2b00      	cmp	r3, #0
 80086ea:	d109      	bne.n	8008700 <prvSwitchTimerLists+0x98>
 80086ec:	f04f 0350 	mov.w	r3, #80	; 0x50
 80086f0:	f383 8811 	msr	BASEPRI, r3
 80086f4:	f3bf 8f6f 	isb	sy
 80086f8:	f3bf 8f4f 	dsb	sy
 80086fc:	603b      	str	r3, [r7, #0]
 80086fe:	e7fe      	b.n	80086fe <prvSwitchTimerLists+0x96>
 8008700:	4b09      	ldr	r3, [pc, #36]	; (8008728 <prvSwitchTimerLists+0xc0>)
 8008702:	681b      	ldr	r3, [r3, #0]
 8008704:	681b      	ldr	r3, [r3, #0]
 8008706:	2b00      	cmp	r3, #0
 8008708:	d1b2      	bne.n	8008670 <prvSwitchTimerLists+0x8>
 800870a:	4b07      	ldr	r3, [pc, #28]	; (8008728 <prvSwitchTimerLists+0xc0>)
 800870c:	681b      	ldr	r3, [r3, #0]
 800870e:	617b      	str	r3, [r7, #20]
 8008710:	4b06      	ldr	r3, [pc, #24]	; (800872c <prvSwitchTimerLists+0xc4>)
 8008712:	681b      	ldr	r3, [r3, #0]
 8008714:	4a04      	ldr	r2, [pc, #16]	; (8008728 <prvSwitchTimerLists+0xc0>)
 8008716:	6013      	str	r3, [r2, #0]
 8008718:	4a04      	ldr	r2, [pc, #16]	; (800872c <prvSwitchTimerLists+0xc4>)
 800871a:	697b      	ldr	r3, [r7, #20]
 800871c:	6013      	str	r3, [r2, #0]
 800871e:	bf00      	nop
 8008720:	3718      	adds	r7, #24
 8008722:	46bd      	mov	sp, r7
 8008724:	bd80      	pop	{r7, pc}
 8008726:	bf00      	nop
 8008728:	20000c18 	.word	0x20000c18
 800872c:	20000c1c 	.word	0x20000c1c

08008730 <prvCheckForValidListAndQueue>:
 8008730:	b580      	push	{r7, lr}
 8008732:	b082      	sub	sp, #8
 8008734:	af02      	add	r7, sp, #8
 8008736:	f000 f961 	bl	80089fc <vPortEnterCritical>
 800873a:	4b15      	ldr	r3, [pc, #84]	; (8008790 <prvCheckForValidListAndQueue+0x60>)
 800873c:	681b      	ldr	r3, [r3, #0]
 800873e:	2b00      	cmp	r3, #0
 8008740:	d120      	bne.n	8008784 <prvCheckForValidListAndQueue+0x54>
 8008742:	4814      	ldr	r0, [pc, #80]	; (8008794 <prvCheckForValidListAndQueue+0x64>)
 8008744:	f7fe f87e 	bl	8006844 <vListInitialise>
 8008748:	4813      	ldr	r0, [pc, #76]	; (8008798 <prvCheckForValidListAndQueue+0x68>)
 800874a:	f7fe f87b 	bl	8006844 <vListInitialise>
 800874e:	4b13      	ldr	r3, [pc, #76]	; (800879c <prvCheckForValidListAndQueue+0x6c>)
 8008750:	4a10      	ldr	r2, [pc, #64]	; (8008794 <prvCheckForValidListAndQueue+0x64>)
 8008752:	601a      	str	r2, [r3, #0]
 8008754:	4b12      	ldr	r3, [pc, #72]	; (80087a0 <prvCheckForValidListAndQueue+0x70>)
 8008756:	4a10      	ldr	r2, [pc, #64]	; (8008798 <prvCheckForValidListAndQueue+0x68>)
 8008758:	601a      	str	r2, [r3, #0]
 800875a:	2300      	movs	r3, #0
 800875c:	9300      	str	r3, [sp, #0]
 800875e:	4b11      	ldr	r3, [pc, #68]	; (80087a4 <prvCheckForValidListAndQueue+0x74>)
 8008760:	4a11      	ldr	r2, [pc, #68]	; (80087a8 <prvCheckForValidListAndQueue+0x78>)
 8008762:	2110      	movs	r1, #16
 8008764:	200a      	movs	r0, #10
 8008766:	f7fe f989 	bl	8006a7c <xQueueGenericCreateStatic>
 800876a:	4602      	mov	r2, r0
 800876c:	4b08      	ldr	r3, [pc, #32]	; (8008790 <prvCheckForValidListAndQueue+0x60>)
 800876e:	601a      	str	r2, [r3, #0]
 8008770:	4b07      	ldr	r3, [pc, #28]	; (8008790 <prvCheckForValidListAndQueue+0x60>)
 8008772:	681b      	ldr	r3, [r3, #0]
 8008774:	2b00      	cmp	r3, #0
 8008776:	d005      	beq.n	8008784 <prvCheckForValidListAndQueue+0x54>
 8008778:	4b05      	ldr	r3, [pc, #20]	; (8008790 <prvCheckForValidListAndQueue+0x60>)
 800877a:	681b      	ldr	r3, [r3, #0]
 800877c:	490b      	ldr	r1, [pc, #44]	; (80087ac <prvCheckForValidListAndQueue+0x7c>)
 800877e:	4618      	mov	r0, r3
 8008780:	f7fe fd8c 	bl	800729c <vQueueAddToRegistry>
 8008784:	f000 f968 	bl	8008a58 <vPortExitCritical>
 8008788:	bf00      	nop
 800878a:	46bd      	mov	sp, r7
 800878c:	bd80      	pop	{r7, pc}
 800878e:	bf00      	nop
 8008790:	20000c20 	.word	0x20000c20
 8008794:	20000bf0 	.word	0x20000bf0
 8008798:	20000c04 	.word	0x20000c04
 800879c:	20000c18 	.word	0x20000c18
 80087a0:	20000c1c 	.word	0x20000c1c
 80087a4:	20000ccc 	.word	0x20000ccc
 80087a8:	20000c2c 	.word	0x20000c2c
 80087ac:	08009110 	.word	0x08009110

080087b0 <pxPortInitialiseStack>:
 80087b0:	b480      	push	{r7}
 80087b2:	b085      	sub	sp, #20
 80087b4:	af00      	add	r7, sp, #0
 80087b6:	60f8      	str	r0, [r7, #12]
 80087b8:	60b9      	str	r1, [r7, #8]
 80087ba:	607a      	str	r2, [r7, #4]
 80087bc:	68fb      	ldr	r3, [r7, #12]
 80087be:	3b04      	subs	r3, #4
 80087c0:	60fb      	str	r3, [r7, #12]
 80087c2:	68fb      	ldr	r3, [r7, #12]
 80087c4:	f04f 7280 	mov.w	r2, #16777216	; 0x1000000
 80087c8:	601a      	str	r2, [r3, #0]
 80087ca:	68fb      	ldr	r3, [r7, #12]
 80087cc:	3b04      	subs	r3, #4
 80087ce:	60fb      	str	r3, [r7, #12]
 80087d0:	68bb      	ldr	r3, [r7, #8]
 80087d2:	f023 0201 	bic.w	r2, r3, #1
 80087d6:	68fb      	ldr	r3, [r7, #12]
 80087d8:	601a      	str	r2, [r3, #0]
 80087da:	68fb      	ldr	r3, [r7, #12]
 80087dc:	3b04      	subs	r3, #4
 80087de:	60fb      	str	r3, [r7, #12]
 80087e0:	4a0c      	ldr	r2, [pc, #48]	; (8008814 <pxPortInitialiseStack+0x64>)
 80087e2:	68fb      	ldr	r3, [r7, #12]
 80087e4:	601a      	str	r2, [r3, #0]
 80087e6:	68fb      	ldr	r3, [r7, #12]
 80087e8:	3b14      	subs	r3, #20
 80087ea:	60fb      	str	r3, [r7, #12]
 80087ec:	687a      	ldr	r2, [r7, #4]
 80087ee:	68fb      	ldr	r3, [r7, #12]
 80087f0:	601a      	str	r2, [r3, #0]
 80087f2:	68fb      	ldr	r3, [r7, #12]
 80087f4:	3b04      	subs	r3, #4
 80087f6:	60fb      	str	r3, [r7, #12]
 80087f8:	68fb      	ldr	r3, [r7, #12]
 80087fa:	f06f 0202 	mvn.w	r2, #2
 80087fe:	601a      	str	r2, [r3, #0]
 8008800:	68fb      	ldr	r3, [r7, #12]
 8008802:	3b20      	subs	r3, #32
 8008804:	60fb      	str	r3, [r7, #12]
 8008806:	68fb      	ldr	r3, [r7, #12]
 8008808:	4618      	mov	r0, r3
 800880a:	3714      	adds	r7, #20
 800880c:	46bd      	mov	sp, r7
 800880e:	f85d 7b04 	ldr.w	r7, [sp], #4
 8008812:	4770      	bx	lr
 8008814:	08008819 	.word	0x08008819

08008818 <prvTaskExitError>:
 8008818:	b480      	push	{r7}
 800881a:	b085      	sub	sp, #20
 800881c:	af00      	add	r7, sp, #0
 800881e:	2300      	movs	r3, #0
 8008820:	607b      	str	r3, [r7, #4]
 8008822:	4b11      	ldr	r3, [pc, #68]	; (8008868 <prvTaskExitError+0x50>)
 8008824:	681b      	ldr	r3, [r3, #0]
 8008826:	f1b3 3fff 	cmp.w	r3, #4294967295
 800882a:	d009      	beq.n	8008840 <prvTaskExitError+0x28>
 800882c:	f04f 0350 	mov.w	r3, #80	; 0x50
 8008830:	f383 8811 	msr	BASEPRI, r3
 8008834:	f3bf 8f6f 	isb	sy
 8008838:	f3bf 8f4f 	dsb	sy
 800883c:	60fb      	str	r3, [r7, #12]
 800883e:	e7fe      	b.n	800883e <prvTaskExitError+0x26>
 8008840:	f04f 0350 	mov.w	r3, #80	; 0x50
 8008844:	f383 8811 	msr	BASEPRI, r3
 8008848:	f3bf 8f6f 	isb	sy
 800884c:	f3bf 8f4f 	dsb	sy
 8008850:	60bb      	str	r3, [r7, #8]
 8008852:	bf00      	nop
 8008854:	687b      	ldr	r3, [r7, #4]
 8008856:	2b00      	cmp	r3, #0
 8008858:	d0fc      	beq.n	8008854 <prvTaskExitError+0x3c>
 800885a:	bf00      	nop
 800885c:	3714      	adds	r7, #20
 800885e:	46bd      	mov	sp, r7
 8008860:	f85d 7b04 	ldr.w	r7, [sp], #4
 8008864:	4770      	bx	lr
 8008866:	bf00      	nop
 8008868:	2000000c 	.word	0x2000000c
 800886c:	00000000 	.word	0x00000000

08008870 <SVC_Handler>:
 8008870:	4b07      	ldr	r3, [pc, #28]	; (8008890 <pxCurrentTCBConst2>)
 8008872:	6819      	ldr	r1, [r3, #0]
 8008874:	6808      	ldr	r0, [r1, #0]
 8008876:	e8b0 4ff0 	ldmia.w	r0!, {r4, r5, r6, r7, r8, r9, sl, fp, lr}
 800887a:	f380 8809 	msr	PSP, r0
 800887e:	f3bf 8f6f 	isb	sy
 8008882:	f04f 0000 	mov.w	r0, #0
 8008886:	f380 8811 	msr	BASEPRI, r0
 800888a:	4770      	bx	lr
 800888c:	f3af 8000 	nop.w

08008890 <pxCurrentTCBConst2>:
 8008890:	200006f0 	.word	0x200006f0
 8008894:	bf00      	nop
 8008896:	bf00      	nop

08008898 <prvPortStartFirstTask>:
 8008898:	4808      	ldr	r0, [pc, #32]	; (80088bc <prvPortStartFirstTask+0x24>)
 800889a:	6800      	ldr	r0, [r0, #0]
 800889c:	6800      	ldr	r0, [r0, #0]
 800889e:	f380 8808 	msr	MSP, r0
 80088a2:	f04f 0000 	mov.w	r0, #0
 80088a6:	f380 8814 	msr	CONTROL, r0
 80088aa:	b662      	cpsie	i
 80088ac:	b661      	cpsie	f
 80088ae:	f3bf 8f4f 	dsb	sy
 80088b2:	f3bf 8f6f 	isb	sy
 80088b6:	df00      	svc	0
 80088b8:	bf00      	nop
 80088ba:	bf00      	nop
 80088bc:	e000ed08 	.word	0xe000ed08

080088c0 <xPortStartScheduler>:
 80088c0:	b580      	push	{r7, lr}
 80088c2:	b086      	sub	sp, #24
 80088c4:	af00      	add	r7, sp, #0
 80088c6:	4b44      	ldr	r3, [pc, #272]	; (80089d8 <xPortStartScheduler+0x118>)
 80088c8:	681b      	ldr	r3, [r3, #0]
 80088ca:	4a44      	ldr	r2, [pc, #272]	; (80089dc <xPortStartScheduler+0x11c>)
 80088cc:	4293      	cmp	r3, r2
 80088ce:	d109      	bne.n	80088e4 <xPortStartScheduler+0x24>
 80088d0:	f04f 0350 	mov.w	r3, #80	; 0x50
 80088d4:	f383 8811 	msr	BASEPRI, r3
 80088d8:	f3bf 8f6f 	isb	sy
 80088dc:	f3bf 8f4f 	dsb	sy
 80088e0:	613b      	str	r3, [r7, #16]
 80088e2:	e7fe      	b.n	80088e2 <xPortStartScheduler+0x22>
 80088e4:	4b3c      	ldr	r3, [pc, #240]	; (80089d8 <xPortStartScheduler+0x118>)
 80088e6:	681b      	ldr	r3, [r3, #0]
 80088e8:	4a3d      	ldr	r2, [pc, #244]	; (80089e0 <xPortStartScheduler+0x120>)
 80088ea:	4293      	cmp	r3, r2
 80088ec:	d109      	bne.n	8008902 <xPortStartScheduler+0x42>
 80088ee:	f04f 0350 	mov.w	r3, #80	; 0x50
 80088f2:	f383 8811 	msr	BASEPRI, r3
 80088f6:	f3bf 8f6f 	isb	sy
 80088fa:	f3bf 8f4f 	dsb	sy
 80088fe:	60fb      	str	r3, [r7, #12]
 8008900:	e7fe      	b.n	8008900 <xPortStartScheduler+0x40>
 8008902:	4b38      	ldr	r3, [pc, #224]	; (80089e4 <xPortStartScheduler+0x124>)
 8008904:	617b      	str	r3, [r7, #20]
 8008906:	697b      	ldr	r3, [r7, #20]
 8008908:	781b      	ldrb	r3, [r3, #0]
 800890a:	b2db      	uxtb	r3, r3
 800890c:	607b      	str	r3, [r7, #4]
 800890e:	697b      	ldr	r3, [r7, #20]
 8008910:	22ff      	movs	r2, #255	; 0xff
 8008912:	701a      	strb	r2, [r3, #0]
 8008914:	697b      	ldr	r3, [r7, #20]
 8008916:	781b      	ldrb	r3, [r3, #0]
 8008918:	b2db      	uxtb	r3, r3
 800891a:	70fb      	strb	r3, [r7, #3]
 800891c:	78fb      	ldrb	r3, [r7, #3]
 800891e:	b2db      	uxtb	r3, r3
 8008920:	f003 0350 	and.w	r3, r3, #80	; 0x50
 8008924:	b2da      	uxtb	r2, r3
 8008926:	4b30      	ldr	r3, [pc, #192]	; (80089e8 <xPortStartScheduler+0x128>)
 8008928:	701a      	strb	r2, [r3, #0]
 800892a:	4b30      	ldr	r3, [pc, #192]	; (80089ec <xPortStartScheduler+0x12c>)
 800892c:	2207      	movs	r2, #7
 800892e:	601a      	str	r2, [r3, #0]
 8008930:	e009      	b.n	8008946 <xPortStartScheduler+0x86>
 8008932:	4b2e      	ldr	r3, [pc, #184]	; (80089ec <xPortStartScheduler+0x12c>)
 8008934:	681b      	ldr	r3, [r3, #0]
 8008936:	3b01      	subs	r3, #1
 8008938:	4a2c      	ldr	r2, [pc, #176]	; (80089ec <xPortStartScheduler+0x12c>)
 800893a:	6013      	str	r3, [r2, #0]
 800893c:	78fb      	ldrb	r3, [r7, #3]
 800893e:	b2db      	uxtb	r3, r3
 8008940:	005b      	lsls	r3, r3, #1
 8008942:	b2db      	uxtb	r3, r3
 8008944:	70fb      	strb	r3, [r7, #3]
 8008946:	78fb      	ldrb	r3, [r7, #3]
 8008948:	b2db      	uxtb	r3, r3
 800894a:	f003 0380 	and.w	r3, r3, #128	; 0x80
 800894e:	2b80      	cmp	r3, #128	; 0x80
 8008950:	d0ef      	beq.n	8008932 <xPortStartScheduler+0x72>
 8008952:	4b26      	ldr	r3, [pc, #152]	; (80089ec <xPortStartScheduler+0x12c>)
 8008954:	681b      	ldr	r3, [r3, #0]
 8008956:	f1c3 0307 	rsb	r3, r3, #7
 800895a:	2b04      	cmp	r3, #4
 800895c:	d009      	beq.n	8008972 <xPortStartScheduler+0xb2>
 800895e:	f04f 0350 	mov.w	r3, #80	; 0x50
 8008962:	f383 8811 	msr	BASEPRI, r3
 8008966:	f3bf 8f6f 	isb	sy
 800896a:	f3bf 8f4f 	dsb	sy
 800896e:	60bb      	str	r3, [r7, #8]
 8008970:	e7fe      	b.n	8008970 <xPortStartScheduler+0xb0>
 8008972:	4b1e      	ldr	r3, [pc, #120]	; (80089ec <xPortStartScheduler+0x12c>)
 8008974:	681b      	ldr	r3, [r3, #0]
 8008976:	021b      	lsls	r3, r3, #8
 8008978:	4a1c      	ldr	r2, [pc, #112]	; (80089ec <xPortStartScheduler+0x12c>)
 800897a:	6013      	str	r3, [r2, #0]
 800897c:	4b1b      	ldr	r3, [pc, #108]	; (80089ec <xPortStartScheduler+0x12c>)
 800897e:	681b      	ldr	r3, [r3, #0]
 8008980:	f403 63e0 	and.w	r3, r3, #1792	; 0x700
 8008984:	4a19      	ldr	r2, [pc, #100]	; (80089ec <xPortStartScheduler+0x12c>)
 8008986:	6013      	str	r3, [r2, #0]
 8008988:	687b      	ldr	r3, [r7, #4]
 800898a:	b2da      	uxtb	r2, r3
 800898c:	697b      	ldr	r3, [r7, #20]
 800898e:	701a      	strb	r2, [r3, #0]
 8008990:	4b17      	ldr	r3, [pc, #92]	; (80089f0 <xPortStartScheduler+0x130>)
 8008992:	681b      	ldr	r3, [r3, #0]
 8008994:	4a16      	ldr	r2, [pc, #88]	; (80089f0 <xPortStartScheduler+0x130>)
 8008996:	f443 0370 	orr.w	r3, r3, #15728640	; 0xf00000
 800899a:	6013      	str	r3, [r2, #0]
 800899c:	4b14      	ldr	r3, [pc, #80]	; (80089f0 <xPortStartScheduler+0x130>)
 800899e:	681b      	ldr	r3, [r3, #0]
 80089a0:	4a13      	ldr	r2, [pc, #76]	; (80089f0 <xPortStartScheduler+0x130>)
 80089a2:	f043 4370 	orr.w	r3, r3, #4026531840	; 0xf0000000
 80089a6:	6013      	str	r3, [r2, #0]
 80089a8:	f000 f8d6 	bl	8008b58 <vPortSetupTimerInterrupt>
 80089ac:	4b11      	ldr	r3, [pc, #68]	; (80089f4 <xPortStartScheduler+0x134>)
 80089ae:	2200      	movs	r2, #0
 80089b0:	601a      	str	r2, [r3, #0]
 80089b2:	f000 f8f5 	bl	8008ba0 <vPortEnableVFP>
 80089b6:	4b10      	ldr	r3, [pc, #64]	; (80089f8 <xPortStartScheduler+0x138>)
 80089b8:	681b      	ldr	r3, [r3, #0]
 80089ba:	4a0f      	ldr	r2, [pc, #60]	; (80089f8 <xPortStartScheduler+0x138>)
 80089bc:	f043 4340 	orr.w	r3, r3, #3221225472	; 0xc0000000
 80089c0:	6013      	str	r3, [r2, #0]
 80089c2:	f7ff ff69 	bl	8008898 <prvPortStartFirstTask>
 80089c6:	f7ff f86f 	bl	8007aa8 <vTaskSwitchContext>
 80089ca:	f7ff ff25 	bl	8008818 <prvTaskExitError>
 80089ce:	2300      	movs	r3, #0
 80089d0:	4618      	mov	r0, r3
 80089d2:	3718      	adds	r7, #24
 80089d4:	46bd      	mov	sp, r7
 80089d6:	bd80      	pop	{r7, pc}
 80089d8:	e000ed00 	.word	0xe000ed00
 80089dc:	410fc271 	.word	0x410fc271
 80089e0:	410fc270 	.word	0x410fc270
 80089e4:	e000e400 	.word	0xe000e400
 80089e8:	20000d1c 	.word	0x20000d1c
 80089ec:	20000d20 	.word	0x20000d20
 80089f0:	e000ed20 	.word	0xe000ed20
 80089f4:	2000000c 	.word	0x2000000c
 80089f8:	e000ef34 	.word	0xe000ef34

080089fc <vPortEnterCritical>:
 80089fc:	b480      	push	{r7}
 80089fe:	b083      	sub	sp, #12
 8008a00:	af00      	add	r7, sp, #0
 8008a02:	f04f 0350 	mov.w	r3, #80	; 0x50
 8008a06:	f383 8811 	msr	BASEPRI, r3
 8008a0a:	f3bf 8f6f 	isb	sy
 8008a0e:	f3bf 8f4f 	dsb	sy
 8008a12:	607b      	str	r3, [r7, #4]
 8008a14:	4b0e      	ldr	r3, [pc, #56]	; (8008a50 <vPortEnterCritical+0x54>)
 8008a16:	681b      	ldr	r3, [r3, #0]
 8008a18:	3301      	adds	r3, #1
 8008a1a:	4a0d      	ldr	r2, [pc, #52]	; (8008a50 <vPortEnterCritical+0x54>)
 8008a1c:	6013      	str	r3, [r2, #0]
 8008a1e:	4b0c      	ldr	r3, [pc, #48]	; (8008a50 <vPortEnterCritical+0x54>)
 8008a20:	681b      	ldr	r3, [r3, #0]
 8008a22:	2b01      	cmp	r3, #1
 8008a24:	d10e      	bne.n	8008a44 <vPortEnterCritical+0x48>
 8008a26:	4b0b      	ldr	r3, [pc, #44]	; (8008a54 <vPortEnterCritical+0x58>)
 8008a28:	681b      	ldr	r3, [r3, #0]
 8008a2a:	b2db      	uxtb	r3, r3
 8008a2c:	2b00      	cmp	r3, #0
 8008a2e:	d009      	beq.n	8008a44 <vPortEnterCritical+0x48>
 8008a30:	f04f 0350 	mov.w	r3, #80	; 0x50
 8008a34:	f383 8811 	msr	BASEPRI, r3
 8008a38:	f3bf 8f6f 	isb	sy
 8008a3c:	f3bf 8f4f 	dsb	sy
 8008a40:	603b      	str	r3, [r7, #0]
 8008a42:	e7fe      	b.n	8008a42 <vPortEnterCritical+0x46>
 8008a44:	bf00      	nop
 8008a46:	370c      	adds	r7, #12
 8008a48:	46bd      	mov	sp, r7
 8008a4a:	f85d 7b04 	ldr.w	r7, [sp], #4
 8008a4e:	4770      	bx	lr
 8008a50:	2000000c 	.word	0x2000000c
 8008a54:	e000ed04 	.word	0xe000ed04

08008a58 <vPortExitCritical>:
 8008a58:	b480      	push	{r7}
 8008a5a:	b083      	sub	sp, #12
 8008a5c:	af00      	add	r7, sp, #0
 8008a5e:	4b11      	ldr	r3, [pc, #68]	; (8008aa4 <vPortExitCritical+0x4c>)
 8008a60:	681b      	ldr	r3, [r3, #0]
 8008a62:	2b00      	cmp	r3, #0
 8008a64:	d109      	bne.n	8008a7a <vPortExitCritical+0x22>
 8008a66:	f04f 0350 	mov.w	r3, #80	; 0x50
 8008a6a:	f383 8811 	msr	BASEPRI, r3
 8008a6e:	f3bf 8f6f 	isb	sy
 8008a72:	f3bf 8f4f 	dsb	sy
 8008a76:	607b      	str	r3, [r7, #4]
 8008a78:	e7fe      	b.n	8008a78 <vPortExitCritical+0x20>
 8008a7a:	4b0a      	ldr	r3, [pc, #40]	; (8008aa4 <vPortExitCritical+0x4c>)
 8008a7c:	681b      	ldr	r3, [r3, #0]
 8008a7e:	3b01      	subs	r3, #1
 8008a80:	4a08      	ldr	r2, [pc, #32]	; (8008aa4 <vPortExitCritical+0x4c>)
 8008a82:	6013      	str	r3, [r2, #0]
 8008a84:	4b07      	ldr	r3, [pc, #28]	; (8008aa4 <vPortExitCritical+0x4c>)
 8008a86:	681b      	ldr	r3, [r3, #0]
 8008a88:	2b00      	cmp	r3, #0
 8008a8a:	d104      	bne.n	8008a96 <vPortExitCritical+0x3e>
 8008a8c:	2300      	movs	r3, #0
 8008a8e:	603b      	str	r3, [r7, #0]
 8008a90:	683b      	ldr	r3, [r7, #0]
 8008a92:	f383 8811 	msr	BASEPRI, r3
 8008a96:	bf00      	nop
 8008a98:	370c      	adds	r7, #12
 8008a9a:	46bd      	mov	sp, r7
 8008a9c:	f85d 7b04 	ldr.w	r7, [sp], #4
 8008aa0:	4770      	bx	lr
 8008aa2:	bf00      	nop
 8008aa4:	2000000c 	.word	0x2000000c
	...

08008ab0 <PendSV_Handler>:
 8008ab0:	f3ef 8009 	mrs	r0, PSP
 8008ab4:	f3bf 8f6f 	isb	sy
 8008ab8:	4b15      	ldr	r3, [pc, #84]	; (8008b10 <pxCurrentTCBConst>)
 8008aba:	681a      	ldr	r2, [r3, #0]
 8008abc:	f01e 0f10 	tst.w	lr, #16
 8008ac0:	bf08      	it	eq
 8008ac2:	ed20 8a10 	vstmdbeq	r0!, {s16-s31}
 8008ac6:	e920 4ff0 	stmdb	r0!, {r4, r5, r6, r7, r8, r9, sl, fp, lr}
 8008aca:	6010      	str	r0, [r2, #0]
 8008acc:	e92d 0009 	stmdb	sp!, {r0, r3}
 8008ad0:	f04f 0050 	mov.w	r0, #80	; 0x50
 8008ad4:	f380 8811 	msr	BASEPRI, r0
 8008ad8:	f3bf 8f4f 	dsb	sy
 8008adc:	f3bf 8f6f 	isb	sy
 8008ae0:	f7fe ffe2 	bl	8007aa8 <vTaskSwitchContext>
 8008ae4:	f04f 0000 	mov.w	r0, #0
 8008ae8:	f380 8811 	msr	BASEPRI, r0
 8008aec:	bc09      	pop	{r0, r3}
 8008aee:	6819      	ldr	r1, [r3, #0]
 8008af0:	6808      	ldr	r0, [r1, #0]
 8008af2:	e8b0 4ff0 	ldmia.w	r0!, {r4, r5, r6, r7, r8, r9, sl, fp, lr}
 8008af6:	f01e 0f10 	tst.w	lr, #16
 8008afa:	bf08      	it	eq
 8008afc:	ecb0 8a10 	vldmiaeq	r0!, {s16-s31}
 8008b00:	f380 8809 	msr	PSP, r0
 8008b04:	f3bf 8f6f 	isb	sy
 8008b08:	4770      	bx	lr
 8008b0a:	bf00      	nop
 8008b0c:	f3af 8000 	nop.w

08008b10 <pxCurrentTCBConst>:
 8008b10:	200006f0 	.word	0x200006f0
 8008b14:	bf00      	nop
 8008b16:	bf00      	nop

08008b18 <SysTick_Handler>:
 8008b18:	b580      	push	{r7, lr}
 8008b1a:	b082      	sub	sp, #8
 8008b1c:	af00      	add	r7, sp, #0
 8008b1e:	f04f 0350 	mov.w	r3, #80	; 0x50
 8008b22:	f383 8811 	msr	BASEPRI, r3
 8008b26:	f3bf 8f6f 	isb	sy
 8008b2a:	f3bf 8f4f 	dsb	sy
 8008b2e:	607b      	str	r3, [r7, #4]
 8008b30:	f7fe ff02 	bl	8007938 <xTaskIncrementTick>
 8008b34:	4603      	mov	r3, r0
 8008b36:	2b00      	cmp	r3, #0
 8008b38:	d003      	beq.n	8008b42 <SysTick_Handler+0x2a>
 8008b3a:	4b06      	ldr	r3, [pc, #24]	; (8008b54 <SysTick_Handler+0x3c>)
 8008b3c:	f04f 5280 	mov.w	r2, #268435456	; 0x10000000
 8008b40:	601a      	str	r2, [r3, #0]
 8008b42:	2300      	movs	r3, #0
 8008b44:	603b      	str	r3, [r7, #0]
 8008b46:	683b      	ldr	r3, [r7, #0]
 8008b48:	f383 8811 	msr	BASEPRI, r3
 8008b4c:	bf00      	nop
 8008b4e:	3708      	adds	r7, #8
 8008b50:	46bd      	mov	sp, r7
 8008b52:	bd80      	pop	{r7, pc}
 8008b54:	e000ed04 	.word	0xe000ed04

08008b58 <vPortSetupTimerInterrupt>:
 8008b58:	b480      	push	{r7}
 8008b5a:	af00      	add	r7, sp, #0
 8008b5c:	4b0b      	ldr	r3, [pc, #44]	; (8008b8c <vPortSetupTimerInterrupt+0x34>)
 8008b5e:	2200      	movs	r2, #0
 8008b60:	601a      	str	r2, [r3, #0]
 8008b62:	4b0b      	ldr	r3, [pc, #44]	; (8008b90 <vPortSetupTimerInterrupt+0x38>)
 8008b64:	2200      	movs	r2, #0
 8008b66:	601a      	str	r2, [r3, #0]
 8008b68:	4b0a      	ldr	r3, [pc, #40]	; (8008b94 <vPortSetupTimerInterrupt+0x3c>)
 8008b6a:	681b      	ldr	r3, [r3, #0]
 8008b6c:	4a0a      	ldr	r2, [pc, #40]	; (8008b98 <vPortSetupTimerInterrupt+0x40>)
 8008b6e:	fba2 2303 	umull	r2, r3, r2, r3
 8008b72:	099b      	lsrs	r3, r3, #6
 8008b74:	4a09      	ldr	r2, [pc, #36]	; (8008b9c <vPortSetupTimerInterrupt+0x44>)
 8008b76:	3b01      	subs	r3, #1
 8008b78:	6013      	str	r3, [r2, #0]
 8008b7a:	4b04      	ldr	r3, [pc, #16]	; (8008b8c <vPortSetupTimerInterrupt+0x34>)
 8008b7c:	2207      	movs	r2, #7
 8008b7e:	601a      	str	r2, [r3, #0]
 8008b80:	bf00      	nop
 8008b82:	46bd      	mov	sp, r7
 8008b84:	f85d 7b04 	ldr.w	r7, [sp], #4
 8008b88:	4770      	bx	lr
 8008b8a:	bf00      	nop
 8008b8c:	e000e010 	.word	0xe000e010
 8008b90:	e000e018 	.word	0xe000e018
 8008b94:	20000000 	.word	0x20000000
 8008b98:	10624dd3 	.word	0x10624dd3
 8008b9c:	e000e014 	.word	0xe000e014

08008ba0 <vPortEnableVFP>:
 8008ba0:	f8df 000c 	ldr.w	r0, [pc, #12]	; 8008bb0 <vPortEnableVFP+0x10>
 8008ba4:	6801      	ldr	r1, [r0, #0]
 8008ba6:	f441 0170 	orr.w	r1, r1, #15728640	; 0xf00000
 8008baa:	6001      	str	r1, [r0, #0]
 8008bac:	4770      	bx	lr
 8008bae:	bf00      	nop
 8008bb0:	e000ed88 	.word	0xe000ed88

08008bb4 <vPortValidateInterruptPriority>:
 8008bb4:	b480      	push	{r7}
 8008bb6:	b085      	sub	sp, #20
 8008bb8:	af00      	add	r7, sp, #0
 8008bba:	f3ef 8305 	mrs	r3, IPSR
 8008bbe:	60fb      	str	r3, [r7, #12]
 8008bc0:	68fb      	ldr	r3, [r7, #12]
 8008bc2:	2b0f      	cmp	r3, #15
 8008bc4:	d913      	bls.n	8008bee <vPortValidateInterruptPriority+0x3a>
 8008bc6:	4a16      	ldr	r2, [pc, #88]	; (8008c20 <vPortValidateInterruptPriority+0x6c>)
 8008bc8:	68fb      	ldr	r3, [r7, #12]
 8008bca:	4413      	add	r3, r2
 8008bcc:	781b      	ldrb	r3, [r3, #0]
 8008bce:	72fb      	strb	r3, [r7, #11]
 8008bd0:	4b14      	ldr	r3, [pc, #80]	; (8008c24 <vPortValidateInterruptPriority+0x70>)
 8008bd2:	781b      	ldrb	r3, [r3, #0]
 8008bd4:	7afa      	ldrb	r2, [r7, #11]
 8008bd6:	429a      	cmp	r2, r3
 8008bd8:	d209      	bcs.n	8008bee <vPortValidateInterruptPriority+0x3a>
 8008bda:	f04f 0350 	mov.w	r3, #80	; 0x50
 8008bde:	f383 8811 	msr	BASEPRI, r3
 8008be2:	f3bf 8f6f 	isb	sy
 8008be6:	f3bf 8f4f 	dsb	sy
 8008bea:	607b      	str	r3, [r7, #4]
 8008bec:	e7fe      	b.n	8008bec <vPortValidateInterruptPriority+0x38>
 8008bee:	4b0e      	ldr	r3, [pc, #56]	; (8008c28 <vPortValidateInterruptPriority+0x74>)
 8008bf0:	681b      	ldr	r3, [r3, #0]
 8008bf2:	f403 62e0 	and.w	r2, r3, #1792	; 0x700
 8008bf6:	4b0d      	ldr	r3, [pc, #52]	; (8008c2c <vPortValidateInterruptPriority+0x78>)
 8008bf8:	681b      	ldr	r3, [r3, #0]
 8008bfa:	429a      	cmp	r2, r3
 8008bfc:	d909      	bls.n	8008c12 <vPortValidateInterruptPriority+0x5e>
 8008bfe:	f04f 0350 	mov.w	r3, #80	; 0x50
 8008c02:	f383 8811 	msr	BASEPRI, r3
 8008c06:	f3bf 8f6f 	isb	sy
 8008c0a:	f3bf 8f4f 	dsb	sy
 8008c0e:	603b      	str	r3, [r7, #0]
 8008c10:	e7fe      	b.n	8008c10 <vPortValidateInterruptPriority+0x5c>
 8008c12:	bf00      	nop
 8008c14:	3714      	adds	r7, #20
 8008c16:	46bd      	mov	sp, r7
 8008c18:	f85d 7b04 	ldr.w	r7, [sp], #4
 8008c1c:	4770      	bx	lr
 8008c1e:	bf00      	nop
 8008c20:	e000e3f0 	.word	0xe000e3f0
 8008c24:	20000d1c 	.word	0x20000d1c
 8008c28:	e000ed0c 	.word	0xe000ed0c
 8008c2c:	20000d20 	.word	0x20000d20

08008c30 <pvPortMalloc>:
 8008c30:	b580      	push	{r7, lr}
 8008c32:	b08a      	sub	sp, #40	; 0x28
 8008c34:	af00      	add	r7, sp, #0
 8008c36:	6078      	str	r0, [r7, #4]
 8008c38:	2300      	movs	r3, #0
 8008c3a:	61fb      	str	r3, [r7, #28]
 8008c3c:	f7fe fdc2 	bl	80077c4 <vTaskSuspendAll>
 8008c40:	4b57      	ldr	r3, [pc, #348]	; (8008da0 <pvPortMalloc+0x170>)
 8008c42:	681b      	ldr	r3, [r3, #0]
 8008c44:	2b00      	cmp	r3, #0
 8008c46:	d101      	bne.n	8008c4c <pvPortMalloc+0x1c>
 8008c48:	f000 f90c 	bl	8008e64 <prvHeapInit>
 8008c4c:	4b55      	ldr	r3, [pc, #340]	; (8008da4 <pvPortMalloc+0x174>)
 8008c4e:	681a      	ldr	r2, [r3, #0]
 8008c50:	687b      	ldr	r3, [r7, #4]
 8008c52:	4013      	ands	r3, r2
 8008c54:	2b00      	cmp	r3, #0
 8008c56:	f040 808c 	bne.w	8008d72 <pvPortMalloc+0x142>
 8008c5a:	687b      	ldr	r3, [r7, #4]
 8008c5c:	2b00      	cmp	r3, #0
 8008c5e:	d01c      	beq.n	8008c9a <pvPortMalloc+0x6a>
 8008c60:	2208      	movs	r2, #8
 8008c62:	687b      	ldr	r3, [r7, #4]
 8008c64:	4413      	add	r3, r2
 8008c66:	607b      	str	r3, [r7, #4]
 8008c68:	687b      	ldr	r3, [r7, #4]
 8008c6a:	f003 0307 	and.w	r3, r3, #7
 8008c6e:	2b00      	cmp	r3, #0
 8008c70:	d013      	beq.n	8008c9a <pvPortMalloc+0x6a>
 8008c72:	687b      	ldr	r3, [r7, #4]
 8008c74:	f023 0307 	bic.w	r3, r3, #7
 8008c78:	3308      	adds	r3, #8
 8008c7a:	607b      	str	r3, [r7, #4]
 8008c7c:	687b      	ldr	r3, [r7, #4]
 8008c7e:	f003 0307 	and.w	r3, r3, #7
 8008c82:	2b00      	cmp	r3, #0
 8008c84:	d009      	beq.n	8008c9a <pvPortMalloc+0x6a>
 8008c86:	f04f 0350 	mov.w	r3, #80	; 0x50
 8008c8a:	f383 8811 	msr	BASEPRI, r3
 8008c8e:	f3bf 8f6f 	isb	sy
 8008c92:	f3bf 8f4f 	dsb	sy
 8008c96:	617b      	str	r3, [r7, #20]
 8008c98:	e7fe      	b.n	8008c98 <pvPortMalloc+0x68>
 8008c9a:	687b      	ldr	r3, [r7, #4]
 8008c9c:	2b00      	cmp	r3, #0
 8008c9e:	d068      	beq.n	8008d72 <pvPortMalloc+0x142>
 8008ca0:	4b41      	ldr	r3, [pc, #260]	; (8008da8 <pvPortMalloc+0x178>)
 8008ca2:	681b      	ldr	r3, [r3, #0]
 8008ca4:	687a      	ldr	r2, [r7, #4]
 8008ca6:	429a      	cmp	r2, r3
 8008ca8:	d863      	bhi.n	8008d72 <pvPortMalloc+0x142>
 8008caa:	4b40      	ldr	r3, [pc, #256]	; (8008dac <pvPortMalloc+0x17c>)
 8008cac:	623b      	str	r3, [r7, #32]
 8008cae:	4b3f      	ldr	r3, [pc, #252]	; (8008dac <pvPortMalloc+0x17c>)
 8008cb0:	681b      	ldr	r3, [r3, #0]
 8008cb2:	627b      	str	r3, [r7, #36]	; 0x24
 8008cb4:	e004      	b.n	8008cc0 <pvPortMalloc+0x90>
 8008cb6:	6a7b      	ldr	r3, [r7, #36]	; 0x24
 8008cb8:	623b      	str	r3, [r7, #32]
 8008cba:	6a7b      	ldr	r3, [r7, #36]	; 0x24
 8008cbc:	681b      	ldr	r3, [r3, #0]
 8008cbe:	627b      	str	r3, [r7, #36]	; 0x24
 8008cc0:	6a7b      	ldr	r3, [r7, #36]	; 0x24
 8008cc2:	685b      	ldr	r3, [r3, #4]
 8008cc4:	687a      	ldr	r2, [r7, #4]
 8008cc6:	429a      	cmp	r2, r3
 8008cc8:	d903      	bls.n	8008cd2 <pvPortMalloc+0xa2>
 8008cca:	6a7b      	ldr	r3, [r7, #36]	; 0x24
 8008ccc:	681b      	ldr	r3, [r3, #0]
 8008cce:	2b00      	cmp	r3, #0
 8008cd0:	d1f1      	bne.n	8008cb6 <pvPortMalloc+0x86>
 8008cd2:	4b33      	ldr	r3, [pc, #204]	; (8008da0 <pvPortMalloc+0x170>)
 8008cd4:	681b      	ldr	r3, [r3, #0]
 8008cd6:	6a7a      	ldr	r2, [r7, #36]	; 0x24
 8008cd8:	429a      	cmp	r2, r3
 8008cda:	d04a      	beq.n	8008d72 <pvPortMalloc+0x142>
 8008cdc:	6a3b      	ldr	r3, [r7, #32]
 8008cde:	681b      	ldr	r3, [r3, #0]
 8008ce0:	2208      	movs	r2, #8
 8008ce2:	4413      	add	r3, r2
 8008ce4:	61fb      	str	r3, [r7, #28]
 8008ce6:	6a7b      	ldr	r3, [r7, #36]	; 0x24
 8008ce8:	681a      	ldr	r2, [r3, #0]
 8008cea:	6a3b      	ldr	r3, [r7, #32]
 8008cec:	601a      	str	r2, [r3, #0]
 8008cee:	6a7b      	ldr	r3, [r7, #36]	; 0x24
 8008cf0:	685a      	ldr	r2, [r3, #4]
 8008cf2:	687b      	ldr	r3, [r7, #4]
 8008cf4:	1ad2      	subs	r2, r2, r3
 8008cf6:	2308      	movs	r3, #8
 8008cf8:	005b      	lsls	r3, r3, #1
 8008cfa:	429a      	cmp	r2, r3
 8008cfc:	d91e      	bls.n	8008d3c <pvPortMalloc+0x10c>
 8008cfe:	6a7a      	ldr	r2, [r7, #36]	; 0x24
 8008d00:	687b      	ldr	r3, [r7, #4]
 8008d02:	4413      	add	r3, r2
 8008d04:	61bb      	str	r3, [r7, #24]
 8008d06:	69bb      	ldr	r3, [r7, #24]
 8008d08:	f003 0307 	and.w	r3, r3, #7
 8008d0c:	2b00      	cmp	r3, #0
 8008d0e:	d009      	beq.n	8008d24 <pvPortMalloc+0xf4>
 8008d10:	f04f 0350 	mov.w	r3, #80	; 0x50
 8008d14:	f383 8811 	msr	BASEPRI, r3
 8008d18:	f3bf 8f6f 	isb	sy
 8008d1c:	f3bf 8f4f 	dsb	sy
 8008d20:	613b      	str	r3, [r7, #16]
 8008d22:	e7fe      	b.n	8008d22 <pvPortMalloc+0xf2>
 8008d24:	6a7b      	ldr	r3, [r7, #36]	; 0x24
 8008d26:	685a      	ldr	r2, [r3, #4]
 8008d28:	687b      	ldr	r3, [r7, #4]
 8008d2a:	1ad2      	subs	r2, r2, r3
 8008d2c:	69bb      	ldr	r3, [r7, #24]
 8008d2e:	605a      	str	r2, [r3, #4]
 8008d30:	6a7b      	ldr	r3, [r7, #36]	; 0x24
 8008d32:	687a      	ldr	r2, [r7, #4]
 8008d34:	605a      	str	r2, [r3, #4]
 8008d36:	69b8      	ldr	r0, [r7, #24]
 8008d38:	f000 f8f6 	bl	8008f28 <prvInsertBlockIntoFreeList>
 8008d3c:	4b1a      	ldr	r3, [pc, #104]	; (8008da8 <pvPortMalloc+0x178>)
 8008d3e:	681a      	ldr	r2, [r3, #0]
 8008d40:	6a7b      	ldr	r3, [r7, #36]	; 0x24
 8008d42:	685b      	ldr	r3, [r3, #4]
 8008d44:	1ad3      	subs	r3, r2, r3
 8008d46:	4a18      	ldr	r2, [pc, #96]	; (8008da8 <pvPortMalloc+0x178>)
 8008d48:	6013      	str	r3, [r2, #0]
 8008d4a:	4b17      	ldr	r3, [pc, #92]	; (8008da8 <pvPortMalloc+0x178>)
 8008d4c:	681a      	ldr	r2, [r3, #0]
 8008d4e:	4b18      	ldr	r3, [pc, #96]	; (8008db0 <pvPortMalloc+0x180>)
 8008d50:	681b      	ldr	r3, [r3, #0]
 8008d52:	429a      	cmp	r2, r3
 8008d54:	d203      	bcs.n	8008d5e <pvPortMalloc+0x12e>
 8008d56:	4b14      	ldr	r3, [pc, #80]	; (8008da8 <pvPortMalloc+0x178>)
 8008d58:	681b      	ldr	r3, [r3, #0]
 8008d5a:	4a15      	ldr	r2, [pc, #84]	; (8008db0 <pvPortMalloc+0x180>)
 8008d5c:	6013      	str	r3, [r2, #0]
 8008d5e:	6a7b      	ldr	r3, [r7, #36]	; 0x24
 8008d60:	685a      	ldr	r2, [r3, #4]
 8008d62:	4b10      	ldr	r3, [pc, #64]	; (8008da4 <pvPortMalloc+0x174>)
 8008d64:	681b      	ldr	r3, [r3, #0]
 8008d66:	431a      	orrs	r2, r3
 8008d68:	6a7b      	ldr	r3, [r7, #36]	; 0x24
 8008d6a:	605a      	str	r2, [r3, #4]
 8008d6c:	6a7b      	ldr	r3, [r7, #36]	; 0x24
 8008d6e:	2200      	movs	r2, #0
 8008d70:	601a      	str	r2, [r3, #0]
 8008d72:	f7fe fd35 	bl	80077e0 <xTaskResumeAll>
 8008d76:	69fb      	ldr	r3, [r7, #28]
 8008d78:	f003 0307 	and.w	r3, r3, #7
 8008d7c:	2b00      	cmp	r3, #0
 8008d7e:	d009      	beq.n	8008d94 <pvPortMalloc+0x164>
 8008d80:	f04f 0350 	mov.w	r3, #80	; 0x50
 8008d84:	f383 8811 	msr	BASEPRI, r3
 8008d88:	f3bf 8f6f 	isb	sy
 8008d8c:	f3bf 8f4f 	dsb	sy
 8008d90:	60fb      	str	r3, [r7, #12]
 8008d92:	e7fe      	b.n	8008d92 <pvPortMalloc+0x162>
 8008d94:	69fb      	ldr	r3, [r7, #28]
 8008d96:	4618      	mov	r0, r3
 8008d98:	3728      	adds	r7, #40	; 0x28
 8008d9a:	46bd      	mov	sp, r7
 8008d9c:	bd80      	pop	{r7, pc}
 8008d9e:	bf00      	nop
 8008da0:	2000492c 	.word	0x2000492c
 8008da4:	20004938 	.word	0x20004938
 8008da8:	20004930 	.word	0x20004930
 8008dac:	20004924 	.word	0x20004924
 8008db0:	20004934 	.word	0x20004934

08008db4 <vPortFree>:
 8008db4:	b580      	push	{r7, lr}
 8008db6:	b086      	sub	sp, #24
 8008db8:	af00      	add	r7, sp, #0
 8008dba:	6078      	str	r0, [r7, #4]
 8008dbc:	687b      	ldr	r3, [r7, #4]
 8008dbe:	617b      	str	r3, [r7, #20]
 8008dc0:	687b      	ldr	r3, [r7, #4]
 8008dc2:	2b00      	cmp	r3, #0
 8008dc4:	d046      	beq.n	8008e54 <vPortFree+0xa0>
 8008dc6:	2308      	movs	r3, #8
 8008dc8:	425b      	negs	r3, r3
 8008dca:	697a      	ldr	r2, [r7, #20]
 8008dcc:	4413      	add	r3, r2
 8008dce:	617b      	str	r3, [r7, #20]
 8008dd0:	697b      	ldr	r3, [r7, #20]
 8008dd2:	613b      	str	r3, [r7, #16]
 8008dd4:	693b      	ldr	r3, [r7, #16]
 8008dd6:	685a      	ldr	r2, [r3, #4]
 8008dd8:	4b20      	ldr	r3, [pc, #128]	; (8008e5c <vPortFree+0xa8>)
 8008dda:	681b      	ldr	r3, [r3, #0]
 8008ddc:	4013      	ands	r3, r2
 8008dde:	2b00      	cmp	r3, #0
 8008de0:	d109      	bne.n	8008df6 <vPortFree+0x42>
 8008de2:	f04f 0350 	mov.w	r3, #80	; 0x50
 8008de6:	f383 8811 	msr	BASEPRI, r3
 8008dea:	f3bf 8f6f 	isb	sy
 8008dee:	f3bf 8f4f 	dsb	sy
 8008df2:	60fb      	str	r3, [r7, #12]
 8008df4:	e7fe      	b.n	8008df4 <vPortFree+0x40>
 8008df6:	693b      	ldr	r3, [r7, #16]
 8008df8:	681b      	ldr	r3, [r3, #0]
 8008dfa:	2b00      	cmp	r3, #0
 8008dfc:	d009      	beq.n	8008e12 <vPortFree+0x5e>
 8008dfe:	f04f 0350 	mov.w	r3, #80	; 0x50
 8008e02:	f383 8811 	msr	BASEPRI, r3
 8008e06:	f3bf 8f6f 	isb	sy
 8008e0a:	f3bf 8f4f 	dsb	sy
 8008e0e:	60bb      	str	r3, [r7, #8]
 8008e10:	e7fe      	b.n	8008e10 <vPortFree+0x5c>
 8008e12:	693b      	ldr	r3, [r7, #16]
 8008e14:	685a      	ldr	r2, [r3, #4]
 8008e16:	4b11      	ldr	r3, [pc, #68]	; (8008e5c <vPortFree+0xa8>)
 8008e18:	681b      	ldr	r3, [r3, #0]
 8008e1a:	4013      	ands	r3, r2
 8008e1c:	2b00      	cmp	r3, #0
 8008e1e:	d019      	beq.n	8008e54 <vPortFree+0xa0>
 8008e20:	693b      	ldr	r3, [r7, #16]
 8008e22:	681b      	ldr	r3, [r3, #0]
 8008e24:	2b00      	cmp	r3, #0
 8008e26:	d115      	bne.n	8008e54 <vPortFree+0xa0>
 8008e28:	693b      	ldr	r3, [r7, #16]
 8008e2a:	685a      	ldr	r2, [r3, #4]
 8008e2c:	4b0b      	ldr	r3, [pc, #44]	; (8008e5c <vPortFree+0xa8>)
 8008e2e:	681b      	ldr	r3, [r3, #0]
 8008e30:	43db      	mvns	r3, r3
 8008e32:	401a      	ands	r2, r3
 8008e34:	693b      	ldr	r3, [r7, #16]
 8008e36:	605a      	str	r2, [r3, #4]
 8008e38:	f7fe fcc4 	bl	80077c4 <vTaskSuspendAll>
 8008e3c:	693b      	ldr	r3, [r7, #16]
 8008e3e:	685a      	ldr	r2, [r3, #4]
 8008e40:	4b07      	ldr	r3, [pc, #28]	; (8008e60 <vPortFree+0xac>)
 8008e42:	681b      	ldr	r3, [r3, #0]
 8008e44:	4413      	add	r3, r2
 8008e46:	4a06      	ldr	r2, [pc, #24]	; (8008e60 <vPortFree+0xac>)
 8008e48:	6013      	str	r3, [r2, #0]
 8008e4a:	6938      	ldr	r0, [r7, #16]
 8008e4c:	f000 f86c 	bl	8008f28 <prvInsertBlockIntoFreeList>
 8008e50:	f7fe fcc6 	bl	80077e0 <xTaskResumeAll>
 8008e54:	bf00      	nop
 8008e56:	3718      	adds	r7, #24
 8008e58:	46bd      	mov	sp, r7
 8008e5a:	bd80      	pop	{r7, pc}
 8008e5c:	20004938 	.word	0x20004938
 8008e60:	20004930 	.word	0x20004930

08008e64 <prvHeapInit>:
 8008e64:	b480      	push	{r7}
 8008e66:	b085      	sub	sp, #20
 8008e68:	af00      	add	r7, sp, #0
 8008e6a:	f44f 5370 	mov.w	r3, #15360	; 0x3c00
 8008e6e:	60bb      	str	r3, [r7, #8]
 8008e70:	4b27      	ldr	r3, [pc, #156]	; (8008f10 <prvHeapInit+0xac>)
 8008e72:	60fb      	str	r3, [r7, #12]
 8008e74:	68fb      	ldr	r3, [r7, #12]
 8008e76:	f003 0307 	and.w	r3, r3, #7
 8008e7a:	2b00      	cmp	r3, #0
 8008e7c:	d00c      	beq.n	8008e98 <prvHeapInit+0x34>
 8008e7e:	68fb      	ldr	r3, [r7, #12]
 8008e80:	3307      	adds	r3, #7
 8008e82:	60fb      	str	r3, [r7, #12]
 8008e84:	68fb      	ldr	r3, [r7, #12]
 8008e86:	f023 0307 	bic.w	r3, r3, #7
 8008e8a:	60fb      	str	r3, [r7, #12]
 8008e8c:	68ba      	ldr	r2, [r7, #8]
 8008e8e:	68fb      	ldr	r3, [r7, #12]
 8008e90:	1ad3      	subs	r3, r2, r3
 8008e92:	4a1f      	ldr	r2, [pc, #124]	; (8008f10 <prvHeapInit+0xac>)
 8008e94:	4413      	add	r3, r2
 8008e96:	60bb      	str	r3, [r7, #8]
 8008e98:	68fb      	ldr	r3, [r7, #12]
 8008e9a:	607b      	str	r3, [r7, #4]
 8008e9c:	4a1d      	ldr	r2, [pc, #116]	; (8008f14 <prvHeapInit+0xb0>)
 8008e9e:	687b      	ldr	r3, [r7, #4]
 8008ea0:	6013      	str	r3, [r2, #0]
 8008ea2:	4b1c      	ldr	r3, [pc, #112]	; (8008f14 <prvHeapInit+0xb0>)
 8008ea4:	2200      	movs	r2, #0
 8008ea6:	605a      	str	r2, [r3, #4]
 8008ea8:	687b      	ldr	r3, [r7, #4]
 8008eaa:	68ba      	ldr	r2, [r7, #8]
 8008eac:	4413      	add	r3, r2
 8008eae:	60fb      	str	r3, [r7, #12]
 8008eb0:	2208      	movs	r2, #8
 8008eb2:	68fb      	ldr	r3, [r7, #12]
 8008eb4:	1a9b      	subs	r3, r3, r2
 8008eb6:	60fb      	str	r3, [r7, #12]
 8008eb8:	68fb      	ldr	r3, [r7, #12]
 8008eba:	f023 0307 	bic.w	r3, r3, #7
 8008ebe:	60fb      	str	r3, [r7, #12]
 8008ec0:	68fb      	ldr	r3, [r7, #12]
 8008ec2:	4a15      	ldr	r2, [pc, #84]	; (8008f18 <prvHeapInit+0xb4>)
 8008ec4:	6013      	str	r3, [r2, #0]
 8008ec6:	4b14      	ldr	r3, [pc, #80]	; (8008f18 <prvHeapInit+0xb4>)
 8008ec8:	681b      	ldr	r3, [r3, #0]
 8008eca:	2200      	movs	r2, #0
 8008ecc:	605a      	str	r2, [r3, #4]
 8008ece:	4b12      	ldr	r3, [pc, #72]	; (8008f18 <prvHeapInit+0xb4>)
 8008ed0:	681b      	ldr	r3, [r3, #0]
 8008ed2:	2200      	movs	r2, #0
 8008ed4:	601a      	str	r2, [r3, #0]
 8008ed6:	687b      	ldr	r3, [r7, #4]
 8008ed8:	603b      	str	r3, [r7, #0]
 8008eda:	683b      	ldr	r3, [r7, #0]
 8008edc:	68fa      	ldr	r2, [r7, #12]
 8008ede:	1ad2      	subs	r2, r2, r3
 8008ee0:	683b      	ldr	r3, [r7, #0]
 8008ee2:	605a      	str	r2, [r3, #4]
 8008ee4:	4b0c      	ldr	r3, [pc, #48]	; (8008f18 <prvHeapInit+0xb4>)
 8008ee6:	681a      	ldr	r2, [r3, #0]
 8008ee8:	683b      	ldr	r3, [r7, #0]
 8008eea:	601a      	str	r2, [r3, #0]
 8008eec:	683b      	ldr	r3, [r7, #0]
 8008eee:	685b      	ldr	r3, [r3, #4]
 8008ef0:	4a0a      	ldr	r2, [pc, #40]	; (8008f1c <prvHeapInit+0xb8>)
 8008ef2:	6013      	str	r3, [r2, #0]
 8008ef4:	683b      	ldr	r3, [r7, #0]
 8008ef6:	685b      	ldr	r3, [r3, #4]
 8008ef8:	4a09      	ldr	r2, [pc, #36]	; (8008f20 <prvHeapInit+0xbc>)
 8008efa:	6013      	str	r3, [r2, #0]
 8008efc:	4b09      	ldr	r3, [pc, #36]	; (8008f24 <prvHeapInit+0xc0>)
 8008efe:	f04f 4200 	mov.w	r2, #2147483648	; 0x80000000
 8008f02:	601a      	str	r2, [r3, #0]
 8008f04:	bf00      	nop
 8008f06:	3714      	adds	r7, #20
 8008f08:	46bd      	mov	sp, r7
 8008f0a:	f85d 7b04 	ldr.w	r7, [sp], #4
 8008f0e:	4770      	bx	lr
 8008f10:	20000d24 	.word	0x20000d24
 8008f14:	20004924 	.word	0x20004924
 8008f18:	2000492c 	.word	0x2000492c
 8008f1c:	20004934 	.word	0x20004934
 8008f20:	20004930 	.word	0x20004930
 8008f24:	20004938 	.word	0x20004938

08008f28 <prvInsertBlockIntoFreeList>:
 8008f28:	b480      	push	{r7}
 8008f2a:	b085      	sub	sp, #20
 8008f2c:	af00      	add	r7, sp, #0
 8008f2e:	6078      	str	r0, [r7, #4]
 8008f30:	4b28      	ldr	r3, [pc, #160]	; (8008fd4 <prvInsertBlockIntoFreeList+0xac>)
 8008f32:	60fb      	str	r3, [r7, #12]
 8008f34:	e002      	b.n	8008f3c <prvInsertBlockIntoFreeList+0x14>
 8008f36:	68fb      	ldr	r3, [r7, #12]
 8008f38:	681b      	ldr	r3, [r3, #0]
 8008f3a:	60fb      	str	r3, [r7, #12]
 8008f3c:	68fb      	ldr	r3, [r7, #12]
 8008f3e:	681b      	ldr	r3, [r3, #0]
 8008f40:	687a      	ldr	r2, [r7, #4]
 8008f42:	429a      	cmp	r2, r3
 8008f44:	d8f7      	bhi.n	8008f36 <prvInsertBlockIntoFreeList+0xe>
 8008f46:	68fb      	ldr	r3, [r7, #12]
 8008f48:	60bb      	str	r3, [r7, #8]
 8008f4a:	68fb      	ldr	r3, [r7, #12]
 8008f4c:	685b      	ldr	r3, [r3, #4]
 8008f4e:	68ba      	ldr	r2, [r7, #8]
 8008f50:	4413      	add	r3, r2
 8008f52:	687a      	ldr	r2, [r7, #4]
 8008f54:	429a      	cmp	r2, r3
 8008f56:	d108      	bne.n	8008f6a <prvInsertBlockIntoFreeList+0x42>
 8008f58:	68fb      	ldr	r3, [r7, #12]
 8008f5a:	685a      	ldr	r2, [r3, #4]
 8008f5c:	687b      	ldr	r3, [r7, #4]
 8008f5e:	685b      	ldr	r3, [r3, #4]
 8008f60:	441a      	add	r2, r3
 8008f62:	68fb      	ldr	r3, [r7, #12]
 8008f64:	605a      	str	r2, [r3, #4]
 8008f66:	68fb      	ldr	r3, [r7, #12]
 8008f68:	607b      	str	r3, [r7, #4]
 8008f6a:	687b      	ldr	r3, [r7, #4]
 8008f6c:	60bb      	str	r3, [r7, #8]
 8008f6e:	687b      	ldr	r3, [r7, #4]
 8008f70:	685b      	ldr	r3, [r3, #4]
 8008f72:	68ba      	ldr	r2, [r7, #8]
 8008f74:	441a      	add	r2, r3
 8008f76:	68fb      	ldr	r3, [r7, #12]
 8008f78:	681b      	ldr	r3, [r3, #0]
 8008f7a:	429a      	cmp	r2, r3
 8008f7c:	d118      	bne.n	8008fb0 <prvInsertBlockIntoFreeList+0x88>
 8008f7e:	68fb      	ldr	r3, [r7, #12]
 8008f80:	681a      	ldr	r2, [r3, #0]
 8008f82:	4b15      	ldr	r3, [pc, #84]	; (8008fd8 <prvInsertBlockIntoFreeList+0xb0>)
 8008f84:	681b      	ldr	r3, [r3, #0]
 8008f86:	429a      	cmp	r2, r3
 8008f88:	d00d      	beq.n	8008fa6 <prvInsertBlockIntoFreeList+0x7e>
 8008f8a:	687b      	ldr	r3, [r7, #4]
 8008f8c:	685a      	ldr	r2, [r3, #4]
 8008f8e:	68fb      	ldr	r3, [r7, #12]
 8008f90:	681b      	ldr	r3, [r3, #0]
 8008f92:	685b      	ldr	r3, [r3, #4]
 8008f94:	441a      	add	r2, r3
 8008f96:	687b      	ldr	r3, [r7, #4]
 8008f98:	605a      	str	r2, [r3, #4]
 8008f9a:	68fb      	ldr	r3, [r7, #12]
 8008f9c:	681b      	ldr	r3, [r3, #0]
 8008f9e:	681a      	ldr	r2, [r3, #0]
 8008fa0:	687b      	ldr	r3, [r7, #4]
 8008fa2:	601a      	str	r2, [r3, #0]
 8008fa4:	e008      	b.n	8008fb8 <prvInsertBlockIntoFreeList+0x90>
 8008fa6:	4b0c      	ldr	r3, [pc, #48]	; (8008fd8 <prvInsertBlockIntoFreeList+0xb0>)
 8008fa8:	681a      	ldr	r2, [r3, #0]
 8008faa:	687b      	ldr	r3, [r7, #4]
 8008fac:	601a      	str	r2, [r3, #0]
 8008fae:	e003      	b.n	8008fb8 <prvInsertBlockIntoFreeList+0x90>
 8008fb0:	68fb      	ldr	r3, [r7, #12]
 8008fb2:	681a      	ldr	r2, [r3, #0]
 8008fb4:	687b      	ldr	r3, [r7, #4]
 8008fb6:	601a      	str	r2, [r3, #0]
 8008fb8:	68fa      	ldr	r2, [r7, #12]
 8008fba:	687b      	ldr	r3, [r7, #4]
 8008fbc:	429a      	cmp	r2, r3
 8008fbe:	d002      	beq.n	8008fc6 <prvInsertBlockIntoFreeList+0x9e>
 8008fc0:	68fb      	ldr	r3, [r7, #12]
 8008fc2:	687a      	ldr	r2, [r7, #4]
 8008fc4:	601a      	str	r2, [r3, #0]
 8008fc6:	bf00      	nop
 8008fc8:	3714      	adds	r7, #20
 8008fca:	46bd      	mov	sp, r7
 8008fcc:	f85d 7b04 	ldr.w	r7, [sp], #4
 8008fd0:	4770      	bx	lr
 8008fd2:	bf00      	nop
 8008fd4:	20004924 	.word	0x20004924
 8008fd8:	2000492c 	.word	0x2000492c

08008fdc <__libc_init_array>:
 8008fdc:	b570      	push	{r4, r5, r6, lr}
 8008fde:	4e0d      	ldr	r6, [pc, #52]	; (8009014 <__libc_init_array+0x38>)
 8008fe0:	4c0d      	ldr	r4, [pc, #52]	; (8009018 <__libc_init_array+0x3c>)
 8008fe2:	1ba4      	subs	r4, r4, r6
 8008fe4:	10a4      	asrs	r4, r4, #2
 8008fe6:	2500      	movs	r5, #0
 8008fe8:	42a5      	cmp	r5, r4
 8008fea:	d109      	bne.n	8009000 <__libc_init_array+0x24>
 8008fec:	4e0b      	ldr	r6, [pc, #44]	; (800901c <__libc_init_array+0x40>)
 8008fee:	4c0c      	ldr	r4, [pc, #48]	; (8009020 <__libc_init_array+0x44>)
 8008ff0:	f000 f82c 	bl	800904c <_init>
 8008ff4:	1ba4      	subs	r4, r4, r6
 8008ff6:	10a4      	asrs	r4, r4, #2
 8008ff8:	2500      	movs	r5, #0
 8008ffa:	42a5      	cmp	r5, r4
 8008ffc:	d105      	bne.n	800900a <__libc_init_array+0x2e>
 8008ffe:	bd70      	pop	{r4, r5, r6, pc}
 8009000:	f856 3025 	ldr.w	r3, [r6, r5, lsl #2]
 8009004:	4798      	blx	r3
 8009006:	3501      	adds	r5, #1
 8009008:	e7ee      	b.n	8008fe8 <__libc_init_array+0xc>
 800900a:	f856 3025 	ldr.w	r3, [r6, r5, lsl #2]
 800900e:	4798      	blx	r3
 8009010:	3501      	adds	r5, #1
 8009012:	e7f2      	b.n	8008ffa <__libc_init_array+0x1e>
 8009014:	08009234 	.word	0x08009234
 8009018:	08009234 	.word	0x08009234
 800901c:	08009234 	.word	0x08009234
 8009020:	08009238 	.word	0x08009238

08009024 <memcpy>:
 8009024:	b510      	push	{r4, lr}
 8009026:	1e43      	subs	r3, r0, #1
 8009028:	440a      	add	r2, r1
 800902a:	4291      	cmp	r1, r2
 800902c:	d100      	bne.n	8009030 <memcpy+0xc>
 800902e:	bd10      	pop	{r4, pc}
 8009030:	f811 4b01 	ldrb.w	r4, [r1], #1
 8009034:	f803 4f01 	strb.w	r4, [r3, #1]!
 8009038:	e7f7      	b.n	800902a <memcpy+0x6>

0800903a <memset>:
 800903a:	4402      	add	r2, r0
 800903c:	4603      	mov	r3, r0
 800903e:	4293      	cmp	r3, r2
 8009040:	d100      	bne.n	8009044 <memset+0xa>
 8009042:	4770      	bx	lr
 8009044:	f803 1b01 	strb.w	r1, [r3], #1
 8009048:	e7f9      	b.n	800903e <memset+0x4>
	...

0800904c <_init>:
 800904c:	b5f8      	push	{r3, r4, r5, r6, r7, lr}
 800904e:	bf00      	nop
 8009050:	bcf8      	pop	{r3, r4, r5, r6, r7}
 8009052:	bc08      	pop	{r3}
 8009054:	469e      	mov	lr, r3
 8009056:	4770      	bx	lr

08009058 <_fini>:
 8009058:	b5f8      	push	{r3, r4, r5, r6, r7, lr}
 800905a:	bf00      	nop
 800905c:	bcf8      	pop	{r3, r4, r5, r6, r7}
 800905e:	bc08      	pop	{r3}
 8009060:	469e      	mov	lr, r3
 8009062:	4770      	bx	lr
